SF:/home/nathan/Projects/smith/shared/smith-bus/src/consumer.rs
FN:151,_RINvMNtCs7756PgZboGe_9smith_bus8consumerNtB3_8Consumer10next_batchpEB5_
FN:112,_RINvMNtCs7756PgZboGe_9smith_bus8consumerNtB3_8Consumer12next_messagepEB5_
FN:173,_RINvMNtCs7756PgZboGe_9smith_bus8consumerNtB3_8Consumer23try_deserialize_messagepEB5_
FN:126,_RINvMNtCs7756PgZboGe_9smith_bus8consumerNtB3_8Consumer25process_jetstream_messagepEB5_
FN:154,_RNCINvMNtCs7756PgZboGe_9smith_bus8consumerNtB5_8Consumer10next_batchpE0B7_
FN:112,_RNCINvMNtCs7756PgZboGe_9smith_bus8consumerNtB5_8Consumer12next_messagepE0B7_
FN:176,_RNCINvMNtCs7756PgZboGe_9smith_bus8consumerNtB5_8Consumer23try_deserialize_messagepE0B7_
FN:129,_RNCINvMNtCs7756PgZboGe_9smith_bus8consumerNtB5_8Consumer25process_jetstream_messagepE0B7_
FN:132,_RNCNCINvMNtCs7756PgZboGe_9smith_bus8consumerNtB7_8Consumer25process_jetstream_messagepE00B9_
FN:108,_RNCNCNvMNtCs7756PgZboGe_9smith_bus8consumerNtB6_8Consumer25create_jetstream_consumer00B8_
FN:191,_RNCNvMNtCs7756PgZboGe_9smith_bus8consumerNtB4_8Consumer24handle_malformed_message0B6_
FN:103,_RNCNvMNtCs7756PgZboGe_9smith_bus8consumerNtB4_8Consumer25create_jetstream_consumer0B6_
FN:23,_RNCNvMNtCs7756PgZboGe_9smith_bus8consumerNtB4_8Consumer3new0B6_
FN:198,_RNCNvMNtCs7756PgZboGe_9smith_bus8consumerNtB4_8Consumer4info0B6_
FN:217,_RNCNvMNtCs7756PgZboGe_9smith_bus8consumerNtB4_8Consumer6delete0B6_
FN:191,_RNvMNtCs7756PgZboGe_9smith_bus8consumerNtB2_8Consumer24handle_malformed_message
FN:99,_RNvMNtCs7756PgZboGe_9smith_bus8consumerNtB2_8Consumer25create_jetstream_consumer
FN:19,_RNvMNtCs7756PgZboGe_9smith_bus8consumerNtB2_8Consumer3new
FN:198,_RNvMNtCs7756PgZboGe_9smith_bus8consumerNtB2_8Consumer4info
FN:217,_RNvMNtCs7756PgZboGe_9smith_bus8consumerNtB2_8Consumer6delete
FN:73,_RNCNvMNtCs7756PgZboGe_9smith_bus8consumerNtB4_8Consumer32convert_start_sequence_to_policy0B6_
FN:428,_RNvNtNtCs7756PgZboGe_9smith_bus8consumer5testss_24test_consumer_info_clone
FN:304,_RNvNtNtCs7756PgZboGe_9smith_bus8consumer5testss_25test_build_filter_subject
FN:258,_RNvNtNtCs7756PgZboGe_9smith_bus8consumer5testss_25test_consumer_info_health
FN:328,_RNvNtNtCs7756PgZboGe_9smith_bus8consumer5testss_26test_build_consumer_config
FN:381,_RNvNtNtCs7756PgZboGe_9smith_bus8consumer5testss_28test_consumer_config_default
FN:411,_RNvNtNtCs7756PgZboGe_9smith_bus8consumer5testss_31test_consumer_info_debug_format
FN:395,_RNvNtNtCs7756PgZboGe_9smith_bus8consumer5testss_37test_consumer_start_sequence_variants
FN:310,_RNvNtNtCs7756PgZboGe_9smith_bus8consumer5testss_37test_convert_start_sequence_to_policy
FN:356,_RNvNtNtCs7756PgZboGe_9smith_bus8consumer5testss_44test_build_consumer_config_with_default_name
FN:323,_RNCNvNtNtCs7756PgZboGe_9smith_bus8consumer5testss_37test_convert_start_sequence_to_policy0B7_
FN:51,_RNvMNtCs7756PgZboGe_9smith_bus8consumerNtB2_8Consumer20build_filter_subject
FN:79,_RNvMNtCs7756PgZboGe_9smith_bus8consumerNtB2_8Consumer21build_consumer_config
FN:60,_RNvMNtCs7756PgZboGe_9smith_bus8consumerNtB2_8Consumer32convert_start_sequence_to_policy
FN:245,_RNvMs_NtCs7756PgZboGe_9smith_bus8consumerNtB4_12ConsumerInfo10is_healthy
FNDA:0,_RINvMNtCs7756PgZboGe_9smith_bus8consumerNtB3_8Consumer10next_batchpEB5_
FNDA:0,_RINvMNtCs7756PgZboGe_9smith_bus8consumerNtB3_8Consumer12next_messagepEB5_
FNDA:0,_RINvMNtCs7756PgZboGe_9smith_bus8consumerNtB3_8Consumer23try_deserialize_messagepEB5_
FNDA:0,_RINvMNtCs7756PgZboGe_9smith_bus8consumerNtB3_8Consumer25process_jetstream_messagepEB5_
FNDA:0,_RNCINvMNtCs7756PgZboGe_9smith_bus8consumerNtB5_8Consumer10next_batchpE0B7_
FNDA:0,_RNCINvMNtCs7756PgZboGe_9smith_bus8consumerNtB5_8Consumer12next_messagepE0B7_
FNDA:0,_RNCINvMNtCs7756PgZboGe_9smith_bus8consumerNtB5_8Consumer23try_deserialize_messagepE0B7_
FNDA:0,_RNCINvMNtCs7756PgZboGe_9smith_bus8consumerNtB5_8Consumer25process_jetstream_messagepE0B7_
FNDA:0,_RNCNCINvMNtCs7756PgZboGe_9smith_bus8consumerNtB7_8Consumer25process_jetstream_messagepE00B9_
FNDA:0,_RNCNCNvMNtCs7756PgZboGe_9smith_bus8consumerNtB6_8Consumer25create_jetstream_consumer00B8_
FNDA:0,_RNCNvMNtCs7756PgZboGe_9smith_bus8consumerNtB4_8Consumer24handle_malformed_message0B6_
FNDA:0,_RNCNvMNtCs7756PgZboGe_9smith_bus8consumerNtB4_8Consumer25create_jetstream_consumer0B6_
FNDA:0,_RNCNvMNtCs7756PgZboGe_9smith_bus8consumerNtB4_8Consumer3new0B6_
FNDA:0,_RNCNvMNtCs7756PgZboGe_9smith_bus8consumerNtB4_8Consumer4info0B6_
FNDA:0,_RNCNvMNtCs7756PgZboGe_9smith_bus8consumerNtB4_8Consumer6delete0B6_
FNDA:0,_RNvMNtCs7756PgZboGe_9smith_bus8consumerNtB2_8Consumer24handle_malformed_message
FNDA:0,_RNvMNtCs7756PgZboGe_9smith_bus8consumerNtB2_8Consumer25create_jetstream_consumer
FNDA:0,_RNvMNtCs7756PgZboGe_9smith_bus8consumerNtB2_8Consumer3new
FNDA:0,_RNvMNtCs7756PgZboGe_9smith_bus8consumerNtB2_8Consumer4info
FNDA:0,_RNvMNtCs7756PgZboGe_9smith_bus8consumerNtB2_8Consumer6delete
FNDA:0,_RNCNvMNtCs7756PgZboGe_9smith_bus8consumerNtB4_8Consumer32convert_start_sequence_to_policy0B6_
FNDA:1,_RNvNtNtCs7756PgZboGe_9smith_bus8consumer5testss_24test_consumer_info_clone
FNDA:1,_RNvNtNtCs7756PgZboGe_9smith_bus8consumer5testss_25test_build_filter_subject
FNDA:1,_RNvNtNtCs7756PgZboGe_9smith_bus8consumer5testss_25test_consumer_info_health
FNDA:1,_RNvNtNtCs7756PgZboGe_9smith_bus8consumer5testss_26test_build_consumer_config
FNDA:1,_RNvNtNtCs7756PgZboGe_9smith_bus8consumer5testss_28test_consumer_config_default
FNDA:1,_RNvNtNtCs7756PgZboGe_9smith_bus8consumer5testss_31test_consumer_info_debug_format
FNDA:1,_RNvNtNtCs7756PgZboGe_9smith_bus8consumer5testss_37test_consumer_start_sequence_variants
FNDA:1,_RNvNtNtCs7756PgZboGe_9smith_bus8consumer5testss_37test_convert_start_sequence_to_policy
FNDA:1,_RNvNtNtCs7756PgZboGe_9smith_bus8consumer5testss_44test_build_consumer_config_with_default_name
FNDA:0,_RNCNvNtNtCs7756PgZboGe_9smith_bus8consumer5testss_37test_convert_start_sequence_to_policy0B7_
FNDA:1,_RNvMNtCs7756PgZboGe_9smith_bus8consumerNtB2_8Consumer20build_filter_subject
FNDA:2,_RNvMNtCs7756PgZboGe_9smith_bus8consumerNtB2_8Consumer21build_consumer_config
FNDA:4,_RNvMNtCs7756PgZboGe_9smith_bus8consumerNtB2_8Consumer32convert_start_sequence_to_policy
FNDA:4,_RNvMs_NtCs7756PgZboGe_9smith_bus8consumerNtB4_12ConsumerInfo10is_healthy
FNF:35
FNH:13
DA:19,0
DA:20,0
DA:21,0
DA:22,0
DA:23,0
DA:24,0
DA:25,0
DA:29,0
DA:30,0
DA:31,0
DA:32,0
DA:34,0
DA:35,0
DA:36,0
DA:38,0
DA:39,0
DA:43,0
DA:44,0
DA:45,0
DA:46,0
DA:47,0
DA:48,0
DA:51,1
DA:52,1
DA:53,1
DA:54,1
DA:55,1
DA:56,1
DA:57,1
DA:60,4
DA:61,4
DA:62,4
DA:63,4
DA:64,1
DA:65,1
DA:66,1
DA:67,1
DA:68,1
DA:69,1
DA:71,1
DA:72,1
DA:73,1
DA:76,4
DA:79,2
DA:80,2
DA:81,2
DA:82,2
DA:83,2
DA:84,2
DA:85,2
DA:86,2
DA:87,2
DA:88,2
DA:89,2
DA:90,2
DA:91,2
DA:92,2
DA:93,2
DA:94,2
DA:95,2
DA:96,2
DA:99,0
DA:100,0
DA:101,0
DA:102,0
DA:103,0
DA:104,0
DA:105,0
DA:106,0
DA:107,0
DA:108,0
DA:109,0
DA:112,0
DA:113,0
DA:114,0
DA:115,0
DA:116,0
DA:117,0
DA:119,0
DA:120,0
DA:123,0
DA:126,0
DA:127,0
DA:128,0
DA:129,0
DA:130,0
DA:131,0
DA:132,0
DA:134,0
DA:137,0
DA:138,0
DA:140,0
DA:142,0
DA:143,0
DA:144,0
DA:145,0
DA:146,0
DA:147,0
DA:148,0
DA:151,0
DA:152,0
DA:153,0
DA:154,0
DA:155,0
DA:156,0
DA:158,0
DA:159,0
DA:160,0
DA:161,0
DA:162,0
DA:163,0
DA:168,0
DA:169,0
DA:170,0
DA:173,0
DA:174,0
DA:175,0
DA:176,0
DA:177,0
DA:178,0
DA:180,0
DA:182,0
DA:183,0
DA:184,0
DA:185,0
DA:186,0
DA:187,0
DA:188,0
DA:191,0
DA:192,0
DA:193,0
DA:194,0
DA:195,0
DA:198,0
DA:199,0
DA:200,0
DA:201,0
DA:202,0
DA:203,0
DA:205,0
DA:206,0
DA:207,0
DA:208,0
DA:209,0
DA:210,0
DA:211,0
DA:212,0
DA:213,0
DA:217,0
DA:218,0
DA:221,0
DA:222,0
DA:223,0
DA:245,4
DA:248,4
DA:249,4
DA:258,1
DA:259,1
DA:260,1
DA:261,1
DA:262,1
DA:263,1
DA:264,1
DA:265,1
DA:266,1
DA:268,1
DA:270,1
DA:271,1
DA:272,1
DA:273,1
DA:274,1
DA:275,1
DA:276,1
DA:277,1
DA:279,1
DA:282,1
DA:283,1
DA:284,1
DA:285,1
DA:286,1
DA:287,1
DA:288,1
DA:289,1
DA:290,1
DA:292,1
DA:293,1
DA:294,1
DA:295,1
DA:296,1
DA:297,1
DA:298,1
DA:299,1
DA:300,1
DA:301,1
DA:304,1
DA:305,1
DA:306,1
DA:307,1
DA:310,1
DA:311,1
DA:312,1
DA:314,1
DA:315,1
DA:317,1
DA:318,1
DA:320,1
DA:321,1
DA:322,1
DA:323,1
DA:324,1
DA:325,1
DA:328,1
DA:329,1
DA:330,1
DA:331,1
DA:332,1
DA:333,1
DA:334,1
DA:335,1
DA:336,1
DA:337,1
DA:339,1
DA:340,1
DA:341,1
DA:342,1
DA:343,1
DA:346,1
DA:347,1
DA:348,1
DA:349,1
DA:350,1
DA:351,1
DA:352,1
DA:353,1
DA:356,1
DA:357,1
DA:358,1
DA:359,1
DA:360,1
DA:361,1
DA:362,1
DA:363,1
DA:364,1
DA:365,1
DA:367,1
DA:368,1
DA:369,1
DA:370,1
DA:371,1
DA:374,1
DA:375,1
DA:376,1
DA:377,1
DA:378,1
DA:381,1
DA:382,1
DA:384,1
DA:385,1
DA:386,1
DA:387,1
DA:388,1
DA:389,1
DA:390,1
DA:391,1
DA:392,1
DA:395,1
DA:397,1
DA:398,1
DA:399,1
DA:400,1
DA:403,1
DA:404,1
DA:406,1
DA:407,1
DA:408,1
DA:411,1
DA:412,1
DA:413,1
DA:414,1
DA:415,1
DA:416,1
DA:417,1
DA:418,1
DA:419,1
DA:421,1
DA:422,1
DA:423,1
DA:424,1
DA:425,1
DA:428,1
DA:429,1
DA:430,1
DA:431,1
DA:432,1
DA:433,1
DA:434,1
DA:435,1
DA:436,1
DA:438,1
DA:439,1
DA:440,1
DA:441,1
DA:442,1
DA:443,1
DA:444,1
DA:445,1
BRF:0
BRH:0
LF:319
LH:192
end_of_record
SF:/home/nathan/Projects/smith/shared/smith-bus/src/consumer_tests.rs
FN:23,_RNvMNtNtCs7756PgZboGe_9smith_bus14consumer_tests5testsNtB2_11TestMessage3new
FN:239,_RINvNvNtNtCs7756PgZboGe_9smith_bus14consumer_tests5testss_22test_message_structure18check_message_typeINtNtCs8Ty2CzGA6U3_5alloc3vec3VechEEB8_
FN:239,_RINvNvNtNtCs7756PgZboGe_9smith_bus14consumer_tests5testss_22test_message_structure18check_message_typeNtB4_11TestMessageEB8_
FN:239,_RINvNvNtNtCs7756PgZboGe_9smith_bus14consumer_tests5testss_22test_message_structure18check_message_typeNtNtCs1nD62ErW5hY_10serde_json5value5ValueEB8_
FN:239,_RINvNvNtNtCs7756PgZboGe_9smith_bus14consumer_tests5testss_22test_message_structure18check_message_typeNtNtCs8Ty2CzGA6U3_5alloc6string6StringEB8_
FN:281,_RNvNtNtCs7756PgZboGe_9smith_bus14consumer_tests5testss_18test_time_handling
FN:234,_RNvNtNtCs7756PgZboGe_9smith_bus14consumer_tests5testss_22test_message_structure
FN:300,_RNvNtNtCs7756PgZboGe_9smith_bus14consumer_tests5testss_24test_duration_arithmetic
FN:105,_RNvNtNtCs7756PgZboGe_9smith_bus14consumer_tests5testss_26test_backoff_config_custom
FN:93,_RNvNtNtCs7756PgZboGe_9smith_bus14consumer_tests5testss_27test_backoff_config_default
FN:48,_RNvNtNtCs7756PgZboGe_9smith_bus14consumer_tests5testss_27test_consumer_config_custom
FN:154,_RNvNtNtCs7756PgZboGe_9smith_bus14consumer_tests5testss_28test_consumer_config_cloning
FN:33,_RNvNtNtCs7756PgZboGe_9smith_bus14consumer_tests5testss_28test_consumer_config_default
FN:123,_RNvNtNtCs7756PgZboGe_9smith_bus14consumer_tests5testss_30test_backoff_config_edge_cases
FN:250,_RNvNtNtCs7756PgZboGe_9smith_bus14consumer_tests5testss_31test_capability_string_patterns
FN:365,_RNvNtNtCs7756PgZboGe_9smith_bus14consumer_tests5testss_34test_consumer_config_serialization
FN:201,_RNvNtNtCs7756PgZboGe_9smith_bus14consumer_tests5testss_36test_consumer_config_optional_fields
FN:178,_RNvNtNtCs7756PgZboGe_9smith_bus14consumer_tests5testss_37test_consumer_config_debug_formatting
FN:70,_RNvNtNtCs7756PgZboGe_9smith_bus14consumer_tests5testss_37test_consumer_start_sequence_variants
FN:325,_RNvNtNtCs7756PgZboGe_9smith_bus14consumer_tests5testss_38test_configuration_validation_patterns
FNDA:0,_RNvMNtNtCs7756PgZboGe_9smith_bus14consumer_tests5testsNtB2_11TestMessage3new
FNDA:1,_RINvNvNtNtCs7756PgZboGe_9smith_bus14consumer_tests5testss_22test_message_structure18check_message_typeINtNtCs8Ty2CzGA6U3_5alloc3vec3VechEEB8_
FNDA:1,_RINvNvNtNtCs7756PgZboGe_9smith_bus14consumer_tests5testss_22test_message_structure18check_message_typeNtB4_11TestMessageEB8_
FNDA:1,_RINvNvNtNtCs7756PgZboGe_9smith_bus14consumer_tests5testss_22test_message_structure18check_message_typeNtNtCs1nD62ErW5hY_10serde_json5value5ValueEB8_
FNDA:1,_RINvNvNtNtCs7756PgZboGe_9smith_bus14consumer_tests5testss_22test_message_structure18check_message_typeNtNtCs8Ty2CzGA6U3_5alloc6string6StringEB8_
FNDA:1,_RNvNtNtCs7756PgZboGe_9smith_bus14consumer_tests5testss_18test_time_handling
FNDA:1,_RNvNtNtCs7756PgZboGe_9smith_bus14consumer_tests5testss_22test_message_structure
FNDA:1,_RNvNtNtCs7756PgZboGe_9smith_bus14consumer_tests5testss_24test_duration_arithmetic
FNDA:1,_RNvNtNtCs7756PgZboGe_9smith_bus14consumer_tests5testss_26test_backoff_config_custom
FNDA:1,_RNvNtNtCs7756PgZboGe_9smith_bus14consumer_tests5testss_27test_backoff_config_default
FNDA:1,_RNvNtNtCs7756PgZboGe_9smith_bus14consumer_tests5testss_27test_consumer_config_custom
FNDA:1,_RNvNtNtCs7756PgZboGe_9smith_bus14consumer_tests5testss_28test_consumer_config_cloning
FNDA:1,_RNvNtNtCs7756PgZboGe_9smith_bus14consumer_tests5testss_28test_consumer_config_default
FNDA:1,_RNvNtNtCs7756PgZboGe_9smith_bus14consumer_tests5testss_30test_backoff_config_edge_cases
FNDA:1,_RNvNtNtCs7756PgZboGe_9smith_bus14consumer_tests5testss_31test_capability_string_patterns
FNDA:1,_RNvNtNtCs7756PgZboGe_9smith_bus14consumer_tests5testss_34test_consumer_config_serialization
FNDA:1,_RNvNtNtCs7756PgZboGe_9smith_bus14consumer_tests5testss_36test_consumer_config_optional_fields
FNDA:1,_RNvNtNtCs7756PgZboGe_9smith_bus14consumer_tests5testss_37test_consumer_config_debug_formatting
FNDA:1,_RNvNtNtCs7756PgZboGe_9smith_bus14consumer_tests5testss_37test_consumer_start_sequence_variants
FNDA:1,_RNvNtNtCs7756PgZboGe_9smith_bus14consumer_tests5testss_38test_configuration_validation_patterns
FNF:17
FNH:16
DA:23,0
DA:24,0
DA:25,0
DA:26,0
DA:27,0
DA:28,0
DA:29,0
DA:33,1
DA:34,1
DA:37,1
DA:38,1
DA:39,1
DA:40,1
DA:41,1
DA:42,1
DA:43,1
DA:44,1
DA:45,1
DA:48,1
DA:49,1
DA:50,1
DA:51,1
DA:52,1
DA:53,1
DA:54,1
DA:55,1
DA:56,1
DA:57,1
DA:60,1
DA:61,1
DA:62,1
DA:63,1
DA:64,1
DA:65,1
DA:66,1
DA:67,1
DA:70,1
DA:72,1
DA:73,1
DA:74,1
DA:75,1
DA:78,1
DA:79,1
DA:81,1
DA:82,1
DA:83,0
DA:86,1
DA:87,1
DA:88,0
DA:90,1
DA:93,1
DA:94,1
DA:97,1
DA:98,1
DA:99,1
DA:100,1
DA:101,1
DA:102,1
DA:105,1
DA:106,1
DA:107,1
DA:108,1
DA:109,1
DA:110,1
DA:111,1
DA:112,1
DA:115,1
DA:116,1
DA:117,1
DA:118,1
DA:119,1
DA:120,1
DA:123,1
DA:125,1
DA:126,1
DA:127,1
DA:128,1
DA:129,1
DA:130,1
DA:131,1
DA:132,1
DA:133,1
DA:134,1
DA:135,1
DA:136,1
DA:139,1
DA:140,1
DA:141,1
DA:142,1
DA:143,1
DA:144,1
DA:145,1
DA:146,1
DA:147,1
DA:148,1
DA:149,1
DA:150,1
DA:151,1
DA:154,1
DA:155,1
DA:156,1
DA:157,1
DA:158,1
DA:159,1
DA:160,1
DA:161,1
DA:162,1
DA:163,1
DA:165,1
DA:168,1
DA:169,1
DA:170,1
DA:171,1
DA:172,1
DA:173,1
DA:174,1
DA:175,1
DA:178,1
DA:179,1
DA:180,1
DA:181,1
DA:182,1
DA:183,1
DA:184,1
DA:185,1
DA:186,1
DA:187,1
DA:189,1
DA:192,1
DA:193,1
DA:194,1
DA:195,1
DA:196,1
DA:197,1
DA:198,1
DA:201,1
DA:203,1
DA:204,1
DA:205,1
DA:206,1
DA:207,1
DA:208,1
DA:209,1
DA:210,1
DA:211,1
DA:213,1
DA:214,1
DA:217,1
DA:218,1
DA:219,1
DA:220,1
DA:221,1
DA:222,1
DA:223,1
DA:224,1
DA:225,1
DA:227,1
DA:228,1
DA:229,1
DA:230,1
DA:231,1
DA:234,1
DA:239,4
DA:241,4
DA:243,1
DA:244,1
DA:245,1
DA:246,1
DA:247,1
DA:250,1
DA:252,1
DA:254,1
DA:255,1
DA:256,1
DA:257,1
DA:258,1
DA:259,1
DA:260,1
DA:261,1
DA:264,10
DA:266,9
DA:267,9
DA:268,9
DA:271,9
DA:272,9
DA:275,9
DA:276,9
DA:278,1
DA:281,1
DA:283,1
DA:284,1
DA:285,1
DA:288,1
DA:289,1
DA:290,1
DA:293,1
DA:294,1
DA:295,1
DA:296,1
DA:297,1
DA:300,1
DA:302,1
DA:303,1
DA:304,1
DA:307,1
DA:308,1
DA:309,1
DA:312,1
DA:315,1
DA:316,1
DA:319,1
DA:320,1
DA:321,1
DA:322,1
DA:325,1
DA:329,1
DA:330,1
DA:331,1
DA:332,1
DA:333,1
DA:334,1
DA:335,1
DA:336,1
DA:337,1
DA:340,1
DA:341,1
DA:342,1
DA:343,1
DA:344,1
DA:345,1
DA:348,1
DA:349,1
DA:350,1
DA:351,1
DA:352,1
DA:353,1
DA:354,1
DA:355,1
DA:356,1
DA:359,1
DA:360,1
DA:361,1
DA:362,1
DA:365,1
DA:369,1
DA:370,1
DA:371,1
DA:372,1
DA:373,1
DA:374,1
DA:375,1
DA:376,1
DA:377,1
DA:382,1
DA:383,1
DA:384,1
DA:385,1
DA:388,1
DA:389,1
DA:390,1
DA:391,1
DA:392,1
BRF:0
BRH:0
LF:262
LH:253
end_of_record
SF:/home/nathan/Projects/smith/shared/smith-bus/src/lag_monitor.rs
FN:171,_RNCNCNvMNtCs7756PgZboGe_9smith_bus11lag_monitorNtB6_10LagMonitor22check_stream_consumers00B8_
FN:423,_RNCNvMNtCs7756PgZboGe_9smith_bus11lag_monitorNtB4_10LagMonitor13get_lag_stats0B6_
FN:439,_RNCNvMNtCs7756PgZboGe_9smith_bus11lag_monitorNtB4_10LagMonitor13get_total_lag0B6_
FN:413,_RNCNvMNtCs7756PgZboGe_9smith_bus11lag_monitorNtB4_10LagMonitor14send_ops_alert0B6_
FN:403,_RNCNvMNtCs7756PgZboGe_9smith_bus11lag_monitorNtB4_10LagMonitor15extend_ack_wait0B6_
FN:108,_RNCNvMNtCs7756PgZboGe_9smith_bus11lag_monitorNtB4_10LagMonitor16start_monitoring0B6_
FN:393,_RNCNvMNtCs7756PgZboGe_9smith_bus11lag_monitorNtB4_10LagMonitor17reduce_batch_size0B6_
FN:287,_RNCNvMNtCs7756PgZboGe_9smith_bus11lag_monitorNtB4_10LagMonitor18apply_backpressure0B6_
FN:198,_RNCNvMNtCs7756PgZboGe_9smith_bus11lag_monitorNtB4_10LagMonitor18check_consumer_lag0B6_
FN:235,_RNCNvMNtCs7756PgZboGe_9smith_bus11lag_monitorNtB4_10LagMonitor19calculate_lag_stats0B6_
FN:126,_RNCNvMNtCs7756PgZboGe_9smith_bus11lag_monitorNtB4_10LagMonitor19check_all_consumers0B6_
FN:355,_RNCNvMNtCs7756PgZboGe_9smith_bus11lag_monitorNtB4_10LagMonitor19remove_backpressure0B6_
FN:383,_RNCNvMNtCs7756PgZboGe_9smith_bus11lag_monitorNtB4_10LagMonitor19route_to_quarantine0B6_
FN:274,_RNCNvMNtCs7756PgZboGe_9smith_bus11lag_monitorNtB4_10LagMonitor20calculate_throughput0B6_
FN:156,_RNCNvMNtCs7756PgZboGe_9smith_bus11lag_monitorNtB4_10LagMonitor22check_stream_consumers0B6_
FN:428,_RNCNvMNtCs7756PgZboGe_9smith_bus11lag_monitorNtB4_10LagMonitor22get_consumer_lag_stats0B6_
FN:143,_RNCNvMNtCs7756PgZboGe_9smith_bus11lag_monitorNtB4_10LagMonitor22get_smith_stream_names0B6_
FN:433,_RNCNvMNtCs7756PgZboGe_9smith_bus11lag_monitorNtB4_10LagMonitor23has_active_backpressure0B6_
FN:102,_RNvMNtCs7756PgZboGe_9smith_bus11lag_monitorNtB2_10LagMonitor11with_alerts
FN:423,_RNvMNtCs7756PgZboGe_9smith_bus11lag_monitorNtB2_10LagMonitor13get_lag_stats
FN:439,_RNvMNtCs7756PgZboGe_9smith_bus11lag_monitorNtB2_10LagMonitor13get_total_lag
FN:413,_RNvMNtCs7756PgZboGe_9smith_bus11lag_monitorNtB2_10LagMonitor14send_ops_alert
FN:403,_RNvMNtCs7756PgZboGe_9smith_bus11lag_monitorNtB2_10LagMonitor15extend_ack_wait
FN:108,_RNvMNtCs7756PgZboGe_9smith_bus11lag_monitorNtB2_10LagMonitor16start_monitoring
FN:393,_RNvMNtCs7756PgZboGe_9smith_bus11lag_monitorNtB2_10LagMonitor17reduce_batch_size
FN:287,_RNvMNtCs7756PgZboGe_9smith_bus11lag_monitorNtB2_10LagMonitor18apply_backpressure
FN:193,_RNvMNtCs7756PgZboGe_9smith_bus11lag_monitorNtB2_10LagMonitor18check_consumer_lag
FN:230,_RNvMNtCs7756PgZboGe_9smith_bus11lag_monitorNtB2_10LagMonitor19calculate_lag_stats
FN:126,_RNvMNtCs7756PgZboGe_9smith_bus11lag_monitorNtB2_10LagMonitor19check_all_consumers
FN:355,_RNvMNtCs7756PgZboGe_9smith_bus11lag_monitorNtB2_10LagMonitor19remove_backpressure
FN:383,_RNvMNtCs7756PgZboGe_9smith_bus11lag_monitorNtB2_10LagMonitor19route_to_quarantine
FN:274,_RNvMNtCs7756PgZboGe_9smith_bus11lag_monitorNtB2_10LagMonitor20calculate_throughput
FN:156,_RNvMNtCs7756PgZboGe_9smith_bus11lag_monitorNtB2_10LagMonitor22check_stream_consumers
FN:428,_RNvMNtCs7756PgZboGe_9smith_bus11lag_monitorNtB2_10LagMonitor22get_consumer_lag_stats
FN:143,_RNvMNtCs7756PgZboGe_9smith_bus11lag_monitorNtB2_10LagMonitor22get_smith_stream_names
FN:433,_RNvMNtCs7756PgZboGe_9smith_bus11lag_monitorNtB2_10LagMonitor23has_active_backpressure
FN:89,_RNvMNtCs7756PgZboGe_9smith_bus11lag_monitorNtB2_10LagMonitor24with_backpressure_config
FN:79,_RNvMNtCs7756PgZboGe_9smith_bus11lag_monitorNtB2_10LagMonitor3new
FN:462,_RNvMs_NtCs7756PgZboGe_9smith_bus11lag_monitorNtB4_24BackpressureAlertHandler12handle_alert
FN:456,_RNvMs_NtCs7756PgZboGe_9smith_bus11lag_monitorNtB4_24BackpressureAlertHandler14start_handling
FN:451,_RNvMs_NtCs7756PgZboGe_9smith_bus11lag_monitorNtB4_24BackpressureAlertHandler3new
FN:524,_RNvNtNtCs7756PgZboGe_9smith_bus11lag_monitor5testss_32test_backpressure_alert_creation
FN:506,_RNvNtNtCs7756PgZboGe_9smith_bus11lag_monitor5testss_32test_consumer_lag_stats_creation
FN:462,_RNCNvMs_NtCs7756PgZboGe_9smith_bus11lag_monitorNtB6_24BackpressureAlertHandler12handle_alert0B8_
FN:456,_RNCNvMs_NtCs7756PgZboGe_9smith_bus11lag_monitorNtB6_24BackpressureAlertHandler14start_handling0B8_
FNDA:0,_RNCNCNvMNtCs7756PgZboGe_9smith_bus11lag_monitorNtB6_10LagMonitor22check_stream_consumers00B8_
FNDA:0,_RNCNvMNtCs7756PgZboGe_9smith_bus11lag_monitorNtB4_10LagMonitor13get_lag_stats0B6_
FNDA:0,_RNCNvMNtCs7756PgZboGe_9smith_bus11lag_monitorNtB4_10LagMonitor13get_total_lag0B6_
FNDA:0,_RNCNvMNtCs7756PgZboGe_9smith_bus11lag_monitorNtB4_10LagMonitor14send_ops_alert0B6_
FNDA:0,_RNCNvMNtCs7756PgZboGe_9smith_bus11lag_monitorNtB4_10LagMonitor15extend_ack_wait0B6_
FNDA:0,_RNCNvMNtCs7756PgZboGe_9smith_bus11lag_monitorNtB4_10LagMonitor16start_monitoring0B6_
FNDA:0,_RNCNvMNtCs7756PgZboGe_9smith_bus11lag_monitorNtB4_10LagMonitor17reduce_batch_size0B6_
FNDA:0,_RNCNvMNtCs7756PgZboGe_9smith_bus11lag_monitorNtB4_10LagMonitor18apply_backpressure0B6_
FNDA:0,_RNCNvMNtCs7756PgZboGe_9smith_bus11lag_monitorNtB4_10LagMonitor18check_consumer_lag0B6_
FNDA:0,_RNCNvMNtCs7756PgZboGe_9smith_bus11lag_monitorNtB4_10LagMonitor19calculate_lag_stats0B6_
FNDA:0,_RNCNvMNtCs7756PgZboGe_9smith_bus11lag_monitorNtB4_10LagMonitor19check_all_consumers0B6_
FNDA:0,_RNCNvMNtCs7756PgZboGe_9smith_bus11lag_monitorNtB4_10LagMonitor19remove_backpressure0B6_
FNDA:0,_RNCNvMNtCs7756PgZboGe_9smith_bus11lag_monitorNtB4_10LagMonitor19route_to_quarantine0B6_
FNDA:0,_RNCNvMNtCs7756PgZboGe_9smith_bus11lag_monitorNtB4_10LagMonitor20calculate_throughput0B6_
FNDA:0,_RNCNvMNtCs7756PgZboGe_9smith_bus11lag_monitorNtB4_10LagMonitor22check_stream_consumers0B6_
FNDA:0,_RNCNvMNtCs7756PgZboGe_9smith_bus11lag_monitorNtB4_10LagMonitor22get_consumer_lag_stats0B6_
FNDA:0,_RNCNvMNtCs7756PgZboGe_9smith_bus11lag_monitorNtB4_10LagMonitor22get_smith_stream_names0B6_
FNDA:0,_RNCNvMNtCs7756PgZboGe_9smith_bus11lag_monitorNtB4_10LagMonitor23has_active_backpressure0B6_
FNDA:0,_RNvMNtCs7756PgZboGe_9smith_bus11lag_monitorNtB2_10LagMonitor11with_alerts
FNDA:0,_RNvMNtCs7756PgZboGe_9smith_bus11lag_monitorNtB2_10LagMonitor13get_lag_stats
FNDA:0,_RNvMNtCs7756PgZboGe_9smith_bus11lag_monitorNtB2_10LagMonitor13get_total_lag
FNDA:0,_RNvMNtCs7756PgZboGe_9smith_bus11lag_monitorNtB2_10LagMonitor14send_ops_alert
FNDA:0,_RNvMNtCs7756PgZboGe_9smith_bus11lag_monitorNtB2_10LagMonitor15extend_ack_wait
FNDA:0,_RNvMNtCs7756PgZboGe_9smith_bus11lag_monitorNtB2_10LagMonitor16start_monitoring
FNDA:0,_RNvMNtCs7756PgZboGe_9smith_bus11lag_monitorNtB2_10LagMonitor17reduce_batch_size
FNDA:0,_RNvMNtCs7756PgZboGe_9smith_bus11lag_monitorNtB2_10LagMonitor18apply_backpressure
FNDA:0,_RNvMNtCs7756PgZboGe_9smith_bus11lag_monitorNtB2_10LagMonitor18check_consumer_lag
FNDA:0,_RNvMNtCs7756PgZboGe_9smith_bus11lag_monitorNtB2_10LagMonitor19calculate_lag_stats
FNDA:0,_RNvMNtCs7756PgZboGe_9smith_bus11lag_monitorNtB2_10LagMonitor19check_all_consumers
FNDA:0,_RNvMNtCs7756PgZboGe_9smith_bus11lag_monitorNtB2_10LagMonitor19remove_backpressure
FNDA:0,_RNvMNtCs7756PgZboGe_9smith_bus11lag_monitorNtB2_10LagMonitor19route_to_quarantine
FNDA:0,_RNvMNtCs7756PgZboGe_9smith_bus11lag_monitorNtB2_10LagMonitor20calculate_throughput
FNDA:0,_RNvMNtCs7756PgZboGe_9smith_bus11lag_monitorNtB2_10LagMonitor22check_stream_consumers
FNDA:0,_RNvMNtCs7756PgZboGe_9smith_bus11lag_monitorNtB2_10LagMonitor22get_consumer_lag_stats
FNDA:0,_RNvMNtCs7756PgZboGe_9smith_bus11lag_monitorNtB2_10LagMonitor22get_smith_stream_names
FNDA:0,_RNvMNtCs7756PgZboGe_9smith_bus11lag_monitorNtB2_10LagMonitor23has_active_backpressure
FNDA:0,_RNvMNtCs7756PgZboGe_9smith_bus11lag_monitorNtB2_10LagMonitor24with_backpressure_config
FNDA:0,_RNvMNtCs7756PgZboGe_9smith_bus11lag_monitorNtB2_10LagMonitor3new
FNDA:2,_RNvMs_NtCs7756PgZboGe_9smith_bus11lag_monitorNtB4_24BackpressureAlertHandler12handle_alert
FNDA:1,_RNvMs_NtCs7756PgZboGe_9smith_bus11lag_monitorNtB4_24BackpressureAlertHandler14start_handling
FNDA:1,_RNvMs_NtCs7756PgZboGe_9smith_bus11lag_monitorNtB4_24BackpressureAlertHandler3new
FNDA:1,_RNvNtNtCs7756PgZboGe_9smith_bus11lag_monitor5testss_32test_backpressure_alert_creation
FNDA:1,_RNvNtNtCs7756PgZboGe_9smith_bus11lag_monitor5testss_32test_consumer_lag_stats_creation
FNDA:2,_RNCNvMs_NtCs7756PgZboGe_9smith_bus11lag_monitorNtB6_24BackpressureAlertHandler12handle_alert0B8_
FNDA:1,_RNCNvMs_NtCs7756PgZboGe_9smith_bus11lag_monitorNtB6_24BackpressureAlertHandler14start_handling0B8_
FNF:45
FNH:7
DA:79,0
DA:80,0
DA:81,0
DA:82,0
DA:83,0
DA:84,0
DA:85,0
DA:86,0
DA:89,0
DA:90,0
DA:91,0
DA:92,0
DA:93,0
DA:94,0
DA:95,0
DA:96,0
DA:97,0
DA:98,0
DA:99,0
DA:102,0
DA:103,0
DA:104,0
DA:105,0
DA:108,0
DA:109,0
DA:111,0
DA:112,0
DA:117,0
DA:119,0
DA:120,0
DA:121,0
DA:126,0
DA:127,0
DA:129,0
DA:130,0
DA:131,0
DA:132,0
DA:135,0
DA:136,0
DA:139,0
DA:140,0
DA:143,0
DA:144,0
DA:145,0
DA:146,0
DA:147,0
DA:148,0
DA:149,0
DA:152,0
DA:153,0
DA:156,0
DA:157,0
DA:158,0
DA:159,0
DA:160,0
DA:161,0
DA:163,0
DA:166,0
DA:167,0
DA:168,0
DA:169,0
DA:170,0
DA:171,0
DA:172,0
DA:174,0
DA:175,0
DA:176,0
DA:177,0
DA:178,0
DA:180,0
DA:181,0
DA:182,0
DA:184,0
DA:185,0
DA:186,0
DA:189,0
DA:190,0
DA:193,0
DA:194,0
DA:195,0
DA:196,0
DA:197,0
DA:198,0
DA:199,0
DA:200,0
DA:201,0
DA:202,0
DA:204,0
DA:205,0
DA:206,0
DA:209,0
DA:210,0
DA:211,0
DA:214,0
DA:215,0
DA:216,0
DA:217,0
DA:218,0
DA:222,0
DA:223,0
DA:226,0
DA:227,0
DA:230,0
DA:231,0
DA:232,0
DA:233,0
DA:234,0
DA:235,0
DA:237,0
DA:240,0
DA:243,0
DA:244,0
DA:245,0
DA:246,0
DA:249,0
DA:250,0
DA:253,0
DA:254,0
DA:255,0
DA:256,0
DA:257,0
DA:258,0
DA:261,0
DA:262,0
DA:263,0
DA:264,0
DA:265,0
DA:266,0
DA:267,0
DA:268,0
DA:269,0
DA:270,0
DA:271,0
DA:274,0
DA:275,0
DA:276,0
DA:277,0
DA:278,0
DA:280,0
DA:281,0
DA:282,0
DA:283,0
DA:284,0
DA:287,0
DA:288,0
DA:289,0
DA:290,0
DA:292,0
DA:294,0
DA:295,0
DA:298,0
DA:299,0
DA:301,0
DA:303,0
DA:304,0
DA:305,0
DA:307,0
DA:309,0
DA:310,0
DA:311,0
DA:313,0
DA:315,0
DA:316,0
DA:317,0
DA:323,0
DA:324,0
DA:325,0
DA:326,0
DA:327,0
DA:328,0
DA:330,0
DA:332,0
DA:333,0
DA:334,0
DA:335,0
DA:338,0
DA:339,0
DA:340,0
DA:341,0
DA:343,0
DA:348,0
DA:351,0
DA:352,0
DA:355,0
DA:356,0
DA:359,0
DA:363,0
DA:364,0
DA:365,0
DA:366,0
DA:367,0
DA:368,0
DA:369,0
DA:370,0
DA:371,0
DA:372,0
DA:374,0
DA:375,0
DA:376,0
DA:377,0
DA:379,0
DA:380,0
DA:383,0
DA:385,0
DA:386,0
DA:389,0
DA:390,0
DA:393,0
DA:395,0
DA:396,0
DA:399,0
DA:400,0
DA:403,0
DA:405,0
DA:406,0
DA:409,0
DA:410,0
DA:413,0
DA:414,0
DA:417,0
DA:419,0
DA:420,0
DA:423,0
DA:424,0
DA:425,0
DA:428,0
DA:429,0
DA:430,0
DA:433,0
DA:434,0
DA:435,0
DA:436,0
DA:439,0
DA:440,0
DA:441,0
DA:442,0
DA:451,1
DA:452,1
DA:453,1
DA:456,1
DA:457,3
DA:458,2
DA:460,1
DA:462,2
DA:463,2
DA:465,1
DA:469,0
DA:474,0
DA:478,0
DA:483,0
DA:486,0
DA:490,1
DA:493,0
DA:497,2
DA:506,1
DA:507,1
DA:508,1
DA:509,1
DA:510,1
DA:511,1
DA:512,1
DA:513,1
DA:514,1
DA:515,1
DA:516,1
DA:518,1
DA:519,1
DA:520,1
DA:521,1
DA:524,1
DA:525,1
DA:526,1
DA:527,1
DA:528,1
DA:529,1
DA:530,1
DA:531,1
DA:532,1
DA:533,1
DA:535,1
DA:536,1
DA:537,1
DA:538,1
BRF:0
BRH:0
LF:303
LH:43
end_of_record
SF:/home/nathan/Projects/smith/shared/smith-bus/src/lag_monitor_tests.rs
FN:18,_RNvNtNtCs7756PgZboGe_9smith_bus17lag_monitor_tests5tests21create_mock_lag_stats
FN:38,_RNvNtNtCs7756PgZboGe_9smith_bus17lag_monitor_tests5tests32create_mock_backpressure_manager
FN:369,_RNvNtNtCs7756PgZboGe_9smith_bus17lag_monitor_tests5testss_21test_error_conditions
FN:243,_RNvNtNtCs7756PgZboGe_9smith_bus17lag_monitor_tests5testss_23test_smith_stream_names
FN:331,_RNvNtNtCs7756PgZboGe_9smith_bus17lag_monitor_tests5testss_23test_timestamp_ordering
FN:300,_RNvNtNtCs7756PgZboGe_9smith_bus17lag_monitor_tests5testss_28test_utilization_calculation
FN:123,_RNvNtNtCs7756PgZboGe_9smith_bus17lag_monitor_tests5testss_29test_backpressure_alert_types
FN:180,_RNvNtNtCs7756PgZboGe_9smith_bus17lag_monitor_tests5testss_31test_backpressure_alert_handler
FN:263,_RNvNtNtCs7756PgZboGe_9smith_bus17lag_monitor_tests5testss_34test_consumer_lag_stats_edge_cases
FN:97,_RNvNtNtCs7756PgZboGe_9smith_bus17lag_monitor_tests5testss_37test_backpressure_alert_comprehensive
FN:158,_RNvNtNtCs7756PgZboGe_9smith_bus17lag_monitor_tests5testss_37test_backpressure_alert_serialization
FN:218,_RNvNtNtCs7756PgZboGe_9smith_bus17lag_monitor_tests5testss_37test_backpressure_manager_integration
FN:79,_RNvNtNtCs7756PgZboGe_9smith_bus17lag_monitor_tests5testss_37test_consumer_lag_stats_serialization
FN:395,_RNvNtNtCs7756PgZboGe_9smith_bus17lag_monitor_tests5testss_39test_backpressure_actions_comprehensive
FN:52,_RNvNtNtCs7756PgZboGe_9smith_bus17lag_monitor_tests5testss_46test_consumer_lag_stats_creation_comprehensive
FN:256,_RNCNvNtNtCs7756PgZboGe_9smith_bus17lag_monitor_tests5testss_23test_smith_stream_names0B7_
FN:180,_RNCNvNtNtCs7756PgZboGe_9smith_bus17lag_monitor_tests5testss_31test_backpressure_alert_handler0B7_
FNDA:1,_RNvNtNtCs7756PgZboGe_9smith_bus17lag_monitor_tests5tests21create_mock_lag_stats
FNDA:1,_RNvNtNtCs7756PgZboGe_9smith_bus17lag_monitor_tests5tests32create_mock_backpressure_manager
FNDA:1,_RNvNtNtCs7756PgZboGe_9smith_bus17lag_monitor_tests5testss_21test_error_conditions
FNDA:1,_RNvNtNtCs7756PgZboGe_9smith_bus17lag_monitor_tests5testss_23test_smith_stream_names
FNDA:1,_RNvNtNtCs7756PgZboGe_9smith_bus17lag_monitor_tests5testss_23test_timestamp_ordering
FNDA:1,_RNvNtNtCs7756PgZboGe_9smith_bus17lag_monitor_tests5testss_28test_utilization_calculation
FNDA:1,_RNvNtNtCs7756PgZboGe_9smith_bus17lag_monitor_tests5testss_29test_backpressure_alert_types
FNDA:1,_RNvNtNtCs7756PgZboGe_9smith_bus17lag_monitor_tests5testss_31test_backpressure_alert_handler
FNDA:1,_RNvNtNtCs7756PgZboGe_9smith_bus17lag_monitor_tests5testss_34test_consumer_lag_stats_edge_cases
FNDA:1,_RNvNtNtCs7756PgZboGe_9smith_bus17lag_monitor_tests5testss_37test_backpressure_alert_comprehensive
FNDA:1,_RNvNtNtCs7756PgZboGe_9smith_bus17lag_monitor_tests5testss_37test_backpressure_alert_serialization
FNDA:1,_RNvNtNtCs7756PgZboGe_9smith_bus17lag_monitor_tests5testss_37test_backpressure_manager_integration
FNDA:1,_RNvNtNtCs7756PgZboGe_9smith_bus17lag_monitor_tests5testss_37test_consumer_lag_stats_serialization
FNDA:1,_RNvNtNtCs7756PgZboGe_9smith_bus17lag_monitor_tests5testss_39test_backpressure_actions_comprehensive
FNDA:1,_RNvNtNtCs7756PgZboGe_9smith_bus17lag_monitor_tests5testss_46test_consumer_lag_stats_creation_comprehensive
FNDA:75,_RNCNvNtNtCs7756PgZboGe_9smith_bus17lag_monitor_tests5testss_23test_smith_stream_names0B7_
FNDA:1,_RNCNvNtNtCs7756PgZboGe_9smith_bus17lag_monitor_tests5testss_31test_backpressure_alert_handler0B7_
FNF:17
FNH:17
DA:18,1
DA:19,1
DA:20,1
DA:21,1
DA:22,1
DA:23,1
DA:24,1
DA:25,1
DA:26,1
DA:27,1
DA:28,1
DA:29,1
DA:30,1
DA:31,1
DA:32,1
DA:33,1
DA:34,1
DA:35,1
DA:38,1
DA:39,1
DA:40,1
DA:41,1
DA:42,1
DA:43,1
DA:44,1
DA:45,1
DA:46,1
DA:47,1
DA:48,1
DA:49,1
DA:52,1
DA:53,1
DA:54,1
DA:55,1
DA:56,1
DA:57,1
DA:58,1
DA:59,1
DA:60,1
DA:61,1
DA:62,1
DA:64,1
DA:65,1
DA:66,1
DA:67,1
DA:68,1
DA:69,1
DA:70,1
DA:73,1
DA:74,1
DA:75,1
DA:76,1
DA:79,1
DA:80,1
DA:83,1
DA:84,1
DA:85,1
DA:86,1
DA:89,1
DA:90,1
DA:91,1
DA:92,1
DA:93,1
DA:94,1
DA:97,1
DA:98,1
DA:99,1
DA:100,1
DA:101,1
DA:102,1
DA:103,1
DA:104,1
DA:105,1
DA:106,1
DA:107,1
DA:108,1
DA:109,1
DA:110,1
DA:111,1
DA:113,1
DA:114,1
DA:115,1
DA:116,1
DA:117,1
DA:118,1
DA:119,1
DA:120,1
DA:123,1
DA:125,1
DA:126,1
DA:127,1
DA:128,1
DA:129,1
DA:130,1
DA:131,1
DA:132,1
DA:133,1
DA:135,1
DA:136,1
DA:137,1
DA:138,1
DA:140,1
DA:141,1
DA:142,1
DA:143,1
DA:145,1
DA:146,1
DA:147,1
DA:148,1
DA:151,1
DA:152,1
DA:153,1
DA:154,1
DA:155,1
DA:158,1
DA:159,1
DA:160,1
DA:161,1
DA:162,1
DA:163,1
DA:164,1
DA:165,1
DA:166,1
DA:167,1
DA:170,1
DA:171,1
DA:172,1
DA:174,1
DA:175,1
DA:176,1
DA:177,1
DA:180,1
DA:181,1
DA:182,1
DA:185,1
DA:186,1
DA:187,1
DA:188,1
DA:189,1
DA:190,1
DA:191,1
DA:192,1
DA:193,1
DA:195,1
DA:196,1
DA:197,1
DA:198,1
DA:199,1
DA:200,1
DA:201,1
DA:202,1
DA:203,1
DA:206,1
DA:207,1
DA:210,1
DA:214,1
DA:215,1
DA:218,1
DA:219,1
DA:222,1
DA:223,1
DA:224,1
DA:227,1
DA:228,1
DA:229,1
DA:232,1
DA:233,1
DA:234,1
DA:237,1
DA:238,1
DA:239,1
DA:240,1
DA:243,1
DA:245,1
DA:247,1
DA:248,1
DA:249,1
DA:250,1
DA:254,6
DA:255,5
DA:256,75
DA:259,1
DA:260,1
DA:263,1
DA:265,1
DA:266,1
DA:267,1
DA:268,1
DA:269,1
DA:270,1
DA:271,1
DA:272,1
DA:273,1
DA:274,1
DA:276,1
DA:277,1
DA:278,1
DA:279,1
DA:282,1
DA:283,1
DA:284,1
DA:285,1
DA:286,1
DA:287,1
DA:288,1
DA:289,1
DA:290,1
DA:291,1
DA:293,1
DA:294,1
DA:295,1
DA:296,1
DA:297,1
DA:300,1
DA:302,1
DA:303,1
DA:304,1
DA:305,1
DA:306,1
DA:307,1
DA:308,1
DA:309,1
DA:310,1
DA:311,1
DA:313,1
DA:315,1
DA:316,1
DA:317,1
DA:318,1
DA:319,1
DA:320,1
DA:321,1
DA:322,1
DA:323,1
DA:324,1
DA:326,1
DA:327,1
DA:328,1
DA:331,1
DA:332,1
DA:335,1
DA:337,1
DA:339,1
DA:340,1
DA:341,1
DA:342,1
DA:343,1
DA:344,1
DA:345,1
DA:346,1
DA:347,1
DA:348,1
DA:350,1
DA:351,1
DA:352,1
DA:353,1
DA:354,1
DA:355,1
DA:356,1
DA:357,1
DA:358,1
DA:359,1
DA:361,1
DA:364,1
DA:365,1
DA:366,1
DA:369,1
DA:371,1
DA:372,1
DA:373,1
DA:374,1
DA:375,1
DA:376,1
DA:377,1
DA:378,1
DA:379,1
DA:380,1
DA:383,1
DA:384,1
DA:387,1
DA:388,1
DA:391,1
DA:392,1
DA:395,1
DA:396,1
DA:397,1
DA:398,1
DA:399,1
DA:400,1
DA:401,1
DA:402,1
DA:403,1
DA:404,1
DA:405,1
DA:408,1
DA:409,1
DA:412,1
DA:413,1
DA:416,1
DA:417,1
DA:419,1
DA:420,1
DA:422,0
DA:425,1
DA:426,1
DA:428,0
DA:430,1
BRF:0
BRH:0
LF:310
LH:308
end_of_record
SF:/home/nathan/Projects/smith/shared/smith-bus/src/lib.rs
FN:282,_RINvMCs7756PgZboGe_9smith_busNtB3_8SmithBus20publish_with_headerspEB3_
FN:277,_RINvMCs7756PgZboGe_9smith_busNtB3_8SmithBus7publishpEB3_
FN:492,_RINvMs2_Cs7756PgZboGe_9smith_busNtB6_9WorkQueue20try_get_next_messagepEB6_
FN:287,_RNCINvMCs7756PgZboGe_9smith_busNtB5_8SmithBus20publish_with_headerspE0B5_
FN:277,_RNCINvMCs7756PgZboGe_9smith_busNtB5_8SmithBus7publishpE0B5_
FN:494,_RNCINvMs2_Cs7756PgZboGe_9smith_busNtB8_9WorkQueue20try_get_next_messagepE0B8_
FN:256,_RNCNCNvMCs7756PgZboGe_9smith_busNtB6_8SmithBus28check_jetstream_availability00B6_
FN:198,_RNCNCNvMCs7756PgZboGe_9smith_busNtB6_8SmithBus7connect00B6_
FN:374,_RNCNCNvMs1_Cs7756PgZboGe_9smith_busINtB9_7MessagepE3ack00B9_
FN:382,_RNCNCNvMs1_Cs7756PgZboGe_9smith_busINtB9_7MessagepE4nack00B9_
FN:390,_RNCNCNvMs1_Cs7756PgZboGe_9smith_busINtB9_7MessagepE4term00B9_
FN:420,_RNCNCNvMs2_Cs7756PgZboGe_9smith_busNtB9_9WorkQueue10pull_batch00B9_
FN:441,_RNCNCNvMs2_Cs7756PgZboGe_9smith_busNtB9_9WorkQueue18attempt_pull_batch00B9_
FN:449,_RNCNCNvMs2_Cs7756PgZboGe_9smith_busNtB9_9WorkQueue18attempt_pull_batch0s_0B9_
FN:486,_RNCNCNvMs2_Cs7756PgZboGe_9smith_busNtB9_9WorkQueue19attempt_pull_single00B9_
FN:468,_RNCNCNvMs2_Cs7756PgZboGe_9smith_busNtB9_9WorkQueue8pull_one00B9_
FN:236,_RNCNvMCs7756PgZboGe_9smith_busNtB4_8SmithBus12health_check0B4_
FN:255,_RNCNvMCs7756PgZboGe_9smith_busNtB4_8SmithBus28check_jetstream_availability0B4_
FN:193,_RNCNvMCs7756PgZboGe_9smith_busNtB4_8SmithBus7connect0B4_
FN:216,_RNCNvMCs7756PgZboGe_9smith_busNtB4_8SmithBus8consumer0B4_
FN:370,_RNCNvMs1_Cs7756PgZboGe_9smith_busINtB7_7MessagepE3ack0B7_
FN:378,_RNCNvMs1_Cs7756PgZboGe_9smith_busINtB7_7MessagepE4nack0B7_
FN:386,_RNCNvMs1_Cs7756PgZboGe_9smith_busINtB7_7MessagepE4term0B7_
FN:417,_RNCNvMs2_Cs7756PgZboGe_9smith_busNtB7_9WorkQueue10pull_batch0B7_
FN:433,_RNCNvMs2_Cs7756PgZboGe_9smith_busNtB7_9WorkQueue18attempt_pull_batch0B7_
FN:481,_RNCNvMs2_Cs7756PgZboGe_9smith_busNtB7_9WorkQueue19attempt_pull_single0B7_
FN:465,_RNCNvMs2_Cs7756PgZboGe_9smith_busNtB7_9WorkQueue8pull_one0B7_
FN:226,_RNvMCs7756PgZboGe_9smith_busNtB2_8SmithBus11nats_client
FN:236,_RNvMCs7756PgZboGe_9smith_busNtB2_8SmithBus12health_check
FN:221,_RNvMCs7756PgZboGe_9smith_busNtB2_8SmithBus14stream_manager
FN:247,_RNvMCs7756PgZboGe_9smith_busNtB2_8SmithBus23check_nats_connectivity
FN:255,_RNvMCs7756PgZboGe_9smith_busNtB2_8SmithBus28check_jetstream_availability
FN:193,_RNvMCs7756PgZboGe_9smith_busNtB2_8SmithBus7connect
FN:216,_RNvMCs7756PgZboGe_9smith_busNtB2_8SmithBus8consumer
FN:231,_RNvMCs7756PgZboGe_9smith_busNtB2_8SmithBus9jetstream
FN:211,_RNvMCs7756PgZboGe_9smith_busNtB2_8SmithBus9publisher
FN:394,_RNvMs1_Cs7756PgZboGe_9smith_busINtB5_7MessagepE13is_redeliveryB5_
FN:370,_RNvMs1_Cs7756PgZboGe_9smith_busINtB5_7MessagepE3ackB5_
FN:378,_RNvMs1_Cs7756PgZboGe_9smith_busINtB5_7MessagepE4nackB5_
FN:386,_RNvMs1_Cs7756PgZboGe_9smith_busINtB5_7MessagepE4termB5_
FN:417,_RNvMs2_Cs7756PgZboGe_9smith_busNtB5_9WorkQueue10pull_batch
FN:456,_RNvMs2_Cs7756PgZboGe_9smith_busNtB5_9WorkQueue16log_batch_result
FN:433,_RNvMs2_Cs7756PgZboGe_9smith_busNtB5_9WorkQueue18attempt_pull_batch
FN:481,_RNvMs2_Cs7756PgZboGe_9smith_busNtB5_9WorkQueue19attempt_pull_single
FN:408,_RNvMs2_Cs7756PgZboGe_9smith_busNtB5_9WorkQueue3new
FN:465,_RNvMs2_Cs7756PgZboGe_9smith_busNtB5_9WorkQueue8pull_one
FN:557,_RNCNvNtCs7756PgZboGe_9smith_bus5testss_18test_health_status0B5_
FN:557,_RNvNtCs7756PgZboGe_9smith_bus5testss_18test_health_status
FN:583,_RNvNtCs7756PgZboGe_9smith_bus5testss_19test_backoff_config
FN:574,_RNvNtCs7756PgZboGe_9smith_bus5testss_29test_consumer_config_defaults
FN:545,_RNvCs7756PgZboGe_9smith_bus23create_backoff_strategy
FN:426,_RNvMs2_Cs7756PgZboGe_9smith_busNtB5_9WorkQueue27create_batch_retry_strategy
FN:474,_RNvMs2_Cs7756PgZboGe_9smith_busNtB5_9WorkQueue28create_single_retry_strategy
FN:305,_RNvMs_Cs7756PgZboGe_9smith_busNtB4_12HealthStatus10is_healthy
FN:330,_RNvXs0_Cs7756PgZboGe_9smith_busNtB5_14ConsumerConfigNtNtCs66KPHxksi63_4core7default7Default7default
FN:533,_RNvXs3_Cs7756PgZboGe_9smith_busNtB5_13BackoffConfigNtNtCs66KPHxksi63_4core7default7Default7default
FNDA:0,_RINvMCs7756PgZboGe_9smith_busNtB3_8SmithBus20publish_with_headerspEB3_
FNDA:0,_RINvMCs7756PgZboGe_9smith_busNtB3_8SmithBus7publishpEB3_
FNDA:0,_RINvMs2_Cs7756PgZboGe_9smith_busNtB6_9WorkQueue20try_get_next_messagepEB6_
FNDA:0,_RNCINvMCs7756PgZboGe_9smith_busNtB5_8SmithBus20publish_with_headerspE0B5_
FNDA:0,_RNCINvMCs7756PgZboGe_9smith_busNtB5_8SmithBus7publishpE0B5_
FNDA:0,_RNCINvMs2_Cs7756PgZboGe_9smith_busNtB8_9WorkQueue20try_get_next_messagepE0B8_
FNDA:0,_RNCNCNvMCs7756PgZboGe_9smith_busNtB6_8SmithBus28check_jetstream_availability00B6_
FNDA:0,_RNCNCNvMCs7756PgZboGe_9smith_busNtB6_8SmithBus7connect00B6_
FNDA:0,_RNCNCNvMs1_Cs7756PgZboGe_9smith_busINtB9_7MessagepE3ack00B9_
FNDA:0,_RNCNCNvMs1_Cs7756PgZboGe_9smith_busINtB9_7MessagepE4nack00B9_
FNDA:0,_RNCNCNvMs1_Cs7756PgZboGe_9smith_busINtB9_7MessagepE4term00B9_
FNDA:0,_RNCNCNvMs2_Cs7756PgZboGe_9smith_busNtB9_9WorkQueue10pull_batch00B9_
FNDA:0,_RNCNCNvMs2_Cs7756PgZboGe_9smith_busNtB9_9WorkQueue18attempt_pull_batch00B9_
FNDA:0,_RNCNCNvMs2_Cs7756PgZboGe_9smith_busNtB9_9WorkQueue18attempt_pull_batch0s_0B9_
FNDA:0,_RNCNCNvMs2_Cs7756PgZboGe_9smith_busNtB9_9WorkQueue19attempt_pull_single00B9_
FNDA:0,_RNCNCNvMs2_Cs7756PgZboGe_9smith_busNtB9_9WorkQueue8pull_one00B9_
FNDA:0,_RNCNvMCs7756PgZboGe_9smith_busNtB4_8SmithBus12health_check0B4_
FNDA:0,_RNCNvMCs7756PgZboGe_9smith_busNtB4_8SmithBus28check_jetstream_availability0B4_
FNDA:0,_RNCNvMCs7756PgZboGe_9smith_busNtB4_8SmithBus7connect0B4_
FNDA:0,_RNCNvMCs7756PgZboGe_9smith_busNtB4_8SmithBus8consumer0B4_
FNDA:0,_RNCNvMs1_Cs7756PgZboGe_9smith_busINtB7_7MessagepE3ack0B7_
FNDA:0,_RNCNvMs1_Cs7756PgZboGe_9smith_busINtB7_7MessagepE4nack0B7_
FNDA:0,_RNCNvMs1_Cs7756PgZboGe_9smith_busINtB7_7MessagepE4term0B7_
FNDA:0,_RNCNvMs2_Cs7756PgZboGe_9smith_busNtB7_9WorkQueue10pull_batch0B7_
FNDA:0,_RNCNvMs2_Cs7756PgZboGe_9smith_busNtB7_9WorkQueue18attempt_pull_batch0B7_
FNDA:0,_RNCNvMs2_Cs7756PgZboGe_9smith_busNtB7_9WorkQueue19attempt_pull_single0B7_
FNDA:0,_RNCNvMs2_Cs7756PgZboGe_9smith_busNtB7_9WorkQueue8pull_one0B7_
FNDA:0,_RNvMCs7756PgZboGe_9smith_busNtB2_8SmithBus11nats_client
FNDA:0,_RNvMCs7756PgZboGe_9smith_busNtB2_8SmithBus12health_check
FNDA:0,_RNvMCs7756PgZboGe_9smith_busNtB2_8SmithBus14stream_manager
FNDA:0,_RNvMCs7756PgZboGe_9smith_busNtB2_8SmithBus23check_nats_connectivity
FNDA:0,_RNvMCs7756PgZboGe_9smith_busNtB2_8SmithBus28check_jetstream_availability
FNDA:0,_RNvMCs7756PgZboGe_9smith_busNtB2_8SmithBus7connect
FNDA:0,_RNvMCs7756PgZboGe_9smith_busNtB2_8SmithBus8consumer
FNDA:0,_RNvMCs7756PgZboGe_9smith_busNtB2_8SmithBus9jetstream
FNDA:0,_RNvMCs7756PgZboGe_9smith_busNtB2_8SmithBus9publisher
FNDA:0,_RNvMs1_Cs7756PgZboGe_9smith_busINtB5_7MessagepE13is_redeliveryB5_
FNDA:0,_RNvMs1_Cs7756PgZboGe_9smith_busINtB5_7MessagepE3ackB5_
FNDA:0,_RNvMs1_Cs7756PgZboGe_9smith_busINtB5_7MessagepE4nackB5_
FNDA:0,_RNvMs1_Cs7756PgZboGe_9smith_busINtB5_7MessagepE4termB5_
FNDA:0,_RNvMs2_Cs7756PgZboGe_9smith_busNtB5_9WorkQueue10pull_batch
FNDA:0,_RNvMs2_Cs7756PgZboGe_9smith_busNtB5_9WorkQueue16log_batch_result
FNDA:0,_RNvMs2_Cs7756PgZboGe_9smith_busNtB5_9WorkQueue18attempt_pull_batch
FNDA:0,_RNvMs2_Cs7756PgZboGe_9smith_busNtB5_9WorkQueue19attempt_pull_single
FNDA:0,_RNvMs2_Cs7756PgZboGe_9smith_busNtB5_9WorkQueue3new
FNDA:0,_RNvMs2_Cs7756PgZboGe_9smith_busNtB5_9WorkQueue8pull_one
FNDA:1,_RNCNvNtCs7756PgZboGe_9smith_bus5testss_18test_health_status0B5_
FNDA:1,_RNvNtCs7756PgZboGe_9smith_bus5testss_18test_health_status
FNDA:1,_RNvNtCs7756PgZboGe_9smith_bus5testss_19test_backoff_config
FNDA:1,_RNvNtCs7756PgZboGe_9smith_bus5testss_29test_consumer_config_defaults
FNDA:7,_RNvCs7756PgZboGe_9smith_bus23create_backoff_strategy
FNDA:3,_RNvMs2_Cs7756PgZboGe_9smith_busNtB5_9WorkQueue27create_batch_retry_strategy
FNDA:3,_RNvMs2_Cs7756PgZboGe_9smith_busNtB5_9WorkQueue28create_single_retry_strategy
FNDA:27,_RNvMs_Cs7756PgZboGe_9smith_busNtB4_12HealthStatus10is_healthy
FNDA:133,_RNvXs0_Cs7756PgZboGe_9smith_busNtB5_14ConsumerConfigNtNtCs66KPHxksi63_4core7default7Default7default
FNDA:3,_RNvXs3_Cs7756PgZboGe_9smith_busNtB5_13BackoffConfigNtNtCs66KPHxksi63_4core7default7Default7default
FNF:56
FNH:10
DA:193,0
DA:194,0
DA:196,0
DA:197,0
DA:198,0
DA:200,0
DA:202,0
DA:204,0
DA:205,0
DA:206,0
DA:207,0
DA:208,0
DA:211,0
DA:212,0
DA:213,0
DA:216,0
DA:217,0
DA:218,0
DA:221,0
DA:222,0
DA:223,0
DA:226,0
DA:227,0
DA:228,0
DA:231,0
DA:232,0
DA:233,0
DA:236,0
DA:237,0
DA:238,0
DA:240,0
DA:241,0
DA:242,0
DA:243,0
DA:244,0
DA:247,0
DA:248,0
DA:249,0
DA:252,0
DA:255,0
DA:256,0
DA:257,0
DA:258,0
DA:259,0
DA:260,0
DA:261,0
DA:262,0
DA:264,0
DA:265,0
DA:266,0
DA:267,0
DA:270,0
DA:271,0
DA:274,0
DA:277,0
DA:278,0
DA:279,0
DA:282,0
DA:283,0
DA:284,0
DA:285,0
DA:286,0
DA:287,0
DA:288,0
DA:289,0
DA:290,0
DA:291,0
DA:305,27
DA:306,27
DA:307,27
DA:330,133
DA:331,133
DA:332,133
DA:333,133
DA:334,133
DA:335,133
DA:336,133
DA:337,133
DA:338,133
DA:339,133
DA:340,133
DA:370,0
DA:371,0
DA:372,0
DA:373,0
DA:374,0
DA:375,0
DA:378,0
DA:379,0
DA:380,0
DA:381,0
DA:382,0
DA:383,0
DA:386,0
DA:387,0
DA:388,0
DA:389,0
DA:390,0
DA:391,0
DA:394,0
DA:395,0
DA:396,0
DA:408,0
DA:409,0
DA:410,0
DA:411,0
DA:412,0
DA:413,0
DA:414,0
DA:417,0
DA:418,0
DA:420,0
DA:421,0
DA:422,0
DA:423,0
DA:426,3
DA:427,3
DA:428,3
DA:429,3
DA:430,3
DA:433,0
DA:434,0
DA:435,0
DA:436,0
DA:437,0
DA:438,0
DA:439,0
DA:440,0
DA:441,0
DA:442,0
DA:443,0
DA:444,0
DA:446,0
DA:447,0
DA:448,0
DA:449,0
DA:451,0
DA:452,0
DA:453,0
DA:456,0
DA:457,0
DA:458,0
DA:460,0
DA:462,0
DA:465,0
DA:466,0
DA:468,0
DA:469,0
DA:470,0
DA:471,0
DA:474,3
DA:475,3
DA:476,3
DA:477,3
DA:478,3
DA:481,0
DA:482,0
DA:483,0
DA:484,0
DA:485,0
DA:486,0
DA:488,0
DA:489,0
DA:492,0
DA:493,0
DA:494,0
DA:495,0
DA:496,0
DA:497,0
DA:498,0
DA:501,0
DA:502,0
DA:504,0
DA:505,0
DA:506,0
DA:510,0
DA:511,0
DA:514,0
DA:533,3
DA:534,3
DA:535,3
DA:536,3
DA:537,3
DA:538,3
DA:539,3
DA:540,3
DA:541,3
DA:545,7
DA:546,7
DA:547,7
DA:548,7
DA:549,7
DA:550,7
DA:557,1
DA:558,1
DA:559,1
DA:560,1
DA:561,1
DA:563,1
DA:565,1
DA:566,1
DA:567,1
DA:568,1
DA:570,1
DA:571,1
DA:574,1
DA:575,1
DA:577,1
DA:578,1
DA:579,1
DA:580,1
DA:583,1
DA:584,1
DA:585,1
DA:588,1
DA:589,1
DA:590,1
BRF:0
BRH:0
LF:244
LH:65
end_of_record
SF:/home/nathan/Projects/smith/shared/smith-bus/src/lib_tests.rs
FN:20,_RNvMNtNtCs7756PgZboGe_9smith_bus9lib_tests5testsNtB2_11TestMessage3new
FN:237,_RNCNvNtNtCs7756PgZboGe_9smith_bus9lib_tests5testss_24test_work_queue_creation0B7_
FN:254,_RNCNvNtNtCs7756PgZboGe_9smith_bus9lib_tests5testss_37test_work_queue_single_retry_strategy0B7_
FN:680,_RNCNvNtNtCs7756PgZboGe_9smith_bus9lib_tests5testss_41test_work_queue_retry_strategy_comparison0B7_
FN:684,_RNCNvNtNtCs7756PgZboGe_9smith_bus9lib_tests5testss_41test_work_queue_retry_strategy_comparisons_0B7_
FN:508,_RNvNtNtCs7756PgZboGe_9smith_bus9lib_tests5testss_22test_timing_edge_cases
FN:218,_RNvNtNtCs7756PgZboGe_9smith_bus9lib_tests5testss_24test_work_queue_creation
FN:534,_RNvNtNtCs7756PgZboGe_9smith_bus9lib_tests5testss_28test_backoff_strategy_limits
FN:113,_RNvNtNtCs7756PgZboGe_9smith_bus9lib_tests5testss_28test_consumer_start_sequence
FN:720,_RNvNtNtCs7756PgZboGe_9smith_bus9lib_tests5testss_29test_health_status_edge_cases
FN:592,_RNvNtNtCs7756PgZboGe_9smith_bus9lib_tests5testss_29test_message_subject_handling
FN:184,_RNvNtNtCs7756PgZboGe_9smith_bus9lib_tests5testss_30test_backoff_config_edge_cases
FN:490,_RNvNtNtCs7756PgZboGe_9smith_bus9lib_tests5testss_30test_message_delivery_tracking
FN:920,_RNvNtNtCs7756PgZboGe_9smith_bus9lib_tests5testss_30test_message_timeout_scenarios
FN:868,_RNvNtNtCs7756PgZboGe_9smith_bus9lib_tests5testss_31test_duration_arithmetic_safety
FN:557,_RNvNtNtCs7756PgZboGe_9smith_bus9lib_tests5testss_31test_uuid_generation_uniqueness
FN:973,_RNvNtNtCs7756PgZboGe_9smith_bus9lib_tests5testss_32test_connection_state_conceptual
FN:30,_RNvNtNtCs7756PgZboGe_9smith_bus9lib_tests5testss_32test_health_status_comprehensive
FN:58,_RNvNtNtCs7756PgZboGe_9smith_bus9lib_tests5testss_32test_health_status_serialization
FN:143,_RNvNtNtCs7756PgZboGe_9smith_bus9lib_tests5testss_33test_backoff_config_comprehensive
FN:278,_RNvNtNtCs7756PgZboGe_9smith_bus9lib_tests5testss_33test_consumer_config_unique_names
FN:80,_RNvNtNtCs7756PgZboGe_9smith_bus9lib_tests5testss_34test_consumer_config_comprehensive
FN:369,_RNvNtNtCs7756PgZboGe_9smith_bus9lib_tests5testss_34test_health_status_debug_and_clone
FN:390,_RNvNtNtCs7756PgZboGe_9smith_bus9lib_tests5testss_35test_backoff_config_debug_and_clone
FN:993,_RNvNtNtCs7756PgZboGe_9smith_bus9lib_tests5testss_35test_jetstream_availability_timeout
FN:417,_RNvNtNtCs7756PgZboGe_9smith_bus9lib_tests5testss_36test_consumer_config_debug_and_clone
FN:647,_RNvNtNtCs7756PgZboGe_9smith_bus9lib_tests5testss_36test_work_queue_batch_size_scenarios
FN:241,_RNvNtNtCs7756PgZboGe_9smith_bus9lib_tests5testss_37test_work_queue_single_retry_strategy
FN:573,_RNvNtNtCs7756PgZboGe_9smith_bus9lib_tests5testss_38test_message_acknowledgment_conceptual
FN:625,_RNvNtNtCs7756PgZboGe_9smith_bus9lib_tests5testss_38test_work_queue_timeout_configurations
FN:775,_RNvNtNtCs7756PgZboGe_9smith_bus9lib_tests5testss_39test_consumer_start_sequence_edge_cases
FN:903,_RNvNtNtCs7756PgZboGe_9smith_bus9lib_tests5testss_41test_work_queue_log_batch_result_coverage
FN:666,_RNvNtNtCs7756PgZboGe_9smith_bus9lib_tests5testss_41test_work_queue_retry_strategy_comparison
FN:314,_RNvNtNtCs7756PgZboGe_9smith_bus9lib_tests5testss_42test_consumer_config_timing_configurations
FN:446,_RNvNtNtCs7756PgZboGe_9smith_bus9lib_tests5testss_42test_consumer_start_sequence_comprehensive
FN:258,_RNvNtNtCs7756PgZboGe_9smith_bus9lib_tests5testss_42test_work_queue_batch_vs_single_strategies
FN:694,_RNvNtNtCs7756PgZboGe_9smith_bus9lib_tests5testss_43test_backoff_config_mathematical_properties
FN:849,_RNvNtNtCs7756PgZboGe_9smith_bus9lib_tests5testss_43test_consumer_config_max_deliver_edge_cases
FN:293,_RNvNtNtCs7756PgZboGe_9smith_bus9lib_tests5testss_43test_consumer_config_worker_count_scenarios
FN:804,_RNvNtNtCs7756PgZboGe_9smith_bus9lib_tests5testss_44test_backoff_strategy_extreme_configurations
FN:345,_RNvNtNtCs7756PgZboGe_9smith_bus9lib_tests5testss_44test_consumer_config_delivery_configurations
FN:937,_RNvNtNtCs7756PgZboGe_9smith_bus9lib_tests5testss_45test_consumer_config_comprehensive_validation
FN:747,_RNvNtNtCs7756PgZboGe_9smith_bus9lib_tests5testss_45test_consumer_config_consumer_group_scenarios
FNDA:0,_RNvMNtNtCs7756PgZboGe_9smith_bus9lib_tests5testsNtB2_11TestMessage3new
FNDA:3,_RNCNvNtNtCs7756PgZboGe_9smith_bus9lib_tests5testss_24test_work_queue_creation0B7_
FNDA:3,_RNCNvNtNtCs7756PgZboGe_9smith_bus9lib_tests5testss_37test_work_queue_single_retry_strategy0B7_
FNDA:3,_RNCNvNtNtCs7756PgZboGe_9smith_bus9lib_tests5testss_41test_work_queue_retry_strategy_comparison0B7_
FNDA:3,_RNCNvNtNtCs7756PgZboGe_9smith_bus9lib_tests5testss_41test_work_queue_retry_strategy_comparisons_0B7_
FNDA:1,_RNvNtNtCs7756PgZboGe_9smith_bus9lib_tests5testss_22test_timing_edge_cases
FNDA:1,_RNvNtNtCs7756PgZboGe_9smith_bus9lib_tests5testss_24test_work_queue_creation
FNDA:1,_RNvNtNtCs7756PgZboGe_9smith_bus9lib_tests5testss_28test_backoff_strategy_limits
FNDA:1,_RNvNtNtCs7756PgZboGe_9smith_bus9lib_tests5testss_28test_consumer_start_sequence
FNDA:1,_RNvNtNtCs7756PgZboGe_9smith_bus9lib_tests5testss_29test_health_status_edge_cases
FNDA:1,_RNvNtNtCs7756PgZboGe_9smith_bus9lib_tests5testss_29test_message_subject_handling
FNDA:1,_RNvNtNtCs7756PgZboGe_9smith_bus9lib_tests5testss_30test_backoff_config_edge_cases
FNDA:1,_RNvNtNtCs7756PgZboGe_9smith_bus9lib_tests5testss_30test_message_delivery_tracking
FNDA:1,_RNvNtNtCs7756PgZboGe_9smith_bus9lib_tests5testss_30test_message_timeout_scenarios
FNDA:1,_RNvNtNtCs7756PgZboGe_9smith_bus9lib_tests5testss_31test_duration_arithmetic_safety
FNDA:1,_RNvNtNtCs7756PgZboGe_9smith_bus9lib_tests5testss_31test_uuid_generation_uniqueness
FNDA:1,_RNvNtNtCs7756PgZboGe_9smith_bus9lib_tests5testss_32test_connection_state_conceptual
FNDA:1,_RNvNtNtCs7756PgZboGe_9smith_bus9lib_tests5testss_32test_health_status_comprehensive
FNDA:1,_RNvNtNtCs7756PgZboGe_9smith_bus9lib_tests5testss_32test_health_status_serialization
FNDA:1,_RNvNtNtCs7756PgZboGe_9smith_bus9lib_tests5testss_33test_backoff_config_comprehensive
FNDA:1,_RNvNtNtCs7756PgZboGe_9smith_bus9lib_tests5testss_33test_consumer_config_unique_names
FNDA:1,_RNvNtNtCs7756PgZboGe_9smith_bus9lib_tests5testss_34test_consumer_config_comprehensive
FNDA:1,_RNvNtNtCs7756PgZboGe_9smith_bus9lib_tests5testss_34test_health_status_debug_and_clone
FNDA:1,_RNvNtNtCs7756PgZboGe_9smith_bus9lib_tests5testss_35test_backoff_config_debug_and_clone
FNDA:1,_RNvNtNtCs7756PgZboGe_9smith_bus9lib_tests5testss_35test_jetstream_availability_timeout
FNDA:1,_RNvNtNtCs7756PgZboGe_9smith_bus9lib_tests5testss_36test_consumer_config_debug_and_clone
FNDA:1,_RNvNtNtCs7756PgZboGe_9smith_bus9lib_tests5testss_36test_work_queue_batch_size_scenarios
FNDA:1,_RNvNtNtCs7756PgZboGe_9smith_bus9lib_tests5testss_37test_work_queue_single_retry_strategy
FNDA:1,_RNvNtNtCs7756PgZboGe_9smith_bus9lib_tests5testss_38test_message_acknowledgment_conceptual
FNDA:1,_RNvNtNtCs7756PgZboGe_9smith_bus9lib_tests5testss_38test_work_queue_timeout_configurations
FNDA:1,_RNvNtNtCs7756PgZboGe_9smith_bus9lib_tests5testss_39test_consumer_start_sequence_edge_cases
FNDA:1,_RNvNtNtCs7756PgZboGe_9smith_bus9lib_tests5testss_41test_work_queue_log_batch_result_coverage
FNDA:1,_RNvNtNtCs7756PgZboGe_9smith_bus9lib_tests5testss_41test_work_queue_retry_strategy_comparison
FNDA:1,_RNvNtNtCs7756PgZboGe_9smith_bus9lib_tests5testss_42test_consumer_config_timing_configurations
FNDA:1,_RNvNtNtCs7756PgZboGe_9smith_bus9lib_tests5testss_42test_consumer_start_sequence_comprehensive
FNDA:1,_RNvNtNtCs7756PgZboGe_9smith_bus9lib_tests5testss_42test_work_queue_batch_vs_single_strategies
FNDA:1,_RNvNtNtCs7756PgZboGe_9smith_bus9lib_tests5testss_43test_backoff_config_mathematical_properties
FNDA:1,_RNvNtNtCs7756PgZboGe_9smith_bus9lib_tests5testss_43test_consumer_config_max_deliver_edge_cases
FNDA:1,_RNvNtNtCs7756PgZboGe_9smith_bus9lib_tests5testss_43test_consumer_config_worker_count_scenarios
FNDA:1,_RNvNtNtCs7756PgZboGe_9smith_bus9lib_tests5testss_44test_backoff_strategy_extreme_configurations
FNDA:1,_RNvNtNtCs7756PgZboGe_9smith_bus9lib_tests5testss_44test_consumer_config_delivery_configurations
FNDA:1,_RNvNtNtCs7756PgZboGe_9smith_bus9lib_tests5testss_45test_consumer_config_comprehensive_validation
FNDA:1,_RNvNtNtCs7756PgZboGe_9smith_bus9lib_tests5testss_45test_consumer_config_consumer_group_scenarios
FNF:43
FNH:42
DA:20,0
DA:21,0
DA:22,0
DA:23,0
DA:24,0
DA:25,0
DA:26,0
DA:30,1
DA:32,1
DA:33,1
DA:34,1
DA:35,1
DA:36,1
DA:38,1
DA:39,1
DA:40,1
DA:41,1
DA:42,1
DA:44,1
DA:45,1
DA:46,1
DA:47,1
DA:48,1
DA:50,1
DA:51,1
DA:52,1
DA:53,1
DA:54,1
DA:55,1
DA:58,1
DA:59,1
DA:60,1
DA:61,1
DA:62,1
DA:65,1
DA:66,1
DA:67,1
DA:68,1
DA:69,1
DA:72,1
DA:73,1
DA:74,1
DA:75,1
DA:76,1
DA:77,1
DA:80,1
DA:82,1
DA:83,1
DA:84,1
DA:85,1
DA:86,1
DA:87,1
DA:88,1
DA:89,1
DA:90,1
DA:93,1
DA:94,1
DA:95,1
DA:96,1
DA:97,1
DA:98,1
DA:99,1
DA:100,1
DA:101,1
DA:103,1
DA:104,1
DA:105,1
DA:106,1
DA:107,1
DA:108,1
DA:109,1
DA:110,1
DA:113,1
DA:115,1
DA:116,1
DA:117,1
DA:118,1
DA:121,1
DA:122,1
DA:123,0
DA:126,1
DA:127,1
DA:128,0
DA:131,1
DA:132,1
DA:133,0
DA:136,1
DA:137,1
DA:138,0
DA:140,1
DA:143,1
DA:145,1
DA:146,1
DA:147,1
DA:148,1
DA:149,1
DA:150,1
DA:153,1
DA:154,1
DA:155,1
DA:156,1
DA:157,1
DA:158,1
DA:159,1
DA:161,1
DA:162,1
DA:163,1
DA:164,1
DA:165,1
DA:168,1
DA:169,1
DA:172,1
DA:175,1
DA:178,9
DA:179,9
DA:181,1
DA:184,1
DA:186,1
DA:187,1
DA:188,1
DA:189,1
DA:190,1
DA:191,1
DA:192,1
DA:194,1
DA:195,1
DA:196,1
DA:199,1
DA:200,1
DA:201,1
DA:202,1
DA:203,1
DA:204,1
DA:205,1
DA:207,1
DA:208,1
DA:209,1
DA:212,1001
DA:213,1000
DA:215,1
DA:218,1
DA:221,1
DA:222,1
DA:225,1
DA:226,1
DA:228,1
DA:229,1
DA:232,2
DA:233,2
DA:237,3
DA:238,1
DA:241,1
DA:242,1
DA:243,1
DA:245,1
DA:246,1
DA:249,2
DA:250,2
DA:254,3
DA:255,1
DA:258,1
DA:259,1
DA:260,1
DA:262,1
DA:263,1
DA:266,1
DA:269,1
DA:272,1
DA:273,1
DA:274,1
DA:275,1
DA:278,1
DA:280,1
DA:281,1
DA:283,1
DA:284,1
DA:285,1
DA:288,1
DA:289,1
DA:290,1
DA:293,1
DA:295,1
DA:296,1
DA:299,1
DA:300,1
DA:301,1
DA:302,1
DA:303,1
DA:306,1
DA:307,1
DA:308,1
DA:309,1
DA:310,1
DA:311,1
DA:314,1
DA:316,1
DA:317,1
DA:318,1
DA:319,1
DA:320,1
DA:323,1
DA:324,1
DA:325,1
DA:326,1
DA:327,1
DA:330,1
DA:331,1
DA:332,1
DA:333,1
DA:334,1
DA:337,1
DA:338,1
DA:339,1
DA:340,1
DA:341,1
DA:342,1
DA:345,1
DA:347,1
DA:348,1
DA:349,1
DA:350,1
DA:351,1
DA:354,1
DA:355,1
DA:356,1
DA:357,1
DA:358,1
DA:361,1
DA:362,1
DA:363,1
DA:364,1
DA:365,1
DA:366,1
DA:369,1
DA:370,1
DA:371,1
DA:372,1
DA:373,1
DA:376,1
DA:377,1
DA:378,1
DA:379,1
DA:380,1
DA:383,1
DA:384,1
DA:385,1
DA:386,1
DA:387,1
DA:390,1
DA:391,1
DA:392,1
DA:393,1
DA:394,1
DA:395,1
DA:396,1
DA:397,1
DA:400,1
DA:401,1
DA:402,1
DA:403,1
DA:404,1
DA:405,1
DA:408,1
DA:409,1
DA:410,1
DA:411,1
DA:412,1
DA:413,1
DA:414,1
DA:417,1
DA:418,1
DA:419,1
DA:420,1
DA:421,1
DA:422,1
DA:423,1
DA:424,1
DA:425,1
DA:426,1
DA:429,1
DA:430,1
DA:431,1
DA:432,1
DA:433,1
DA:436,1
DA:437,1
DA:438,1
DA:439,1
DA:440,1
DA:441,1
DA:442,1
DA:443,1
DA:446,1
DA:447,1
DA:450,1
DA:451,1
DA:452,1
DA:454,1
DA:455,1
DA:456,1
DA:458,1
DA:459,1
DA:460,1
DA:461,1
DA:463,1
DA:464,1
DA:465,1
DA:468,1
DA:469,1
DA:471,1
DA:472,1
DA:474,1
DA:475,1
DA:476,1
DA:478,0
DA:481,1
DA:482,1
DA:483,1
DA:485,0
DA:487,1
DA:490,1
DA:495,1
DA:497,6
DA:498,5
DA:499,5
DA:500,1
DA:502,4
DA:505,1
DA:508,1
DA:510,1
DA:511,1
DA:513,1
DA:514,1
DA:515,1
DA:516,1
DA:517,1
DA:519,1
DA:520,1
DA:523,1
DA:524,1
DA:525,1
DA:526,1
DA:527,1
DA:529,1
DA:530,1
DA:531,1
DA:534,1
DA:536,1
DA:537,1
DA:538,1
DA:539,1
DA:540,1
DA:541,1
DA:542,1
DA:544,1
DA:545,1
DA:548,1
DA:551,1001
DA:552,1000
DA:554,1
DA:557,1
DA:559,1
DA:561,101
DA:562,100
DA:563,100
DA:564,100
DA:567,1
DA:568,1
DA:573,1
DA:578,1
DA:579,1
DA:580,1
DA:581,1
DA:582,1
DA:585,5
DA:586,4
DA:587,4
DA:589,1
DA:592,1
DA:594,1
DA:596,1
DA:597,1
DA:598,1
DA:599,1
DA:600,1
DA:601,1
DA:602,1
DA:605,9
DA:607,8
DA:608,5
DA:609,3
DA:612,8
DA:613,1
DA:614,7
DA:617,8
DA:618,8
DA:619,7
DA:620,1
DA:622,1
DA:625,1
DA:627,1
DA:628,1
DA:629,1
DA:630,1
DA:631,1
DA:632,1
DA:633,1
DA:636,7
DA:638,6
DA:641,6
DA:642,6
DA:644,1
DA:647,1
DA:649,1
DA:651,8
DA:653,7
DA:655,1
DA:657,6
DA:661,7
DA:663,1
DA:666,1
DA:668,1
DA:669,1
DA:671,1
DA:672,1
DA:675,1
DA:676,1
DA:679,1
DA:680,3
DA:683,1
DA:684,3
DA:687,2
DA:688,2
DA:689,2
DA:691,1
DA:694,1
DA:696,1
DA:697,1
DA:698,1
DA:699,1
DA:700,1
DA:701,1
DA:702,1
DA:705,1
DA:706,1
DA:709,1
DA:710,1
DA:713,1
DA:716,1
DA:717,1
DA:720,1
DA:722,1
DA:723,1
DA:724,1
DA:725,1
DA:726,1
DA:729,5
DA:730,4
DA:731,4
DA:732,4
DA:733,4
DA:735,4
DA:738,4
DA:739,4
DA:740,4
DA:741,4
DA:742,4
DA:744,1
DA:747,1
DA:749,1
DA:750,1
DA:751,1
DA:752,1
DA:753,1
DA:754,1
DA:755,1
DA:756,1
DA:757,1
DA:760,9
DA:761,8
DA:762,8
DA:763,8
DA:764,8
DA:766,8
DA:769,8
DA:770,8
DA:772,1
DA:775,1
DA:779,1
DA:780,5
DA:781,4
DA:782,4
DA:783,4
DA:784,0
DA:789,1
DA:790,1
DA:791,1
DA:793,1
DA:794,4
DA:795,3
DA:796,3
DA:797,3
DA:798,0
DA:801,1
DA:804,1
DA:806,1
DA:807,1
DA:808,1
DA:809,1
DA:810,1
DA:811,1
DA:812,1
DA:813,1
DA:814,1
DA:815,1
DA:816,1
DA:817,1
DA:818,1
DA:819,1
DA:820,1
DA:823,3
DA:824,2
DA:825,2
DA:828,2
DA:831,112
DA:832,110
DA:837,2
DA:838,2
DA:839,1
DA:842,1
DA:844,0
DA:846,1
DA:849,1
DA:851,1
DA:853,8
DA:854,7
DA:855,7
DA:856,7
DA:857,7
DA:859,7
DA:862,7
DA:863,7
DA:865,1
DA:868,1
DA:870,1
DA:871,1
DA:872,1
DA:873,1
DA:874,1
DA:875,1
DA:878,6
DA:879,30
DA:881,25
DA:882,25
DA:883,25
DA:884,0
DA:887,25
DA:888,15
DA:889,15
DA:890,10
DA:893,100
DA:894,75
DA:895,75
DA:896,0
DA:900,1
DA:903,1
DA:905,1
DA:907,6
DA:909,5
DA:911,1
DA:914,4
DA:917,1
DA:920,1
DA:922,1
DA:925,1
DA:926,1
DA:929,1
DA:930,1
DA:932,1
DA:933,1
DA:934,1
DA:937,1
DA:939,1
DA:940,1
DA:941,1
DA:942,1
DA:943,1
DA:944,1
DA:945,1
DA:946,1
DA:947,1
DA:950,1
DA:951,1
DA:952,1
DA:953,1
DA:954,1
DA:955,1
DA:958,1
DA:959,1
DA:960,0
DA:964,1
DA:965,1
DA:966,1
DA:967,1
DA:968,1
DA:969,0
DA:970,1
DA:973,1
DA:977,1
DA:978,1
DA:979,1
DA:980,1
DA:981,1
DA:982,1
DA:985,6
DA:987,5
DA:988,5
DA:990,1
DA:993,1
DA:995,1
DA:998,1
DA:999,1
DA:1000,1
DA:1003,1
DA:1004,1
DA:1006,1
DA:1007,1
DA:1008,1
BRF:0
BRH:0
LF:632
LH:612
end_of_record
SF:/home/nathan/Projects/smith/shared/smith-bus/src/publisher.rs
FN:38,_RINvMNtCs7756PgZboGe_9smith_bus9publisherNtB3_9Publisher20publish_with_headerspEB5_
FN:18,_RINvMNtCs7756PgZboGe_9smith_bus9publisherNtB3_9Publisher7publishpEB5_
FN:43,_RNCINvMNtCs7756PgZboGe_9smith_bus9publisherNtB5_9Publisher20publish_with_headerspE0B7_
FN:18,_RNCINvMNtCs7756PgZboGe_9smith_bus9publisherNtB5_9Publisher7publishpE0B7_
FN:52,_RNCNCINvMNtCs7756PgZboGe_9smith_bus9publisherNtB7_9Publisher20publish_with_headerspE00B9_
FN:27,_RNCNCINvMNtCs7756PgZboGe_9smith_bus9publisherNtB7_9Publisher7publishpE00B9_
FN:70,_RNCNCNvMNtCs7756PgZboGe_9smith_bus9publisherNtB6_9Publisher11publish_raw00B8_
FN:63,_RNCNvMNtCs7756PgZboGe_9smith_bus9publisherNtB4_9Publisher11publish_raw0B6_
FN:63,_RNvMNtCs7756PgZboGe_9smith_bus9publisherNtB2_9Publisher11publish_raw
FN:13,_RNvMNtCs7756PgZboGe_9smith_bus9publisherNtB2_9Publisher3new
FN:192,_RNvNtNtCs7756PgZboGe_9smith_bus9publisher5testss_20test_publisher_clone
FN:220,_RNvNtNtCs7756PgZboGe_9smith_bus9publisher5testss_21test_header_map_usage
FN:127,_RNvNtNtCs7756PgZboGe_9smith_bus9publisher5testss_23test_publisher_creation
FN:202,_RNvNtNtCs7756PgZboGe_9smith_bus9publisher5testss_25test_raw_payload_handling
FN:251,_RNvNtNtCs7756PgZboGe_9smith_bus9publisher5testss_25test_serialization_errors
FN:114,_RNvNtNtCs7756PgZboGe_9smith_bus9publisher5testss_27test_subject_builders_usage
FN:232,_RNvNtNtCs7756PgZboGe_9smith_bus9publisher5testss_28test_subject_string_handling
FN:92,_RNvNtNtCs7756PgZboGe_9smith_bus9publisher5testss_34test_generic_message_serialization
FN:164,_RNvNtNtCs7756PgZboGe_9smith_bus9publisher5testss_37test_message_serialization_edge_cases
FNDA:0,_RINvMNtCs7756PgZboGe_9smith_bus9publisherNtB3_9Publisher20publish_with_headerspEB5_
FNDA:0,_RINvMNtCs7756PgZboGe_9smith_bus9publisherNtB3_9Publisher7publishpEB5_
FNDA:0,_RNCINvMNtCs7756PgZboGe_9smith_bus9publisherNtB5_9Publisher20publish_with_headerspE0B7_
FNDA:0,_RNCINvMNtCs7756PgZboGe_9smith_bus9publisherNtB5_9Publisher7publishpE0B7_
FNDA:0,_RNCNCINvMNtCs7756PgZboGe_9smith_bus9publisherNtB7_9Publisher20publish_with_headerspE00B9_
FNDA:0,_RNCNCINvMNtCs7756PgZboGe_9smith_bus9publisherNtB7_9Publisher7publishpE00B9_
FNDA:0,_RNCNCNvMNtCs7756PgZboGe_9smith_bus9publisherNtB6_9Publisher11publish_raw00B8_
FNDA:0,_RNCNvMNtCs7756PgZboGe_9smith_bus9publisherNtB4_9Publisher11publish_raw0B6_
FNDA:0,_RNvMNtCs7756PgZboGe_9smith_bus9publisherNtB2_9Publisher11publish_raw
FNDA:0,_RNvMNtCs7756PgZboGe_9smith_bus9publisherNtB2_9Publisher3new
FNDA:1,_RNvNtNtCs7756PgZboGe_9smith_bus9publisher5testss_20test_publisher_clone
FNDA:1,_RNvNtNtCs7756PgZboGe_9smith_bus9publisher5testss_21test_header_map_usage
FNDA:1,_RNvNtNtCs7756PgZboGe_9smith_bus9publisher5testss_23test_publisher_creation
FNDA:1,_RNvNtNtCs7756PgZboGe_9smith_bus9publisher5testss_25test_raw_payload_handling
FNDA:1,_RNvNtNtCs7756PgZboGe_9smith_bus9publisher5testss_25test_serialization_errors
FNDA:1,_RNvNtNtCs7756PgZboGe_9smith_bus9publisher5testss_27test_subject_builders_usage
FNDA:1,_RNvNtNtCs7756PgZboGe_9smith_bus9publisher5testss_28test_subject_string_handling
FNDA:1,_RNvNtNtCs7756PgZboGe_9smith_bus9publisher5testss_34test_generic_message_serialization
FNDA:1,_RNvNtNtCs7756PgZboGe_9smith_bus9publisher5testss_37test_message_serialization_edge_cases
FNF:19
FNH:9
DA:13,0
DA:14,0
DA:15,0
DA:18,0
DA:19,0
DA:21,0
DA:23,0
DA:24,0
DA:25,0
DA:26,0
DA:27,0
DA:29,0
DA:30,0
DA:32,0
DA:34,0
DA:35,0
DA:38,0
DA:39,0
DA:40,0
DA:41,0
DA:42,0
DA:43,0
DA:44,0
DA:46,0
DA:48,0
DA:49,0
DA:50,0
DA:51,0
DA:52,0
DA:54,0
DA:55,0
DA:57,0
DA:59,0
DA:60,0
DA:63,0
DA:64,0
DA:66,0
DA:67,0
DA:68,0
DA:69,0
DA:70,0
DA:72,0
DA:73,0
DA:74,0
DA:78,0
DA:79,0
DA:92,1
DA:99,1
DA:100,1
DA:101,1
DA:102,1
DA:104,1
DA:105,1
DA:108,1
DA:109,1
DA:110,1
DA:111,1
DA:114,1
DA:116,1
DA:117,1
DA:119,1
DA:120,1
DA:122,1
DA:123,1
DA:124,1
DA:127,1
DA:142,1
DA:143,1
DA:144,1
DA:146,1
DA:147,1
DA:148,1
DA:149,1
DA:150,1
DA:152,1
DA:153,1
DA:156,1
DA:157,1
DA:158,1
DA:159,1
DA:160,1
DA:161,1
DA:164,1
DA:169,1
DA:170,1
DA:171,1
DA:180,1
DA:181,1
DA:182,1
DA:183,1
DA:185,1
DA:186,1
DA:187,1
DA:188,1
DA:189,1
DA:192,1
DA:199,1
DA:202,1
DA:204,1
DA:205,1
DA:207,1
DA:208,1
DA:209,1
DA:210,1
DA:211,1
DA:213,1
DA:214,1
DA:215,1
DA:216,1
DA:217,1
DA:220,1
DA:222,1
DA:223,1
DA:224,1
DA:226,1
DA:227,1
DA:228,1
DA:229,1
DA:232,1
DA:234,1
DA:236,1
DA:237,1
DA:238,1
DA:239,1
DA:242,6
DA:243,5
DA:245,5
DA:246,5
DA:248,1
DA:251,1
DA:256,1
DA:257,1
DA:259,1
DA:260,1
DA:263,1
DA:264,1
DA:266,1
DA:267,1
BRF:0
BRH:0
LF:144
LH:92
end_of_record
SF:/home/nathan/Projects/smith/shared/smith-bus/src/publisher_tests.rs
FN:546,_RINvNvNtNtCs7756PgZboGe_9smith_bus15publisher_tests5testss_26test_publisher_clone_trait12assert_cloneNtNtB8_9publisher9PublisherEB8_
FN:550,_RINvNvNtNtCs7756PgZboGe_9smith_bus15publisher_tests5testss_26test_publisher_clone_trait16assert_send_syncNtNtB8_9publisher9PublisherEB8_
FN:474,_RNCNvNtNtCs7756PgZboGe_9smith_bus15publisher_tests5testss_29test_error_context_formatting0B7_
FN:508,_RNCNvNtNtCs7756PgZboGe_9smith_bus15publisher_tests5testss_36test_concurrent_serialization_safety0B7_
FN:407,_RNvNvNtNtCs7756PgZboGe_9smith_bus15publisher_tests5testss_32test_publisher_struct_properties23__compile_time_api_check
FN:20,_RNvMNtNtCs7756PgZboGe_9smith_bus15publisher_tests5testsNtB2_11TestMessage3new
FN:47,_RNvMs_NtNtCs7756PgZboGe_9smith_bus15publisher_tests5testsNtB4_14ComplexMessage3new
FN:525,_RNvNtNtCs7756PgZboGe_9smith_bus15publisher_tests5testss_22test_memory_efficiency
FN:448,_RNvNtNtCs7756PgZboGe_9smith_bus15publisher_tests5testss_23test_payload_conversion
FN:416,_RNvNtNtCs7756PgZboGe_9smith_bus15publisher_tests5testss_24test_anyhow_result_usage
FN:542,_RNvNtNtCs7756PgZboGe_9smith_bus15publisher_tests5testss_26test_publisher_clone_trait
FN:583,_RNvNtNtCs7756PgZboGe_9smith_bus15publisher_tests5testss_27test_large_message_handling
FN:283,_RNvNtNtCs7756PgZboGe_9smith_bus15publisher_tests5testss_27test_raw_payload_variations
FN:467,_RNvNtNtCs7756PgZboGe_9smith_bus15publisher_tests5testss_29test_error_context_formatting
FN:355,_RNvNtNtCs7756PgZboGe_9smith_bus15publisher_tests5testss_29test_error_handling_scenarios
FN:211,_RNvNtNtCs7756PgZboGe_9smith_bus15publisher_tests5testss_29test_header_map_functionality
FN:483,_RNvNtNtCs7756PgZboGe_9smith_bus15publisher_tests5testss_29test_sequence_number_handling
FN:555,_RNvNtNtCs7756PgZboGe_9smith_bus15publisher_tests5testss_29test_serialization_edge_cases
FN:237,_RNvNtNtCs7756PgZboGe_9smith_bus15publisher_tests5testss_30test_header_map_special_values
FN:257,_RNvNtNtCs7756PgZboGe_9smith_bus15publisher_tests5testss_30test_subject_string_validation
FN:71,_RNvNtNtCs7756PgZboGe_9smith_bus15publisher_tests5testss_32test_message_serialization_basic
FN:388,_RNvNtNtCs7756PgZboGe_9smith_bus15publisher_tests5testss_32test_publisher_struct_properties
FN:432,_RNvNtNtCs7756PgZboGe_9smith_bus15publisher_tests5testss_32test_tracing_debug_compatibility
FN:177,_RNvNtNtCs7756PgZboGe_9smith_bus15publisher_tests5testss_33test_vector_and_map_serialization
FN:90,_RNvNtNtCs7756PgZboGe_9smith_bus15publisher_tests5testss_34test_message_serialization_complex
FN:156,_RNvNtNtCs7756PgZboGe_9smith_bus15publisher_tests5testss_34test_optional_fields_serialization
FN:497,_RNvNtNtCs7756PgZboGe_9smith_bus15publisher_tests5testss_36test_concurrent_serialization_safety
FN:114,_RNvNtNtCs7756PgZboGe_9smith_bus15publisher_tests5testss_37test_message_serialization_edge_cases
FN:325,_RNvNtNtCs7756PgZboGe_9smith_bus15publisher_tests5testss_46test_serialization_performance_characteristics
FN:137,_RNvNtNtCs7756PgZboGe_9smith_bus15publisher_tests5testss_50test_message_serialization_with_special_characters
FN:421,_RNvNvNtNtCs7756PgZboGe_9smith_bus15publisher_tests5testss_24test_anyhow_result_usage18test_context_usage
FNDA:1,_RINvNvNtNtCs7756PgZboGe_9smith_bus15publisher_tests5testss_26test_publisher_clone_trait12assert_cloneNtNtB8_9publisher9PublisherEB8_
FNDA:1,_RINvNvNtNtCs7756PgZboGe_9smith_bus15publisher_tests5testss_26test_publisher_clone_trait16assert_send_syncNtNtB8_9publisher9PublisherEB8_
FNDA:1,_RNCNvNtNtCs7756PgZboGe_9smith_bus15publisher_tests5testss_29test_error_context_formatting0B7_
FNDA:5,_RNCNvNtNtCs7756PgZboGe_9smith_bus15publisher_tests5testss_36test_concurrent_serialization_safety0B7_
FNDA:0,_RNvNvNtNtCs7756PgZboGe_9smith_bus15publisher_tests5testss_32test_publisher_struct_properties23__compile_time_api_check
FNDA:10,_RNvMNtNtCs7756PgZboGe_9smith_bus15publisher_tests5testsNtB2_11TestMessage3new
FNDA:4,_RNvMs_NtNtCs7756PgZboGe_9smith_bus15publisher_tests5testsNtB4_14ComplexMessage3new
FNDA:1,_RNvNtNtCs7756PgZboGe_9smith_bus15publisher_tests5testss_22test_memory_efficiency
FNDA:1,_RNvNtNtCs7756PgZboGe_9smith_bus15publisher_tests5testss_23test_payload_conversion
FNDA:1,_RNvNtNtCs7756PgZboGe_9smith_bus15publisher_tests5testss_24test_anyhow_result_usage
FNDA:1,_RNvNtNtCs7756PgZboGe_9smith_bus15publisher_tests5testss_26test_publisher_clone_trait
FNDA:1,_RNvNtNtCs7756PgZboGe_9smith_bus15publisher_tests5testss_27test_large_message_handling
FNDA:1,_RNvNtNtCs7756PgZboGe_9smith_bus15publisher_tests5testss_27test_raw_payload_variations
FNDA:1,_RNvNtNtCs7756PgZboGe_9smith_bus15publisher_tests5testss_29test_error_context_formatting
FNDA:1,_RNvNtNtCs7756PgZboGe_9smith_bus15publisher_tests5testss_29test_error_handling_scenarios
FNDA:1,_RNvNtNtCs7756PgZboGe_9smith_bus15publisher_tests5testss_29test_header_map_functionality
FNDA:1,_RNvNtNtCs7756PgZboGe_9smith_bus15publisher_tests5testss_29test_sequence_number_handling
FNDA:1,_RNvNtNtCs7756PgZboGe_9smith_bus15publisher_tests5testss_29test_serialization_edge_cases
FNDA:1,_RNvNtNtCs7756PgZboGe_9smith_bus15publisher_tests5testss_30test_header_map_special_values
FNDA:1,_RNvNtNtCs7756PgZboGe_9smith_bus15publisher_tests5testss_30test_subject_string_validation
FNDA:1,_RNvNtNtCs7756PgZboGe_9smith_bus15publisher_tests5testss_32test_message_serialization_basic
FNDA:1,_RNvNtNtCs7756PgZboGe_9smith_bus15publisher_tests5testss_32test_publisher_struct_properties
FNDA:1,_RNvNtNtCs7756PgZboGe_9smith_bus15publisher_tests5testss_32test_tracing_debug_compatibility
FNDA:1,_RNvNtNtCs7756PgZboGe_9smith_bus15publisher_tests5testss_33test_vector_and_map_serialization
FNDA:1,_RNvNtNtCs7756PgZboGe_9smith_bus15publisher_tests5testss_34test_message_serialization_complex
FNDA:1,_RNvNtNtCs7756PgZboGe_9smith_bus15publisher_tests5testss_34test_optional_fields_serialization
FNDA:1,_RNvNtNtCs7756PgZboGe_9smith_bus15publisher_tests5testss_36test_concurrent_serialization_safety
FNDA:1,_RNvNtNtCs7756PgZboGe_9smith_bus15publisher_tests5testss_37test_message_serialization_edge_cases
FNDA:1,_RNvNtNtCs7756PgZboGe_9smith_bus15publisher_tests5testss_46test_serialization_performance_characteristics
FNDA:1,_RNvNtNtCs7756PgZboGe_9smith_bus15publisher_tests5testss_50test_message_serialization_with_special_characters
FNDA:1,_RNvNvNtNtCs7756PgZboGe_9smith_bus15publisher_tests5testss_24test_anyhow_result_usage18test_context_usage
FNF:31
FNH:30
DA:20,10
DA:21,10
DA:22,10
DA:23,10
DA:24,10
DA:25,10
DA:26,10
DA:47,4
DA:48,4
DA:49,4
DA:50,4
DA:52,4
DA:53,4
DA:54,4
DA:55,4
DA:56,4
DA:57,4
DA:58,4
DA:59,4
DA:60,4
DA:61,4
DA:62,4
DA:63,4
DA:71,1
DA:72,1
DA:75,1
DA:76,1
DA:79,1
DA:80,1
DA:81,1
DA:82,1
DA:85,1
DA:86,1
DA:87,1
DA:90,1
DA:91,1
DA:94,1
DA:95,1
DA:98,1
DA:99,1
DA:100,1
DA:101,1
DA:102,1
DA:103,1
DA:104,1
DA:105,1
DA:106,1
DA:109,1
DA:110,1
DA:111,1
DA:114,1
DA:116,1
DA:117,1
DA:118,1
DA:121,1
DA:122,1
DA:123,1
DA:126,1
DA:127,1
DA:130,1
DA:131,1
DA:132,1
DA:133,1
DA:134,1
DA:137,1
DA:138,1
DA:139,1
DA:140,1
DA:144,1
DA:145,1
DA:148,1
DA:149,1
DA:150,1
DA:151,1
DA:152,1
DA:153,1
DA:156,1
DA:158,1
DA:159,1
DA:161,1
DA:162,1
DA:163,1
DA:166,1
DA:167,1
DA:168,1
DA:169,1
DA:172,1
DA:173,1
DA:174,1
DA:177,1
DA:178,1
DA:181,1
DA:182,1
DA:184,1
DA:185,1
DA:186,1
DA:187,1
DA:190,1
DA:191,1
DA:192,1
DA:193,1
DA:195,1
DA:196,1
DA:197,1
DA:199,1
DA:200,1
DA:201,1
DA:202,1
DA:203,1
DA:204,1
DA:205,1
DA:206,1
DA:207,1
DA:208,1
DA:211,1
DA:213,1
DA:214,1
DA:217,1
DA:218,1
DA:219,1
DA:221,1
DA:224,1
DA:225,1
DA:226,1
DA:229,1
DA:232,1
DA:233,1
DA:234,1
DA:237,1
DA:238,1
DA:241,1
DA:242,1
DA:243,1
DA:244,1
DA:245,1
DA:248,1
DA:249,1
DA:250,1
DA:251,1
DA:252,1
DA:253,1
DA:254,1
DA:257,1
DA:259,1
DA:261,1
DA:262,1
DA:263,1
DA:264,1
DA:265,1
DA:266,1
DA:267,1
DA:268,1
DA:271,10
DA:272,9
DA:273,9
DA:274,9
DA:277,9
DA:278,9
DA:280,1
DA:283,1
DA:285,1
DA:287,1
DA:290,1
DA:293,1
DA:294,1
DA:295,1
DA:296,1
DA:297,1
DA:300,1
DA:303,1
DA:306,1
DA:309,6
DA:311,6
DA:313,1
DA:315,5
DA:319,6
DA:320,6
DA:322,1
DA:325,1
DA:327,1
DA:328,1
DA:329,1
DA:330,1
DA:333,1
DA:334,1
DA:335,1
DA:340,1
DA:341,1
DA:342,1
DA:345,1
DA:346,1
DA:349,1
DA:350,1
DA:351,1
DA:352,1
DA:355,1
DA:360,1
DA:371,7
DA:372,6
DA:373,6
DA:377,1
DA:378,1001
DA:379,1000
DA:380,1000
DA:382,1
DA:383,1
DA:384,1
DA:385,1
DA:388,1
DA:407,0
DA:409,0
DA:412,0
DA:413,1
DA:416,1
DA:421,1
DA:422,1
DA:423,1
DA:424,1
DA:425,1
DA:427,1
DA:428,1
DA:429,1
DA:432,1
DA:436,1
DA:437,1
DA:440,1
DA:441,1
DA:443,1
DA:444,1
DA:445,1
DA:448,1
DA:450,1
DA:453,1
DA:454,1
DA:455,1
DA:458,1
DA:459,1
DA:462,1
DA:463,1
DA:464,1
DA:467,1
DA:471,1
DA:472,1
DA:473,1
DA:474,1
DA:476,1
DA:477,1
DA:478,1
DA:479,1
DA:480,1
DA:483,1
DA:485,1
DA:487,5
DA:488,4
DA:491,4
DA:492,4
DA:494,1
DA:497,1
DA:502,1
DA:503,1
DA:506,6
DA:507,5
DA:508,5
DA:509,5
DA:510,5
DA:511,5
DA:512,5
DA:513,5
DA:517,6
DA:518,5
DA:519,5
DA:520,5
DA:522,1
DA:525,1
DA:527,1
DA:530,1
DA:531,1
DA:534,1
DA:537,1
DA:538,1
DA:539,1
DA:542,1
DA:546,1
DA:547,1
DA:550,1
DA:551,1
DA:552,1
DA:555,1
DA:561,1
DA:562,1
DA:563,1
DA:570,1
DA:571,1
DA:572,1
DA:575,1
DA:576,1
DA:577,1
DA:578,1
DA:579,1
DA:580,1
DA:583,1
DA:585,1
DA:586,1
DA:589,1
DA:590,1
DA:593,1
DA:594,1
DA:595,1
DA:596,1
BRF:0
BRH:0
LF:311
LH:308
end_of_record
SF:/home/nathan/Projects/smith/shared/smith-bus/src/sharding.rs
FN:24,_RNvMNtCs7756PgZboGe_9smith_bus8shardingNtB2_9EpisodeId12with_project
FN:363,_RNvNtNtCs7756PgZboGe_9smith_bus8sharding5testss_23test_consumer_optimizer
FN:304,_RNvNtNtCs7756PgZboGe_9smith_bus8sharding5testss_24test_episode_id_sharding
FN:346,_RNvNtNtCs7756PgZboGe_9smith_bus8sharding5testss_25test_backpressure_manager
FN:320,_RNvNtNtCs7756PgZboGe_9smith_bus8sharding5testss_28test_sharded_subject_builder
FN:331,_RNvNtNtCs7756PgZboGe_9smith_bus8sharding5testss_33test_consumer_config_optimization
FN:32,_RNvMNtCs7756PgZboGe_9smith_bus8shardingNtB2_9EpisodeId17to_subject_suffix
FN:20,_RNvMNtCs7756PgZboGe_9smith_bus8shardingNtB2_9EpisodeId3new
FN:130,_RNvMs1_NtCs7756PgZboGe_9smith_bus8shardingNtB5_23OptimizedConsumerConfig11for_fs_read
FN:164,_RNvMs1_NtCs7756PgZboGe_9smith_bus8shardingNtB5_23OptimizedConsumerConfig13for_admission
FN:147,_RNvMs1_NtCs7756PgZboGe_9smith_bus8shardingNtB5_23OptimizedConsumerConfig14for_http_fetch
FN:225,_RNvMs3_NtCs7756PgZboGe_9smith_bus8shardingNtB5_19BackpressureManager25should_apply_backpressure
FN:230,_RNvMs3_NtCs7756PgZboGe_9smith_bus8shardingNtB5_19BackpressureManager30generate_backpressure_response
FN:260,_RNvMs4_NtCs7756PgZboGe_9smith_bus8shardingNtB5_17ConsumerOptimizer20calculate_batch_size
FN:279,_RNvMs4_NtCs7756PgZboGe_9smith_bus8shardingNtB5_17ConsumerOptimizer24optimize_consumer_config
FN:248,_RNvMs4_NtCs7756PgZboGe_9smith_bus8shardingNtB5_17ConsumerOptimizer25calculate_max_ack_pending
FN:57,_RNvMs_NtCs7756PgZboGe_9smith_bus8shardingNtB4_21ShardedSubjectBuilder12with_episode
FN:50,_RNvMs_NtCs7756PgZboGe_9smith_bus8shardingNtB4_21ShardedSubjectBuilder3new
FN:63,_RNvMs_NtCs7756PgZboGe_9smith_bus8shardingNtB4_21ShardedSubjectBuilder5build
FN:111,_RNvXs0_NtCs7756PgZboGe_9smith_bus8shardingNtB5_23OptimizedConsumerConfigNtNtCs66KPHxksi63_4core7default7Default7default
FN:210,_RNvXs2_NtCs7756PgZboGe_9smith_bus8shardingNtB5_19BackpressureManagerNtNtCs66KPHxksi63_4core7default7Default7default
FNDA:0,_RNvMNtCs7756PgZboGe_9smith_bus8shardingNtB2_9EpisodeId12with_project
FNDA:1,_RNvNtNtCs7756PgZboGe_9smith_bus8sharding5testss_23test_consumer_optimizer
FNDA:1,_RNvNtNtCs7756PgZboGe_9smith_bus8sharding5testss_24test_episode_id_sharding
FNDA:1,_RNvNtNtCs7756PgZboGe_9smith_bus8sharding5testss_25test_backpressure_manager
FNDA:1,_RNvNtNtCs7756PgZboGe_9smith_bus8sharding5testss_28test_sharded_subject_builder
FNDA:1,_RNvNtNtCs7756PgZboGe_9smith_bus8sharding5testss_33test_consumer_config_optimization
FNDA:5,_RNvMNtCs7756PgZboGe_9smith_bus8shardingNtB2_9EpisodeId17to_subject_suffix
FNDA:4,_RNvMNtCs7756PgZboGe_9smith_bus8shardingNtB2_9EpisodeId3new
FNDA:2,_RNvMs1_NtCs7756PgZboGe_9smith_bus8shardingNtB5_23OptimizedConsumerConfig11for_fs_read
FNDA:1,_RNvMs1_NtCs7756PgZboGe_9smith_bus8shardingNtB5_23OptimizedConsumerConfig13for_admission
FNDA:1,_RNvMs1_NtCs7756PgZboGe_9smith_bus8shardingNtB5_23OptimizedConsumerConfig14for_http_fetch
FNDA:15,_RNvMs3_NtCs7756PgZboGe_9smith_bus8shardingNtB5_19BackpressureManager25should_apply_backpressure
FNDA:6,_RNvMs3_NtCs7756PgZboGe_9smith_bus8shardingNtB5_19BackpressureManager30generate_backpressure_response
FNDA:3,_RNvMs4_NtCs7756PgZboGe_9smith_bus8shardingNtB5_17ConsumerOptimizer20calculate_batch_size
FNDA:1,_RNvMs4_NtCs7756PgZboGe_9smith_bus8shardingNtB5_17ConsumerOptimizer24optimize_consumer_config
FNDA:3,_RNvMs4_NtCs7756PgZboGe_9smith_bus8shardingNtB5_17ConsumerOptimizer25calculate_max_ack_pending
FNDA:1,_RNvMs_NtCs7756PgZboGe_9smith_bus8shardingNtB4_21ShardedSubjectBuilder12with_episode
FNDA:1,_RNvMs_NtCs7756PgZboGe_9smith_bus8shardingNtB4_21ShardedSubjectBuilder3new
FNDA:1,_RNvMs_NtCs7756PgZboGe_9smith_bus8shardingNtB4_21ShardedSubjectBuilder5build
FNDA:0,_RNvXs0_NtCs7756PgZboGe_9smith_bus8shardingNtB5_23OptimizedConsumerConfigNtNtCs66KPHxksi63_4core7default7Default7default
FNDA:2,_RNvXs2_NtCs7756PgZboGe_9smith_bus8shardingNtB5_19BackpressureManagerNtNtCs66KPHxksi63_4core7default7Default7default
FNF:21
FNH:19
DA:20,4
DA:21,4
DA:22,4
DA:24,0
DA:25,0
DA:26,0
DA:27,0
DA:28,0
DA:29,0
DA:32,5
DA:33,5
DA:34,5
DA:35,5
DA:38,5
DA:39,5
DA:40,5
DA:50,1
DA:51,1
DA:52,1
DA:53,1
DA:54,1
DA:55,1
DA:57,1
DA:58,1
DA:59,1
DA:60,1
DA:63,1
DA:64,1
DA:65,1
DA:66,1
DA:68,0
DA:70,1
DA:111,0
DA:112,0
DA:113,0
DA:114,0
DA:115,0
DA:116,0
DA:117,0
DA:118,0
DA:119,0
DA:120,0
DA:121,0
DA:122,0
DA:123,0
DA:124,0
DA:125,0
DA:130,2
DA:131,2
DA:132,2
DA:133,2
DA:134,2
DA:135,2
DA:136,2
DA:137,2
DA:138,2
DA:139,2
DA:140,2
DA:141,2
DA:142,2
DA:143,2
DA:144,2
DA:147,1
DA:148,1
DA:149,1
DA:150,1
DA:151,1
DA:152,1
DA:153,1
DA:154,1
DA:155,1
DA:156,1
DA:157,1
DA:158,1
DA:159,1
DA:160,1
DA:161,1
DA:164,1
DA:165,1
DA:166,1
DA:167,1
DA:168,1
DA:169,1
DA:170,1
DA:171,1
DA:172,1
DA:173,1
DA:174,1
DA:175,1
DA:176,1
DA:177,1
DA:178,1
DA:210,2
DA:211,2
DA:212,2
DA:213,2
DA:214,2
DA:215,2
DA:216,2
DA:217,2
DA:218,2
DA:219,2
DA:220,2
DA:225,15
DA:226,15
DA:227,15
DA:230,6
DA:231,6
DA:232,6
DA:233,6
DA:234,6
DA:235,6
DA:236,4
DA:238,2
DA:240,6
DA:248,3
DA:249,3
DA:250,3
DA:251,1
DA:252,0
DA:253,0
DA:256,3
DA:257,3
DA:260,3
DA:261,3
DA:262,3
DA:263,1
DA:264,0
DA:265,0
DA:269,3
DA:270,2
DA:271,1
DA:272,1
DA:274,0
DA:276,3
DA:279,1
DA:280,1
DA:281,1
DA:282,1
DA:283,1
DA:284,1
DA:285,1
DA:286,0
DA:287,0
DA:288,0
DA:291,1
DA:292,1
DA:293,1
DA:294,1
DA:295,1
DA:296,1
DA:304,1
DA:305,1
DA:306,1
DA:308,1
DA:309,1
DA:312,1
DA:315,1
DA:316,1
DA:317,1
DA:320,1
DA:321,1
DA:322,1
DA:323,1
DA:324,1
DA:326,1
DA:327,1
DA:328,1
DA:331,1
DA:332,1
DA:333,1
DA:334,1
DA:336,1
DA:337,1
DA:338,1
DA:340,1
DA:341,1
DA:342,1
DA:343,1
DA:346,1
DA:347,1
DA:350,1
DA:353,1
DA:356,1
DA:359,1
DA:360,1
DA:363,1
DA:365,1
DA:366,1
DA:368,1
DA:369,1
DA:372,1
DA:373,1
DA:375,1
DA:376,1
DA:379,1
DA:380,1
DA:381,1
DA:382,1
BRF:0
BRH:0
LF:199
LH:169
end_of_record
SF:/home/nathan/Projects/smith/shared/smith-bus/src/smith_bus_tests.rs
FN:23,_RNvMNtNtCs7756PgZboGe_9smith_bus15smith_bus_tests5testsNtB2_19SmithBusTestMessage3new
FN:32,_RNvMNtNtCs7756PgZboGe_9smith_bus15smith_bus_tests5testsNtB2_19SmithBusTestMessage9with_data
FN:113,_RNvNtNtCs7756PgZboGe_9smith_bus15smith_bus_tests5testss_26test_smith_bus_result_type
FN:332,_RNvNtNtCs7756PgZboGe_9smith_bus15smith_bus_tests5testss_27test_configuration_defaults
FN:219,_RNvNtNtCs7756PgZboGe_9smith_bus15smith_bus_tests5testss_28test_connection_url_patterns
FN:275,_RNvNtNtCs7756PgZboGe_9smith_bus15smith_bus_tests5testss_28test_error_handling_patterns
FN:90,_RNvNtNtCs7756PgZboGe_9smith_bus15smith_bus_tests5testss_29test_health_status_partial_eq
FN:410,_RNvNtNtCs7756PgZboGe_9smith_bus15smith_bus_tests5testss_30test_message_metadata_patterns
FN:158,_RNvNtNtCs7756PgZboGe_9smith_bus15smith_bus_tests5testss_30test_message_with_complex_data
FN:371,_RNvNtNtCs7756PgZboGe_9smith_bus15smith_bus_tests5testss_30test_stream_and_consumer_names
FN:306,_RNvNtNtCs7756PgZboGe_9smith_bus15smith_bus_tests5testss_30test_timeout_duration_handling
FN:246,_RNvNtNtCs7756PgZboGe_9smith_bus15smith_bus_tests5testss_31test_subject_pattern_validation
FN:43,_RNvNtNtCs7756PgZboGe_9smith_bus15smith_bus_tests5testss_32test_health_status_comprehensive
FN:441,_RNvNtNtCs7756PgZboGe_9smith_bus15smith_bus_tests5testss_33test_performance_metrics_tracking
FN:71,_RNvNtNtCs7756PgZboGe_9smith_bus15smith_bus_tests5testss_34test_health_status_debug_and_clone
FN:190,_RNvNtNtCs7756PgZboGe_9smith_bus15smith_bus_tests5testss_37test_message_serialization_edge_cases
FN:137,_RNvNtNtCs7756PgZboGe_9smith_bus15smith_bus_tests5testss_40test_message_serialization_for_smith_bus
FN:119,_RNvNvNtNtCs7756PgZboGe_9smith_bus15smith_bus_tests5testss_26test_smith_bus_result_type19create_error_result
FN:115,_RNvNvNtNtCs7756PgZboGe_9smith_bus15smith_bus_tests5testss_26test_smith_bus_result_type21create_success_result
FN:284,_RNvNvNtNtCs7756PgZboGe_9smith_bus15smith_bus_tests5testss_28test_error_handling_patterns22simulate_timeout_error
FN:279,_RNvNvNtNtCs7756PgZboGe_9smith_bus15smith_bus_tests5testss_28test_error_handling_patterns25simulate_connection_error
FN:289,_RNvNvNtNtCs7756PgZboGe_9smith_bus15smith_bus_tests5testss_28test_error_handling_patterns28simulate_serialization_error
FN:343,_RNvXNvNtNtCs7756PgZboGe_9smith_bus15smith_bus_tests5testss_27test_configuration_defaultsNtB2_18MockSmithBusConfigNtNtCs66KPHxksi63_4core7default7Default7default
FN:392,_RNCNvNtNtCs7756PgZboGe_9smith_bus15smith_bus_tests5testss_30test_stream_and_consumer_names0B7_
FN:400,_RNCNvNtNtCs7756PgZboGe_9smith_bus15smith_bus_tests5testss_30test_stream_and_consumer_namess_0B7_
FNDA:2,_RNvMNtNtCs7756PgZboGe_9smith_bus15smith_bus_tests5testsNtB2_19SmithBusTestMessage3new
FNDA:3,_RNvMNtNtCs7756PgZboGe_9smith_bus15smith_bus_tests5testsNtB2_19SmithBusTestMessage9with_data
FNDA:1,_RNvNtNtCs7756PgZboGe_9smith_bus15smith_bus_tests5testss_26test_smith_bus_result_type
FNDA:1,_RNvNtNtCs7756PgZboGe_9smith_bus15smith_bus_tests5testss_27test_configuration_defaults
FNDA:1,_RNvNtNtCs7756PgZboGe_9smith_bus15smith_bus_tests5testss_28test_connection_url_patterns
FNDA:1,_RNvNtNtCs7756PgZboGe_9smith_bus15smith_bus_tests5testss_28test_error_handling_patterns
FNDA:1,_RNvNtNtCs7756PgZboGe_9smith_bus15smith_bus_tests5testss_29test_health_status_partial_eq
FNDA:1,_RNvNtNtCs7756PgZboGe_9smith_bus15smith_bus_tests5testss_30test_message_metadata_patterns
FNDA:1,_RNvNtNtCs7756PgZboGe_9smith_bus15smith_bus_tests5testss_30test_message_with_complex_data
FNDA:1,_RNvNtNtCs7756PgZboGe_9smith_bus15smith_bus_tests5testss_30test_stream_and_consumer_names
FNDA:1,_RNvNtNtCs7756PgZboGe_9smith_bus15smith_bus_tests5testss_30test_timeout_duration_handling
FNDA:1,_RNvNtNtCs7756PgZboGe_9smith_bus15smith_bus_tests5testss_31test_subject_pattern_validation
FNDA:1,_RNvNtNtCs7756PgZboGe_9smith_bus15smith_bus_tests5testss_32test_health_status_comprehensive
FNDA:1,_RNvNtNtCs7756PgZboGe_9smith_bus15smith_bus_tests5testss_33test_performance_metrics_tracking
FNDA:1,_RNvNtNtCs7756PgZboGe_9smith_bus15smith_bus_tests5testss_34test_health_status_debug_and_clone
FNDA:1,_RNvNtNtCs7756PgZboGe_9smith_bus15smith_bus_tests5testss_37test_message_serialization_edge_cases
FNDA:1,_RNvNtNtCs7756PgZboGe_9smith_bus15smith_bus_tests5testss_40test_message_serialization_for_smith_bus
FNDA:1,_RNvNvNtNtCs7756PgZboGe_9smith_bus15smith_bus_tests5testss_26test_smith_bus_result_type19create_error_result
FNDA:1,_RNvNvNtNtCs7756PgZboGe_9smith_bus15smith_bus_tests5testss_26test_smith_bus_result_type21create_success_result
FNDA:1,_RNvNvNtNtCs7756PgZboGe_9smith_bus15smith_bus_tests5testss_28test_error_handling_patterns22simulate_timeout_error
FNDA:2,_RNvNvNtNtCs7756PgZboGe_9smith_bus15smith_bus_tests5testss_28test_error_handling_patterns25simulate_connection_error
FNDA:1,_RNvNvNtNtCs7756PgZboGe_9smith_bus15smith_bus_tests5testss_28test_error_handling_patterns28simulate_serialization_error
FNDA:1,_RNvXNvNtNtCs7756PgZboGe_9smith_bus15smith_bus_tests5testss_27test_configuration_defaultsNtB2_18MockSmithBusConfigNtNtCs66KPHxksi63_4core7default7Default7default
FNDA:75,_RNCNvNtNtCs7756PgZboGe_9smith_bus15smith_bus_tests5testss_30test_stream_and_consumer_names0B7_
FNDA:90,_RNCNvNtNtCs7756PgZboGe_9smith_bus15smith_bus_tests5testss_30test_stream_and_consumer_namess_0B7_
FNF:25
FNH:25
DA:23,2
DA:24,2
DA:25,2
DA:26,2
DA:27,2
DA:28,2
DA:29,2
DA:30,2
DA:32,3
DA:33,3
DA:34,3
DA:35,3
DA:36,3
DA:37,3
DA:38,3
DA:39,3
DA:43,1
DA:45,1
DA:46,1
DA:47,1
DA:48,1
DA:49,1
DA:51,1
DA:52,1
DA:53,1
DA:54,1
DA:55,1
DA:57,1
DA:58,1
DA:59,1
DA:60,1
DA:61,1
DA:63,1
DA:64,1
DA:65,1
DA:66,1
DA:67,1
DA:68,1
DA:71,1
DA:72,1
DA:73,1
DA:74,1
DA:75,1
DA:78,1
DA:79,1
DA:80,1
DA:83,1
DA:84,1
DA:85,1
DA:86,1
DA:87,1
DA:90,1
DA:91,1
DA:92,1
DA:93,1
DA:94,1
DA:96,1
DA:97,1
DA:98,1
DA:99,1
DA:101,1
DA:102,1
DA:103,1
DA:104,1
DA:107,1
DA:108,1
DA:109,1
DA:110,1
DA:113,1
DA:115,1
DA:116,1
DA:117,1
DA:119,1
DA:120,1
DA:121,1
DA:124,1
DA:125,1
DA:126,0
DA:130,1
DA:131,0
DA:132,1
DA:134,1
DA:137,1
DA:138,1
DA:141,1
DA:142,1
DA:145,1
DA:146,1
DA:147,1
DA:148,1
DA:149,1
DA:150,1
DA:153,1
DA:154,1
DA:155,1
DA:158,1
DA:159,1
DA:160,1
DA:161,1
DA:162,1
DA:163,1
DA:165,1
DA:166,1
DA:167,1
DA:171,1
DA:174,1
DA:175,1
DA:178,1
DA:179,1
DA:180,1
DA:181,1
DA:182,1
DA:185,1
DA:186,1
DA:187,1
DA:190,1
DA:192,1
DA:193,1
DA:194,1
DA:195,1
DA:196,1
DA:199,1
DA:200,1
DA:201,1
DA:202,1
DA:204,1
DA:205,1
DA:206,1
DA:209,1
DA:210,1
DA:211,1
DA:213,1
DA:214,1
DA:215,1
DA:216,1
DA:219,1
DA:221,1
DA:223,1
DA:224,1
DA:225,1
DA:226,1
DA:227,1
DA:228,1
DA:231,8
DA:233,7
DA:234,7
DA:235,7
DA:238,7
DA:239,7
DA:240,7
DA:241,7
DA:243,1
DA:246,1
DA:248,1
DA:250,1
DA:251,1
DA:252,1
DA:253,1
DA:254,1
DA:255,1
DA:258,8
DA:260,7
DA:261,7
DA:262,7
DA:265,7
DA:266,7
DA:268,30
DA:269,23
DA:272,1
DA:275,1
DA:279,2
DA:280,2
DA:281,2
DA:284,1
DA:285,1
DA:286,1
DA:289,1
DA:290,1
DA:291,1
DA:294,1
DA:295,1
DA:296,1
DA:299,1
DA:300,1
DA:301,0
DA:303,1
DA:306,1
DA:308,1
DA:309,1
DA:310,1
DA:311,1
DA:312,1
DA:313,1
DA:314,1
DA:317,7
DA:319,6
DA:320,6
DA:323,6
DA:324,6
DA:327,6
DA:329,1
DA:332,1
DA:343,1
DA:344,1
DA:345,1
DA:346,1
DA:347,1
DA:348,1
DA:349,1
DA:350,1
DA:351,1
DA:354,1
DA:357,1
DA:358,1
DA:359,1
DA:360,1
DA:361,1
DA:364,1
DA:365,1
DA:366,1
DA:367,1
DA:368,1
DA:371,1
DA:373,1
DA:375,1
DA:376,1
DA:377,1
DA:378,1
DA:381,1
DA:383,1
DA:384,1
DA:385,1
DA:386,1
DA:390,6
DA:391,5
DA:392,75
DA:393,5
DA:394,5
DA:398,6
DA:399,5
DA:400,90
DA:401,5
DA:402,5
DA:405,5
DA:407,1
DA:410,1
DA:412,1
DA:413,1
DA:414,1
DA:415,1
DA:416,1
DA:417,1
DA:420,1
DA:421,1
DA:422,1
DA:423,1
DA:424,1
DA:425,1
DA:428,1
DA:429,1
DA:430,1
DA:431,1
DA:432,1
DA:435,1
DA:436,1
DA:437,1
DA:438,1
DA:441,1
DA:452,1
DA:453,1
DA:454,1
DA:455,1
DA:456,1
DA:457,1
DA:458,1
DA:461,101
DA:462,100
DA:463,100
DA:465,100
DA:466,10
DA:467,10
DA:468,90
DA:470,100
DA:471,4
DA:472,96
DA:476,1
DA:477,1
DA:478,1
DA:479,1
DA:480,1
DA:483,1
DA:484,1
DA:486,1
DA:487,1
DA:488,1
DA:489,1
BRF:0
BRH:0
LF:298
LH:295
end_of_record
SF:/home/nathan/Projects/smith/shared/smith-bus/src/streams.rs
FN:354,_RNCNCNvMNtCs7756PgZboGe_9smith_bus7streamsNtB6_13StreamManager13delete_stream00B8_
FN:275,_RNCNCNvMNtCs7756PgZboGe_9smith_bus7streamsNtB6_13StreamManager23create_or_update_stream00B8_
FN:290,_RNCNCNvMNtCs7756PgZboGe_9smith_bus7streamsNtB6_13StreamManager23create_or_update_stream0s_0B8_
FN:348,_RNCNvMNtCs7756PgZboGe_9smith_bus7streamsNtB4_13StreamManager13delete_stream0B6_
FN:310,_RNCNvMNtCs7756PgZboGe_9smith_bus7streamsNtB4_13StreamManager16get_streams_info0B6_
FN:17,_RNCNvMNtCs7756PgZboGe_9smith_bus7streamsNtB4_13StreamManager17bootstrap_streams0B6_
FN:208,_RNCNvMNtCs7756PgZboGe_9smith_bus7streamsNtB4_13StreamManager19ensure_audit_stream0B6_
FN:134,_RNCNvMNtCs7756PgZboGe_9smith_bus7streamsNtB4_13StreamManager20ensure_audit_streams0B6_
FN:182,_RNCNvMNtCs7756PgZboGe_9smith_bus7streamsNtB4_13StreamManager21ensure_results_stream0B6_
FN:46,_RNCNvMNtCs7756PgZboGe_9smith_bus7streamsNtB4_13StreamManager22ensure_sdlc_raw_stream0B6_
FN:260,_RNCNvMNtCs7756PgZboGe_9smith_bus7streamsNtB4_13StreamManager23create_or_update_stream0B6_
FN:76,_RNCNvMNtCs7756PgZboGe_9smith_bus7streamsNtB4_13StreamManager26ensure_atoms_vetted_stream0B6_
FN:106,_RNCNvMNtCs7756PgZboGe_9smith_bus7streamsNtB4_13StreamManager27ensure_atoms_results_stream0B6_
FN:158,_RNCNvMNtCs7756PgZboGe_9smith_bus7streamsNtB4_13StreamManager27ensure_backpressure_streams0B6_
FN:234,_RNCNvMNtCs7756PgZboGe_9smith_bus7streamsNtB4_13StreamManager27ensure_system_events_stream0B6_
FN:348,_RNvMNtCs7756PgZboGe_9smith_bus7streamsNtB2_13StreamManager13delete_stream
FN:299,_RNvMNtCs7756PgZboGe_9smith_bus7streamsNtB2_13StreamManager14configs_differ
FN:310,_RNvMNtCs7756PgZboGe_9smith_bus7streamsNtB2_13StreamManager16get_streams_info
FN:17,_RNvMNtCs7756PgZboGe_9smith_bus7streamsNtB2_13StreamManager17bootstrap_streams
FN:208,_RNvMNtCs7756PgZboGe_9smith_bus7streamsNtB2_13StreamManager19ensure_audit_stream
FN:134,_RNvMNtCs7756PgZboGe_9smith_bus7streamsNtB2_13StreamManager20ensure_audit_streams
FN:182,_RNvMNtCs7756PgZboGe_9smith_bus7streamsNtB2_13StreamManager21ensure_results_stream
FN:46,_RNvMNtCs7756PgZboGe_9smith_bus7streamsNtB2_13StreamManager22ensure_sdlc_raw_stream
FN:260,_RNvMNtCs7756PgZboGe_9smith_bus7streamsNtB2_13StreamManager23create_or_update_stream
FN:76,_RNvMNtCs7756PgZboGe_9smith_bus7streamsNtB2_13StreamManager26ensure_atoms_vetted_stream
FN:106,_RNvMNtCs7756PgZboGe_9smith_bus7streamsNtB2_13StreamManager27ensure_atoms_results_stream
FN:158,_RNvMNtCs7756PgZboGe_9smith_bus7streamsNtB2_13StreamManager27ensure_backpressure_streams
FN:234,_RNvMNtCs7756PgZboGe_9smith_bus7streamsNtB2_13StreamManager27ensure_system_events_stream
FN:12,_RNvMNtCs7756PgZboGe_9smith_bus7streamsNtB2_13StreamManager3new
FN:407,_RNvNtNtCs7756PgZboGe_9smith_bus7streams5testss_23test_stream_info_health
FN:436,_RNvNtNtCs7756PgZboGe_9smith_bus7streams5testss_23test_stream_utilization
FN:453,_RNvNtNtCs7756PgZboGe_9smith_bus7streams5testss_24test_non_existent_stream
FN:384,_RNvMs_NtCs7756PgZboGe_9smith_bus7streamsNtB4_10StreamInfo10is_healthy
FN:389,_RNvMs_NtCs7756PgZboGe_9smith_bus7streamsNtB4_10StreamInfo19utilization_percent
FNDA:0,_RNCNCNvMNtCs7756PgZboGe_9smith_bus7streamsNtB6_13StreamManager13delete_stream00B8_
FNDA:0,_RNCNCNvMNtCs7756PgZboGe_9smith_bus7streamsNtB6_13StreamManager23create_or_update_stream00B8_
FNDA:0,_RNCNCNvMNtCs7756PgZboGe_9smith_bus7streamsNtB6_13StreamManager23create_or_update_stream0s_0B8_
FNDA:0,_RNCNvMNtCs7756PgZboGe_9smith_bus7streamsNtB4_13StreamManager13delete_stream0B6_
FNDA:0,_RNCNvMNtCs7756PgZboGe_9smith_bus7streamsNtB4_13StreamManager16get_streams_info0B6_
FNDA:0,_RNCNvMNtCs7756PgZboGe_9smith_bus7streamsNtB4_13StreamManager17bootstrap_streams0B6_
FNDA:0,_RNCNvMNtCs7756PgZboGe_9smith_bus7streamsNtB4_13StreamManager19ensure_audit_stream0B6_
FNDA:0,_RNCNvMNtCs7756PgZboGe_9smith_bus7streamsNtB4_13StreamManager20ensure_audit_streams0B6_
FNDA:0,_RNCNvMNtCs7756PgZboGe_9smith_bus7streamsNtB4_13StreamManager21ensure_results_stream0B6_
FNDA:0,_RNCNvMNtCs7756PgZboGe_9smith_bus7streamsNtB4_13StreamManager22ensure_sdlc_raw_stream0B6_
FNDA:0,_RNCNvMNtCs7756PgZboGe_9smith_bus7streamsNtB4_13StreamManager23create_or_update_stream0B6_
FNDA:0,_RNCNvMNtCs7756PgZboGe_9smith_bus7streamsNtB4_13StreamManager26ensure_atoms_vetted_stream0B6_
FNDA:0,_RNCNvMNtCs7756PgZboGe_9smith_bus7streamsNtB4_13StreamManager27ensure_atoms_results_stream0B6_
FNDA:0,_RNCNvMNtCs7756PgZboGe_9smith_bus7streamsNtB4_13StreamManager27ensure_backpressure_streams0B6_
FNDA:0,_RNCNvMNtCs7756PgZboGe_9smith_bus7streamsNtB4_13StreamManager27ensure_system_events_stream0B6_
FNDA:0,_RNvMNtCs7756PgZboGe_9smith_bus7streamsNtB2_13StreamManager13delete_stream
FNDA:0,_RNvMNtCs7756PgZboGe_9smith_bus7streamsNtB2_13StreamManager14configs_differ
FNDA:0,_RNvMNtCs7756PgZboGe_9smith_bus7streamsNtB2_13StreamManager16get_streams_info
FNDA:0,_RNvMNtCs7756PgZboGe_9smith_bus7streamsNtB2_13StreamManager17bootstrap_streams
FNDA:0,_RNvMNtCs7756PgZboGe_9smith_bus7streamsNtB2_13StreamManager19ensure_audit_stream
FNDA:0,_RNvMNtCs7756PgZboGe_9smith_bus7streamsNtB2_13StreamManager20ensure_audit_streams
FNDA:0,_RNvMNtCs7756PgZboGe_9smith_bus7streamsNtB2_13StreamManager21ensure_results_stream
FNDA:0,_RNvMNtCs7756PgZboGe_9smith_bus7streamsNtB2_13StreamManager22ensure_sdlc_raw_stream
FNDA:0,_RNvMNtCs7756PgZboGe_9smith_bus7streamsNtB2_13StreamManager23create_or_update_stream
FNDA:0,_RNvMNtCs7756PgZboGe_9smith_bus7streamsNtB2_13StreamManager26ensure_atoms_vetted_stream
FNDA:0,_RNvMNtCs7756PgZboGe_9smith_bus7streamsNtB2_13StreamManager27ensure_atoms_results_stream
FNDA:0,_RNvMNtCs7756PgZboGe_9smith_bus7streamsNtB2_13StreamManager27ensure_backpressure_streams
FNDA:0,_RNvMNtCs7756PgZboGe_9smith_bus7streamsNtB2_13StreamManager27ensure_system_events_stream
FNDA:0,_RNvMNtCs7756PgZboGe_9smith_bus7streamsNtB2_13StreamManager3new
FNDA:1,_RNvNtNtCs7756PgZboGe_9smith_bus7streams5testss_23test_stream_info_health
FNDA:1,_RNvNtNtCs7756PgZboGe_9smith_bus7streams5testss_23test_stream_utilization
FNDA:1,_RNvNtNtCs7756PgZboGe_9smith_bus7streams5testss_24test_non_existent_stream
FNDA:23,_RNvMs_NtCs7756PgZboGe_9smith_bus7streamsNtB4_10StreamInfo10is_healthy
FNDA:9,_RNvMs_NtCs7756PgZboGe_9smith_bus7streamsNtB4_10StreamInfo19utilization_percent
FNF:34
FNH:5
DA:12,0
DA:13,0
DA:14,0
DA:17,0
DA:18,0
DA:21,0
DA:22,0
DA:23,0
DA:25,0
DA:26,0
DA:27,0
DA:29,0
DA:30,0
DA:31,0
DA:33,0
DA:34,0
DA:35,0
DA:37,0
DA:38,0
DA:39,0
DA:41,0
DA:42,0
DA:43,0
DA:46,0
DA:47,0
DA:48,0
DA:49,0
DA:52,0
DA:53,0
DA:54,0
DA:55,0
DA:56,0
DA:57,0
DA:58,0
DA:59,0
DA:60,0
DA:61,0
DA:62,0
DA:63,0
DA:64,0
DA:65,0
DA:66,0
DA:67,0
DA:68,0
DA:70,0
DA:71,0
DA:72,0
DA:73,0
DA:76,0
DA:77,0
DA:78,0
DA:79,0
DA:82,0
DA:83,0
DA:84,0
DA:85,0
DA:86,0
DA:87,0
DA:88,0
DA:89,0
DA:90,0
DA:91,0
DA:92,0
DA:93,0
DA:94,0
DA:95,0
DA:96,0
DA:97,0
DA:98,0
DA:100,0
DA:101,0
DA:102,0
DA:103,0
DA:106,0
DA:107,0
DA:108,0
DA:109,0
DA:112,0
DA:113,0
DA:114,0
DA:115,0
DA:116,0
DA:117,0
DA:118,0
DA:119,0
DA:120,0
DA:121,0
DA:122,0
DA:123,0
DA:124,0
DA:125,0
DA:126,0
DA:128,0
DA:129,0
DA:130,0
DA:131,0
DA:134,0
DA:136,0
DA:137,0
DA:138,0
DA:139,0
DA:140,0
DA:141,0
DA:142,0
DA:143,0
DA:144,0
DA:145,0
DA:146,0
DA:147,0
DA:148,0
DA:149,0
DA:150,0
DA:152,0
DA:153,0
DA:154,0
DA:155,0
DA:158,0
DA:160,0
DA:161,0
DA:162,0
DA:163,0
DA:164,0
DA:165,0
DA:166,0
DA:167,0
DA:168,0
DA:169,0
DA:170,0
DA:171,0
DA:172,0
DA:173,0
DA:174,0
DA:176,0
DA:177,0
DA:178,0
DA:179,0
DA:182,0
DA:183,0
DA:184,0
DA:186,0
DA:187,0
DA:188,0
DA:189,0
DA:190,0
DA:191,0
DA:192,0
DA:193,0
DA:194,0
DA:195,0
DA:196,0
DA:197,0
DA:198,0
DA:199,0
DA:200,0
DA:202,0
DA:203,0
DA:204,0
DA:205,0
DA:208,0
DA:209,0
DA:210,0
DA:212,0
DA:213,0
DA:214,0
DA:215,0
DA:216,0
DA:217,0
DA:218,0
DA:219,0
DA:220,0
DA:221,0
DA:222,0
DA:223,0
DA:224,0
DA:225,0
DA:226,0
DA:228,0
DA:229,0
DA:230,0
DA:231,0
DA:234,0
DA:235,0
DA:236,0
DA:238,0
DA:239,0
DA:240,0
DA:241,0
DA:242,0
DA:243,0
DA:244,0
DA:245,0
DA:246,0
DA:247,0
DA:248,0
DA:249,0
DA:250,0
DA:251,0
DA:252,0
DA:254,0
DA:255,0
DA:256,0
DA:257,0
DA:260,0
DA:261,0
DA:263,0
DA:265,0
DA:266,0
DA:268,0
DA:270,0
DA:271,0
DA:272,0
DA:273,0
DA:274,0
DA:275,0
DA:276,0
DA:278,0
DA:279,0
DA:286,0
DA:287,0
DA:288,0
DA:289,0
DA:290,0
DA:291,0
DA:295,0
DA:296,0
DA:299,0
DA:301,0
DA:302,0
DA:303,0
DA:304,0
DA:305,0
DA:306,0
DA:307,0
DA:310,0
DA:311,0
DA:312,0
DA:314,0
DA:315,0
DA:316,0
DA:317,0
DA:318,0
DA:319,0
DA:320,0
DA:321,0
DA:322,0
DA:323,0
DA:324,0
DA:325,0
DA:326,0
DA:327,0
DA:329,0
DA:330,0
DA:331,0
DA:332,0
DA:333,0
DA:334,0
DA:335,0
DA:336,0
DA:337,0
DA:338,0
DA:339,0
DA:340,0
DA:344,0
DA:345,0
DA:348,0
DA:349,0
DA:351,0
DA:352,0
DA:353,0
DA:354,0
DA:356,0
DA:357,0
DA:358,0
DA:384,23
DA:385,23
DA:386,23
DA:389,9
DA:390,9
DA:391,2
DA:392,7
DA:395,7
DA:396,7
DA:398,7
DA:399,9
DA:407,1
DA:408,1
DA:409,1
DA:410,1
DA:411,1
DA:412,1
DA:413,1
DA:414,1
DA:415,1
DA:416,1
DA:417,1
DA:419,1
DA:421,1
DA:422,1
DA:423,1
DA:424,1
DA:425,1
DA:426,1
DA:427,1
DA:428,1
DA:429,1
DA:430,1
DA:432,1
DA:433,1
DA:436,1
DA:437,1
DA:438,1
DA:439,1
DA:440,1
DA:441,1
DA:442,1
DA:443,1
DA:444,1
DA:445,1
DA:446,1
DA:448,1
DA:449,1
DA:450,1
DA:453,1
DA:454,1
DA:455,1
DA:456,1
DA:457,1
DA:458,1
DA:459,1
DA:460,1
DA:461,1
DA:462,1
DA:463,1
DA:465,1
DA:466,1
DA:467,1
BRF:0
BRH:0
LF:351
LH:63
end_of_record
SF:/home/nathan/Projects/smith/shared/smith-bus/src/streams_tests.rs
FN:735,_RNvNtNtCs7756PgZboGe_9smith_bus13streams_tests5testss_21test_subject_patterns
FN:273,_RNvNtNtCs7756PgZboGe_9smith_bus13streams_tests5testss_28test_stream_info_clone_trait
FN:252,_RNvNtNtCs7756PgZboGe_9smith_bus13streams_tests5testss_28test_stream_info_debug_trait
FN:484,_RNvNtNtCs7756PgZboGe_9smith_bus13streams_tests5testss_28test_stream_manager_creation
FN:623,_RNvNtNtCs7756PgZboGe_9smith_bus13streams_tests5testss_29test_stream_deletion_workflow
FN:687,_RNvNtNtCs7756PgZboGe_9smith_bus13streams_tests5testss_31test_audit_stream_configuration
FN:931,_RNvNtNtCs7756PgZboGe_9smith_bus13streams_tests5testss_31test_stream_description_formats
FN:298,_RNvNtNtCs7756PgZboGe_9smith_bus13streams_tests5testss_31test_stream_info_empty_subjects
FN:807,_RNvNtNtCs7756PgZboGe_9smith_bus13streams_tests5testss_32test_message_size_configurations
FN:975,_RNvNtNtCs7756PgZboGe_9smith_bus13streams_tests5testss_33test_discard_policy_configuration
FN:895,_RNvNtNtCs7756PgZboGe_9smith_bus13streams_tests5testss_33test_stream_age_retention_periods
FN:345,_RNvNtNtCs7756PgZboGe_9smith_bus13streams_tests5testss_33test_stream_info_sequence_numbers
FN:985,_RNvNtNtCs7756PgZboGe_9smith_bus13streams_tests5testss_34test_phase_2_architecture_concepts
FN:864,_RNvNtNtCs7756PgZboGe_9smith_bus13streams_tests5testss_34test_stream_capacity_relationships
FN:589,_RNvNtNtCs7756PgZboGe_9smith_bus13streams_tests5testss_34test_stream_info_get_streams_logic
FN:108,_RNvNtNtCs7756PgZboGe_9smith_bus13streams_tests5testss_34test_stream_info_health_edge_cases
FN:316,_RNvNtNtCs7756PgZboGe_9smith_bus13streams_tests5testss_34test_stream_info_multiple_subjects
FN:208,_RNvNtNtCs7756PgZboGe_9smith_bus13streams_tests5testss_34test_stream_utilization_edge_cases
FN:512,_RNvNtNtCs7756PgZboGe_9smith_bus13streams_tests5testss_35test_stream_config_comparison_logic
FN:645,_RNvNtNtCs7756PgZboGe_9smith_bus13streams_tests5testss_35test_stream_configuration_constants
FN:441,_RNvNtNtCs7756PgZboGe_9smith_bus13streams_tests5testss_35test_stream_info_bytes_calculations
FN:838,_RNvNtNtCs7756PgZboGe_9smith_bus13streams_tests5testss_36test_duplicate_window_configurations
FN:783,_RNvNtNtCs7756PgZboGe_9smith_bus13streams_tests5testss_36test_retention_policy_configurations
FN:12,_RNvNtNtCs7756PgZboGe_9smith_bus13streams_tests5testss_36test_stream_info_creation_and_fields
FN:703,_RNvNtNtCs7756PgZboGe_9smith_bus13streams_tests5testss_38test_backpressure_stream_configuration
FN:959,_RNvNtNtCs7756PgZboGe_9smith_bus13streams_tests5testss_38test_storage_and_replica_configuration
FN:719,_RNvNtNtCs7756PgZboGe_9smith_bus13streams_tests5testss_39test_system_events_stream_configuration
FN:554,_RNvNtNtCs7756PgZboGe_9smith_bus13streams_tests5testss_40test_stream_bootstrap_workflow_structure
FN:396,_RNvNtNtCs7756PgZboGe_9smith_bus13streams_tests5testss_41test_stream_info_consumer_count_scenarios
FN:40,_RNvNtNtCs7756PgZboGe_9smith_bus13streams_tests5testss_44test_stream_info_health_status_comprehensive
FN:150,_RNvNtNtCs7756PgZboGe_9smith_bus13streams_tests5testss_48test_stream_utilization_percentage_comprehensive
FN:506,_RNCNvNtNtCs7756PgZboGe_9smith_bus13streams_tests5testss_28test_stream_manager_creation0B7_
FN:640,_RNCNvNtNtCs7756PgZboGe_9smith_bus13streams_tests5testss_29test_stream_deletion_workflow0B7_
FN:571,_RNCNvNtNtCs7756PgZboGe_9smith_bus13streams_tests5testss_40test_stream_bootstrap_workflow_structure0B7_
FN:584,_RNCNvNtNtCs7756PgZboGe_9smith_bus13streams_tests5testss_40test_stream_bootstrap_workflow_structures_0B7_
FNDA:1,_RNvNtNtCs7756PgZboGe_9smith_bus13streams_tests5testss_21test_subject_patterns
FNDA:1,_RNvNtNtCs7756PgZboGe_9smith_bus13streams_tests5testss_28test_stream_info_clone_trait
FNDA:1,_RNvNtNtCs7756PgZboGe_9smith_bus13streams_tests5testss_28test_stream_info_debug_trait
FNDA:1,_RNvNtNtCs7756PgZboGe_9smith_bus13streams_tests5testss_28test_stream_manager_creation
FNDA:1,_RNvNtNtCs7756PgZboGe_9smith_bus13streams_tests5testss_29test_stream_deletion_workflow
FNDA:1,_RNvNtNtCs7756PgZboGe_9smith_bus13streams_tests5testss_31test_audit_stream_configuration
FNDA:1,_RNvNtNtCs7756PgZboGe_9smith_bus13streams_tests5testss_31test_stream_description_formats
FNDA:1,_RNvNtNtCs7756PgZboGe_9smith_bus13streams_tests5testss_31test_stream_info_empty_subjects
FNDA:1,_RNvNtNtCs7756PgZboGe_9smith_bus13streams_tests5testss_32test_message_size_configurations
FNDA:1,_RNvNtNtCs7756PgZboGe_9smith_bus13streams_tests5testss_33test_discard_policy_configuration
FNDA:1,_RNvNtNtCs7756PgZboGe_9smith_bus13streams_tests5testss_33test_stream_age_retention_periods
FNDA:1,_RNvNtNtCs7756PgZboGe_9smith_bus13streams_tests5testss_33test_stream_info_sequence_numbers
FNDA:1,_RNvNtNtCs7756PgZboGe_9smith_bus13streams_tests5testss_34test_phase_2_architecture_concepts
FNDA:1,_RNvNtNtCs7756PgZboGe_9smith_bus13streams_tests5testss_34test_stream_capacity_relationships
FNDA:1,_RNvNtNtCs7756PgZboGe_9smith_bus13streams_tests5testss_34test_stream_info_get_streams_logic
FNDA:1,_RNvNtNtCs7756PgZboGe_9smith_bus13streams_tests5testss_34test_stream_info_health_edge_cases
FNDA:1,_RNvNtNtCs7756PgZboGe_9smith_bus13streams_tests5testss_34test_stream_info_multiple_subjects
FNDA:1,_RNvNtNtCs7756PgZboGe_9smith_bus13streams_tests5testss_34test_stream_utilization_edge_cases
FNDA:1,_RNvNtNtCs7756PgZboGe_9smith_bus13streams_tests5testss_35test_stream_config_comparison_logic
FNDA:1,_RNvNtNtCs7756PgZboGe_9smith_bus13streams_tests5testss_35test_stream_configuration_constants
FNDA:1,_RNvNtNtCs7756PgZboGe_9smith_bus13streams_tests5testss_35test_stream_info_bytes_calculations
FNDA:1,_RNvNtNtCs7756PgZboGe_9smith_bus13streams_tests5testss_36test_duplicate_window_configurations
FNDA:1,_RNvNtNtCs7756PgZboGe_9smith_bus13streams_tests5testss_36test_retention_policy_configurations
FNDA:1,_RNvNtNtCs7756PgZboGe_9smith_bus13streams_tests5testss_36test_stream_info_creation_and_fields
FNDA:1,_RNvNtNtCs7756PgZboGe_9smith_bus13streams_tests5testss_38test_backpressure_stream_configuration
FNDA:1,_RNvNtNtCs7756PgZboGe_9smith_bus13streams_tests5testss_38test_storage_and_replica_configuration
FNDA:1,_RNvNtNtCs7756PgZboGe_9smith_bus13streams_tests5testss_39test_system_events_stream_configuration
FNDA:1,_RNvNtNtCs7756PgZboGe_9smith_bus13streams_tests5testss_40test_stream_bootstrap_workflow_structure
FNDA:1,_RNvNtNtCs7756PgZboGe_9smith_bus13streams_tests5testss_41test_stream_info_consumer_count_scenarios
FNDA:1,_RNvNtNtCs7756PgZboGe_9smith_bus13streams_tests5testss_44test_stream_info_health_status_comprehensive
FNDA:1,_RNvNtNtCs7756PgZboGe_9smith_bus13streams_tests5testss_48test_stream_utilization_percentage_comprehensive
FNDA:112,_RNCNvNtNtCs7756PgZboGe_9smith_bus13streams_tests5testss_28test_stream_manager_creation0B7_
FNDA:42,_RNCNvNtNtCs7756PgZboGe_9smith_bus13streams_tests5testss_29test_stream_deletion_workflow0B7_
FNDA:75,_RNCNvNtNtCs7756PgZboGe_9smith_bus13streams_tests5testss_40test_stream_bootstrap_workflow_structure0B7_
FNDA:37,_RNCNvNtNtCs7756PgZboGe_9smith_bus13streams_tests5testss_40test_stream_bootstrap_workflow_structures_0B7_
FNF:35
FNH:35
DA:12,1
DA:13,1
DA:14,1
DA:15,1
DA:16,1
DA:17,1
DA:18,1
DA:19,1
DA:20,1
DA:21,1
DA:22,1
DA:23,1
DA:24,1
DA:25,1
DA:27,1
DA:28,1
DA:29,1
DA:30,1
DA:31,1
DA:32,1
DA:33,1
DA:34,1
DA:35,1
DA:36,1
DA:37,1
DA:40,1
DA:42,1
DA:43,1
DA:44,1
DA:45,1
DA:46,1
DA:47,1
DA:48,1
DA:49,1
DA:50,1
DA:51,1
DA:52,1
DA:55,1
DA:56,1
DA:57,1
DA:58,1
DA:59,1
DA:60,1
DA:61,1
DA:62,1
DA:63,1
DA:64,1
DA:65,1
DA:68,1
DA:69,1
DA:70,1
DA:71,1
DA:72,1
DA:73,1
DA:74,1
DA:75,1
DA:76,1
DA:77,1
DA:78,1
DA:81,1
DA:82,1
DA:83,1
DA:84,1
DA:85,1
DA:86,1
DA:87,1
DA:88,1
DA:89,1
DA:90,1
DA:91,1
DA:94,1
DA:95,1
DA:96,1
DA:97,1
DA:98,1
DA:99,1
DA:100,1
DA:101,1
DA:102,1
DA:103,1
DA:104,1
DA:105,1
DA:108,1
DA:110,1
DA:111,1
DA:112,1
DA:113,1
DA:114,1
DA:115,1
DA:116,1
DA:117,1
DA:118,1
DA:119,1
DA:120,1
DA:123,1
DA:124,1
DA:125,1
DA:126,1
DA:127,1
DA:128,1
DA:129,1
DA:130,1
DA:131,1
DA:132,1
DA:133,1
DA:136,1
DA:137,1
DA:138,1
DA:139,1
DA:140,1
DA:141,1
DA:142,1
DA:143,1
DA:144,1
DA:145,1
DA:146,1
DA:147,1
DA:150,1
DA:152,1
DA:153,1
DA:154,1
DA:155,1
DA:156,1
DA:157,1
DA:158,1
DA:159,1
DA:160,1
DA:161,1
DA:162,1
DA:163,1
DA:166,1
DA:167,1
DA:168,1
DA:169,1
DA:170,1
DA:171,1
DA:172,1
DA:173,1
DA:174,1
DA:175,1
DA:176,1
DA:177,1
DA:180,1
DA:181,1
DA:182,1
DA:183,1
DA:184,1
DA:185,1
DA:186,1
DA:187,1
DA:188,1
DA:189,1
DA:190,1
DA:191,1
DA:194,1
DA:195,1
DA:196,1
DA:197,1
DA:198,1
DA:199,1
DA:200,1
DA:201,1
DA:202,1
DA:203,1
DA:204,1
DA:205,1
DA:208,1
DA:210,1
DA:211,1
DA:212,1
DA:213,1
DA:214,1
DA:215,1
DA:216,1
DA:217,1
DA:218,1
DA:219,1
DA:220,1
DA:223,1
DA:224,1
DA:225,1
DA:226,1
DA:227,1
DA:228,1
DA:229,1
DA:230,1
DA:231,1
DA:232,1
DA:233,1
DA:234,1
DA:237,1
DA:238,1
DA:239,1
DA:240,1
DA:241,1
DA:242,1
DA:243,1
DA:244,1
DA:245,1
DA:246,1
DA:247,1
DA:248,1
DA:249,1
DA:252,1
DA:253,1
DA:254,1
DA:255,1
DA:256,1
DA:257,1
DA:258,1
DA:259,1
DA:260,1
DA:261,1
DA:262,1
DA:264,1
DA:265,1
DA:266,1
DA:267,1
DA:268,1
DA:269,1
DA:270,1
DA:273,1
DA:274,1
DA:275,1
DA:276,1
DA:277,1
DA:278,1
DA:279,1
DA:280,1
DA:281,1
DA:282,1
DA:283,1
DA:285,1
DA:287,1
DA:288,1
DA:289,1
DA:290,1
DA:291,1
DA:292,1
DA:293,1
DA:294,1
DA:295,1
DA:298,1
DA:299,1
DA:300,1
DA:301,1
DA:302,1
DA:303,1
DA:304,1
DA:305,1
DA:306,1
DA:307,1
DA:308,1
DA:310,1
DA:311,1
DA:312,1
DA:313,1
DA:316,1
DA:317,1
DA:318,1
DA:319,1
DA:320,1
DA:321,1
DA:322,1
DA:323,1
DA:324,1
DA:325,1
DA:326,1
DA:327,1
DA:328,1
DA:329,1
DA:330,1
DA:331,1
DA:332,1
DA:334,1
DA:335,1
DA:336,1
DA:337,1
DA:338,1
DA:339,1
DA:340,1
DA:341,1
DA:342,1
DA:345,1
DA:347,1
DA:348,1
DA:349,1
DA:350,1
DA:351,1
DA:352,1
DA:353,1
DA:354,1
DA:355,1
DA:356,1
DA:358,1
DA:359,1
DA:360,1
DA:363,1
DA:364,1
DA:365,1
DA:366,1
DA:367,1
DA:368,1
DA:369,1
DA:370,1
DA:371,1
DA:372,1
DA:374,1
DA:375,1
DA:376,1
DA:379,1
DA:380,1
DA:381,1
DA:382,1
DA:383,1
DA:384,1
DA:385,1
DA:386,1
DA:387,1
DA:388,1
DA:390,1
DA:391,1
DA:392,1
DA:393,1
DA:396,1
DA:398,1
DA:399,1
DA:400,1
DA:401,1
DA:402,1
DA:403,1
DA:404,1
DA:405,1
DA:406,1
DA:407,1
DA:408,1
DA:409,1
DA:412,1
DA:413,1
DA:414,1
DA:415,1
DA:416,1
DA:417,1
DA:418,1
DA:419,1
DA:420,1
DA:421,1
DA:422,1
DA:423,1
DA:426,1
DA:427,1
DA:428,1
DA:429,1
DA:430,1
DA:431,1
DA:432,1
DA:433,1
DA:434,1
DA:435,1
DA:436,1
DA:437,1
DA:438,1
DA:441,1
DA:443,1
DA:444,1
DA:445,1
DA:446,1
DA:447,1
DA:448,1
DA:449,1
DA:450,1
DA:451,1
DA:452,1
DA:453,1
DA:454,1
DA:456,1
DA:457,1
DA:458,1
DA:459,1
DA:460,1
DA:461,1
DA:462,1
DA:463,1
DA:464,1
DA:465,1
DA:466,1
DA:467,1
DA:469,1
DA:470,1
DA:471,1
DA:472,1
DA:473,1
DA:474,1
DA:475,1
DA:476,1
DA:477,1
DA:478,1
DA:479,1
DA:480,1
DA:481,1
DA:484,1
DA:493,1
DA:495,1
DA:496,1
DA:497,1
DA:498,1
DA:499,1
DA:500,1
DA:501,1
DA:504,9
DA:505,8
DA:506,112
DA:507,8
DA:509,1
DA:512,1
DA:517,1
DA:518,1
DA:522,1
DA:524,1
DA:525,1
DA:526,1
DA:529,1
DA:530,1
DA:531,1
DA:533,1
DA:534,1
DA:537,1
DA:538,1
DA:539,1
DA:541,1
DA:542,1
DA:545,1
DA:546,1
DA:547,1
DA:549,1
DA:550,1
DA:551,1
DA:554,1
DA:559,1
DA:561,1
DA:562,1
DA:563,1
DA:564,1
DA:568,6
DA:569,5
DA:570,5
DA:571,75
DA:575,1
DA:577,1
DA:578,1
DA:581,4
DA:582,3
DA:583,3
DA:584,37
DA:586,1
DA:589,1
DA:593,1
DA:594,1
DA:597,5
DA:598,4
DA:599,4
DA:600,4
DA:601,4
DA:602,4
DA:603,4
DA:604,4
DA:605,4
DA:606,4
DA:607,4
DA:608,4
DA:610,1
DA:613,5
DA:614,4
DA:615,4
DA:616,4
DA:617,4
DA:618,4
DA:620,1
DA:623,1
DA:627,1
DA:629,1
DA:630,1
DA:634,4
DA:635,3
DA:636,3
DA:637,3
DA:640,42
DA:642,1
DA:645,1
DA:649,1
DA:650,1
DA:651,1
DA:652,1
DA:653,1
DA:655,1
DA:656,1
DA:657,1
DA:658,1
DA:659,1
DA:662,1
DA:663,1
DA:664,1
DA:665,1
DA:667,1
DA:668,1
DA:669,1
DA:670,1
DA:673,1
DA:674,1
DA:675,1
DA:676,1
DA:677,1
DA:679,1
DA:680,1
DA:681,1
DA:682,1
DA:683,1
DA:684,1
DA:687,1
DA:689,1
DA:690,1
DA:691,1
DA:692,1
DA:693,1
DA:695,1
DA:696,1
DA:697,1
DA:698,1
DA:699,1
DA:700,1
DA:703,1
DA:705,1
DA:706,1
DA:707,1
DA:708,1
DA:709,1
DA:711,1
DA:712,1
DA:713,1
DA:714,1
DA:715,1
DA:716,1
DA:719,1
DA:721,1
DA:722,1
DA:723,1
DA:724,1
DA:725,1
DA:727,1
DA:728,1
DA:729,1
DA:730,1
DA:731,1
DA:732,1
DA:735,1
DA:737,1
DA:738,1
DA:739,1
DA:740,1
DA:741,1
DA:742,1
DA:745,2
DA:746,1
DA:747,1
DA:748,1
DA:751,2
DA:752,1
DA:753,1
DA:754,1
DA:757,2
DA:758,1
DA:759,1
DA:760,1
DA:763,2
DA:764,1
DA:765,1
DA:766,1
DA:769,2
DA:770,1
DA:771,1
DA:772,1
DA:775,2
DA:776,1
DA:777,1
DA:778,1
DA:780,1
DA:783,1
DA:788,1
DA:789,3
DA:790,2
DA:794,1
DA:795,3
DA:796,2
DA:800,1
DA:801,5
DA:802,4
DA:804,1
DA:807,1
DA:811,1
DA:812,1
DA:815,1
DA:816,1
DA:819,1
DA:820,1
DA:823,1
DA:824,1
DA:827,1
DA:828,1
DA:831,1
DA:832,1
DA:833,1
DA:834,1
DA:835,1
DA:838,1
DA:842,1
DA:843,1
DA:846,1
DA:847,1
DA:850,1
DA:851,1
DA:854,1
DA:855,1
DA:858,1
DA:859,1
DA:860,1
DA:861,1
DA:864,1
DA:868,1
DA:869,1
DA:870,1
DA:871,1
DA:872,1
DA:874,1
DA:875,1
DA:876,1
DA:877,1
DA:880,1
DA:881,1
DA:882,1
DA:883,1
DA:884,1
DA:885,1
DA:887,1
DA:888,1
DA:889,1
DA:890,1
DA:891,1
DA:892,1
DA:895,1
DA:899,1
DA:900,1
DA:903,1
DA:904,1
DA:907,1
DA:908,1
DA:911,1
DA:912,1
DA:915,1
DA:916,1
DA:919,1
DA:920,1
DA:923,1
DA:924,1
DA:925,1
DA:926,1
DA:927,1
DA:928,1
DA:931,1
DA:934,1
DA:936,1
DA:937,1
DA:938,1
DA:939,1
DA:940,1
DA:941,1
DA:942,1
DA:945,9
DA:946,8
DA:947,8
DA:948,8
DA:951,8
DA:954,8
DA:956,1
DA:959,1
DA:963,1
DA:964,1
DA:967,1
DA:968,1
DA:970,1
DA:971,1
DA:972,1
DA:975,1
DA:977,1
DA:978,1
DA:980,1
DA:981,1
DA:982,1
DA:985,1
DA:989,1
DA:992,1
DA:993,1
DA:994,1
DA:997,1
DA:998,1
DA:1001,1
DA:1002,1
DA:1005,1
DA:1006,1
DA:1007,1
BRF:0
BRH:0
LF:713
LH:713
end_of_record
SF:/home/nathan/Projects/smith/shared/smith-bus/src/subjects.rs
FN:253,_RNvXs_NtCs7756PgZboGe_9smith_bus8subjectsNtB4_14SubjectBuilderNtNtCs66KPHxksi63_4core7default7Default7default
FN:222,_RINvMNtCs7756PgZboGe_9smith_bus8subjectsNtB3_14SubjectBuilder10capabilityReEB5_
FN:216,_RINvMNtCs7756PgZboGe_9smith_bus8subjectsNtB3_14SubjectBuilder4partReEB5_
FN:235,_RINvMNtCs7756PgZboGe_9smith_bus8subjectsNtB3_14SubjectBuilder6domainReEB5_
FN:557,_RINvNtCs7756PgZboGe_9smith_bus8subjects3rawReEB4_
FN:561,_RINvNtCs7756PgZboGe_9smith_bus8subjects6vettedReEB4_
FN:622,_RNvNtNtCs7756PgZboGe_9smith_bus8subjects3abi25generate_subject_abi_hash
FN:647,_RNvNtNtCs7756PgZboGe_9smith_bus8subjects3abi30validate_subject_abi_stability
FN:738,_RNvNtNtCs7756PgZboGe_9smith_bus8subjects10validation17extract_intent_id
FN:713,_RNvNtNtCs7756PgZboGe_9smith_bus8subjects10validation17is_intent_subject
FN:718,_RNvNtNtCs7756PgZboGe_9smith_bus8subjects10validation17is_result_subject
FN:723,_RNvNtNtCs7756PgZboGe_9smith_bus8subjects10validation18extract_capability
FN:672,_RNvNtNtCs7756PgZboGe_9smith_bus8subjects10validation22is_valid_smith_subject
FN:700,_RNvNtNtCs7756PgZboGe_9smith_bus8subjects10validation26validate_centralized_usage
FN:677,_RNvNtNtCs7756PgZboGe_9smith_bus8subjects10validation29contains_raw_subject_patterns
FN:209,_RNvMNtCs7756PgZboGe_9smith_bus8subjectsNtB2_14SubjectBuilder3new
FN:241,_RNvMNtCs7756PgZboGe_9smith_bus8subjectsNtB2_14SubjectBuilder5build
FN:246,_RNvMNtCs7756PgZboGe_9smith_bus8subjectsNtB2_14SubjectBuilder8wildcard
FN:285,_RINvMNtNtCs7756PgZboGe_9smith_bus8subjects8buildersNtB3_13IntentSubject11with_domainReEB7_
FN:267,_RINvMNtNtCs7756PgZboGe_9smith_bus8subjects8buildersNtB3_13IntentSubject3rawReEB7_
FN:276,_RINvMNtNtCs7756PgZboGe_9smith_bus8subjects8buildersNtB3_13IntentSubject6vettedReEB7_
FN:325,_RINvMs0_NtNtCs7756PgZboGe_9smith_bus8subjects8buildersNtB6_12EventSubject18executor_lifecycleReEBa_
FN:335,_RINvMs0_NtNtCs7756PgZboGe_9smith_bus8subjects8buildersNtB6_12EventSubject6healthReEBa_
FN:344,_RINvMs0_NtNtCs7756PgZboGe_9smith_bus8subjects8buildersNtB6_12EventSubject7metricsReEBa_
FN:367,_RINvMs1_NtNtCs7756PgZboGe_9smith_bus8subjects8buildersNtB6_12AuditSubject6policyReEBa_
FN:376,_RINvMs1_NtNtCs7756PgZboGe_9smith_bus8subjects8buildersNtB6_12AuditSubject8securityReEBa_
FN:358,_RINvMs1_NtNtCs7756PgZboGe_9smith_bus8subjects8buildersNtB6_12AuditSubject9executionReEBa_
FN:444,_RINvMs2_NtNtCs7756PgZboGe_9smith_bus8subjects8buildersNtB6_10LogSubject11performanceReEBa_
FN:390,_RINvMs2_NtNtCs7756PgZboGe_9smith_bus8subjects8buildersNtB6_10LogSubject4coreReEBa_
FN:417,_RINvMs2_NtNtCs7756PgZboGe_9smith_bus8subjects8buildersNtB6_10LogSubject4httpReEBa_
FN:435,_RINvMs2_NtNtCs7756PgZboGe_9smith_bus8subjects8buildersNtB6_10LogSubject5errorReEBa_
FN:426,_RINvMs2_NtNtCs7756PgZboGe_9smith_bus8subjects8buildersNtB6_10LogSubject7serviceReEBa_
FN:399,_RINvMs2_NtNtCs7756PgZboGe_9smith_bus8subjects8buildersNtB6_10LogSubject8executorReEBa_
FN:453,_RINvMs2_NtNtCs7756PgZboGe_9smith_bus8subjects8buildersNtB6_10LogSubject8securityReEBa_
FN:408,_RINvMs2_NtNtCs7756PgZboGe_9smith_bus8subjects8buildersNtB6_10LogSubject9admissionReEBa_
FN:540,_RINvMs3_NtNtCs7756PgZboGe_9smith_bus8subjects8buildersNtB6_16BenchmarkSubject10early_stopReEBa_
FN:531,_RINvMs3_NtNtCs7756PgZboGe_9smith_bus8subjects8buildersNtB6_16BenchmarkSubject13task_featuresReEBa_
FN:502,_RINvMs3_NtNtCs7756PgZboGe_9smith_bus8subjects8buildersNtB6_16BenchmarkSubject16context_decisionReEBa_
FN:492,_RINvMs3_NtNtCs7756PgZboGe_9smith_bus8subjects8buildersNtB6_16BenchmarkSubject16tool_performanceReEBa_
FN:522,_RINvMs3_NtNtCs7756PgZboGe_9smith_bus8subjects8buildersNtB6_16BenchmarkSubject18optimizer_feedbackReEBa_
FN:473,_RINvMs3_NtNtCs7756PgZboGe_9smith_bus8subjects8buildersNtB6_16BenchmarkSubject3runReEBa_
FN:482,_RINvMs3_NtNtCs7756PgZboGe_9smith_bus8subjects8buildersNtB6_16BenchmarkSubject4stepReEBa_
FN:512,_RINvMs3_NtNtCs7756PgZboGe_9smith_bus8subjects8buildersNtB6_16BenchmarkSubject7failureReEBa_
FN:307,_RINvMs_NtNtCs7756PgZboGe_9smith_bus8subjects8buildersNtB5_13ResultSubject10for_intentReEB9_
FN:294,_RNvMNtNtCs7756PgZboGe_9smith_bus8subjects8buildersNtB2_13IntentSubject10quarantine
FN:463,_RNvMs2_NtNtCs7756PgZboGe_9smith_bus8subjects8buildersNtB5_10LogSubject3all
FN:550,_RNvMs3_NtNtCs7756PgZboGe_9smith_bus8subjects8buildersNtB5_16BenchmarkSubject3all
FN:315,_RNvMs_NtNtCs7756PgZboGe_9smith_bus8subjects8buildersNtB4_13ResultSubject3all
FN:758,_RNvNtNtCs7756PgZboGe_9smith_bus8subjects5testss_20test_subject_builder
FN:851,_RNvNtNtCs7756PgZboGe_9smith_bus8subjects5testss_21test_stream_constants
FN:858,_RNvNtNtCs7756PgZboGe_9smith_bus8subjects5testss_23test_consumer_constants
FN:807,_RNvNtNtCs7756PgZboGe_9smith_bus8subjects5testss_23test_subject_validation
FN:1252,_RNvNtNtCs7756PgZboGe_9smith_bus8subjects5testss_24test_abi_hash_generation
FN:1382,_RNvNtNtCs7756PgZboGe_9smith_bus8subjects5testss_25test_abi_version_constant
FN:838,_RNvNtNtCs7756PgZboGe_9smith_bus8subjects5testss_25test_intent_id_extraction
FN:1024,_RNvNtNtCs7756PgZboGe_9smith_bus8subjects5testss_25test_log_subject_builders
FN:823,_RNvNtNtCs7756PgZboGe_9smith_bus8subjects5testss_26test_capability_extraction
FN:798,_RNvNtNtCs7756PgZboGe_9smith_bus8subjects5testss_26test_convenience_functions
FN:1371,_RNvNtNtCs7756PgZboGe_9smith_bus8subjects5testss_26test_root_pattern_constant
FN:769,_RNvNtNtCs7756PgZboGe_9smith_bus8subjects5testss_28test_intent_subject_builders
FN:787,_RNvNtNtCs7756PgZboGe_9smith_bus8subjects5testss_28test_result_subject_builders
FN:867,_RNvNtNtCs7756PgZboGe_9smith_bus8subjects5testss_29test_subject_prefix_contracts
FN:1268,_RNvNtNtCs7756PgZboGe_9smith_bus8subjects5testss_30test_special_pattern_constants
FN:1326,_RNvNtNtCs7756PgZboGe_9smith_bus8subjects5testss_30test_validation_error_handling
FN:1096,_RNvNtNtCs7756PgZboGe_9smith_bus8subjects5testss_31test_benchmark_subject_builders
FN:1361,_RNvNtNtCs7756PgZboGe_9smith_bus8subjects5testss_34test_additional_benchmark_patterns
FN:1230,_RNvNtNtCs7756PgZboGe_9smith_bus8subjects5testss_34test_stream_and_consumer_constants
FN:994,_RNvNtNtCs7756PgZboGe_9smith_bus8subjects5testss_34test_subject_builder_comprehensive
FN:1345,_RNvNtNtCs7756PgZboGe_9smith_bus8subjects5testss_34test_subject_extraction_edge_cases
FN:1393,_RNvNtNtCs7756PgZboGe_9smith_bus8subjects5testss_36test_comprehensive_constant_coverage
FN:1134,_RNvNtNtCs7756PgZboGe_9smith_bus8subjects5testss_36test_pattern_constants_comprehensive
FN:1178,_RNvNtNtCs7756PgZboGe_9smith_bus8subjects5testss_39test_validation_functions_comprehensive
FN:1304,_RNvNtNtCs7756PgZboGe_9smith_bus8subjects5testss_40test_subject_builder_capability_variants
FN:1079,_RNvNtNtCs7756PgZboGe_9smith_bus8subjects5testss_41test_audit_subject_builders_comprehensive
FN:1062,_RNvNtNtCs7756PgZboGe_9smith_bus8subjects5testss_41test_event_subject_builders_comprehensive
FN:928,_RNCNvNtNtCs7756PgZboGe_9smith_bus8subjects5testss_29test_subject_prefix_contracts0B7_
FN:938,_RNCNvNtNtCs7756PgZboGe_9smith_bus8subjects5testss_29test_subject_prefix_contractss0_0B7_
FN:943,_RNCNvNtNtCs7756PgZboGe_9smith_bus8subjects5testss_29test_subject_prefix_contractss1_0B7_
FN:933,_RNCNvNtNtCs7756PgZboGe_9smith_bus8subjects5testss_29test_subject_prefix_contractss_0B7_
FN:1430,_RNCNvNtNtCs7756PgZboGe_9smith_bus8subjects5testss_36test_comprehensive_constant_coverage0B7_
FNDA:0,_RNvXs_NtCs7756PgZboGe_9smith_bus8subjectsNtB4_14SubjectBuilderNtNtCs66KPHxksi63_4core7default7Default7default
FNDA:17,_RINvMNtCs7756PgZboGe_9smith_bus8subjectsNtB3_14SubjectBuilder10capabilityReEB5_
FNDA:135,_RINvMNtCs7756PgZboGe_9smith_bus8subjectsNtB3_14SubjectBuilder4partReEB5_
FNDA:5,_RINvMNtCs7756PgZboGe_9smith_bus8subjectsNtB3_14SubjectBuilder6domainReEB5_
FNDA:2,_RINvNtCs7756PgZboGe_9smith_bus8subjects3rawReEB4_
FNDA:2,_RINvNtCs7756PgZboGe_9smith_bus8subjects6vettedReEB4_
FNDA:3,_RNvNtNtCs7756PgZboGe_9smith_bus8subjects3abi25generate_subject_abi_hash
FNDA:2,_RNvNtNtCs7756PgZboGe_9smith_bus8subjects3abi30validate_subject_abi_stability
FNDA:8,_RNvNtNtCs7756PgZboGe_9smith_bus8subjects10validation17extract_intent_id
FNDA:16,_RNvNtNtCs7756PgZboGe_9smith_bus8subjects10validation17is_intent_subject
FNDA:13,_RNvNtNtCs7756PgZboGe_9smith_bus8subjects10validation17is_result_subject
FNDA:11,_RNvNtNtCs7756PgZboGe_9smith_bus8subjects10validation18extract_capability
FNDA:6,_RNvNtNtCs7756PgZboGe_9smith_bus8subjects10validation22is_valid_smith_subject
FNDA:4,_RNvNtNtCs7756PgZboGe_9smith_bus8subjects10validation26validate_centralized_usage
FNDA:7,_RNvNtNtCs7756PgZboGe_9smith_bus8subjects10validation29contains_raw_subject_patterns
FNDA:57,_RNvMNtCs7756PgZboGe_9smith_bus8subjectsNtB2_14SubjectBuilder3new
FNDA:53,_RNvMNtCs7756PgZboGe_9smith_bus8subjectsNtB2_14SubjectBuilder5build
FNDA:4,_RNvMNtCs7756PgZboGe_9smith_bus8subjectsNtB2_14SubjectBuilder8wildcard
FNDA:2,_RINvMNtNtCs7756PgZboGe_9smith_bus8subjects8buildersNtB3_13IntentSubject11with_domainReEB7_
FNDA:5,_RINvMNtNtCs7756PgZboGe_9smith_bus8subjects8buildersNtB3_13IntentSubject3rawReEB7_
FNDA:4,_RINvMNtNtCs7756PgZboGe_9smith_bus8subjects8buildersNtB3_13IntentSubject6vettedReEB7_
FNDA:2,_RINvMs0_NtNtCs7756PgZboGe_9smith_bus8subjects8buildersNtB6_12EventSubject18executor_lifecycleReEBa_
FNDA:2,_RINvMs0_NtNtCs7756PgZboGe_9smith_bus8subjects8buildersNtB6_12EventSubject6healthReEBa_
FNDA:2,_RINvMs0_NtNtCs7756PgZboGe_9smith_bus8subjects8buildersNtB6_12EventSubject7metricsReEBa_
FNDA:2,_RINvMs1_NtNtCs7756PgZboGe_9smith_bus8subjects8buildersNtB6_12AuditSubject6policyReEBa_
FNDA:2,_RINvMs1_NtNtCs7756PgZboGe_9smith_bus8subjects8buildersNtB6_12AuditSubject8securityReEBa_
FNDA:3,_RINvMs1_NtNtCs7756PgZboGe_9smith_bus8subjects8buildersNtB6_12AuditSubject9executionReEBa_
FNDA:1,_RINvMs2_NtNtCs7756PgZboGe_9smith_bus8subjects8buildersNtB6_10LogSubject11performanceReEBa_
FNDA:1,_RINvMs2_NtNtCs7756PgZboGe_9smith_bus8subjects8buildersNtB6_10LogSubject4coreReEBa_
FNDA:1,_RINvMs2_NtNtCs7756PgZboGe_9smith_bus8subjects8buildersNtB6_10LogSubject4httpReEBa_
FNDA:1,_RINvMs2_NtNtCs7756PgZboGe_9smith_bus8subjects8buildersNtB6_10LogSubject5errorReEBa_
FNDA:1,_RINvMs2_NtNtCs7756PgZboGe_9smith_bus8subjects8buildersNtB6_10LogSubject7serviceReEBa_
FNDA:1,_RINvMs2_NtNtCs7756PgZboGe_9smith_bus8subjects8buildersNtB6_10LogSubject8executorReEBa_
FNDA:1,_RINvMs2_NtNtCs7756PgZboGe_9smith_bus8subjects8buildersNtB6_10LogSubject8securityReEBa_
FNDA:1,_RINvMs2_NtNtCs7756PgZboGe_9smith_bus8subjects8buildersNtB6_10LogSubject9admissionReEBa_
FNDA:1,_RINvMs3_NtNtCs7756PgZboGe_9smith_bus8subjects8buildersNtB6_16BenchmarkSubject10early_stopReEBa_
FNDA:1,_RINvMs3_NtNtCs7756PgZboGe_9smith_bus8subjects8buildersNtB6_16BenchmarkSubject13task_featuresReEBa_
FNDA:1,_RINvMs3_NtNtCs7756PgZboGe_9smith_bus8subjects8buildersNtB6_16BenchmarkSubject16context_decisionReEBa_
FNDA:1,_RINvMs3_NtNtCs7756PgZboGe_9smith_bus8subjects8buildersNtB6_16BenchmarkSubject16tool_performanceReEBa_
FNDA:1,_RINvMs3_NtNtCs7756PgZboGe_9smith_bus8subjects8buildersNtB6_16BenchmarkSubject18optimizer_feedbackReEBa_
FNDA:1,_RINvMs3_NtNtCs7756PgZboGe_9smith_bus8subjects8buildersNtB6_16BenchmarkSubject3runReEBa_
FNDA:1,_RINvMs3_NtNtCs7756PgZboGe_9smith_bus8subjects8buildersNtB6_16BenchmarkSubject4stepReEBa_
FNDA:1,_RINvMs3_NtNtCs7756PgZboGe_9smith_bus8subjects8buildersNtB6_16BenchmarkSubject7failureReEBa_
FNDA:3,_RINvMs_NtNtCs7756PgZboGe_9smith_bus8subjects8buildersNtB5_13ResultSubject10for_intentReEB9_
FNDA:1,_RNvMNtNtCs7756PgZboGe_9smith_bus8subjects8buildersNtB2_13IntentSubject10quarantine
FNDA:1,_RNvMs2_NtNtCs7756PgZboGe_9smith_bus8subjects8buildersNtB5_10LogSubject3all
FNDA:1,_RNvMs3_NtNtCs7756PgZboGe_9smith_bus8subjects8buildersNtB5_16BenchmarkSubject3all
FNDA:1,_RNvMs_NtNtCs7756PgZboGe_9smith_bus8subjects8buildersNtB4_13ResultSubject3all
FNDA:1,_RNvNtNtCs7756PgZboGe_9smith_bus8subjects5testss_20test_subject_builder
FNDA:1,_RNvNtNtCs7756PgZboGe_9smith_bus8subjects5testss_21test_stream_constants
FNDA:1,_RNvNtNtCs7756PgZboGe_9smith_bus8subjects5testss_23test_consumer_constants
FNDA:1,_RNvNtNtCs7756PgZboGe_9smith_bus8subjects5testss_23test_subject_validation
FNDA:1,_RNvNtNtCs7756PgZboGe_9smith_bus8subjects5testss_24test_abi_hash_generation
FNDA:1,_RNvNtNtCs7756PgZboGe_9smith_bus8subjects5testss_25test_abi_version_constant
FNDA:1,_RNvNtNtCs7756PgZboGe_9smith_bus8subjects5testss_25test_intent_id_extraction
FNDA:1,_RNvNtNtCs7756PgZboGe_9smith_bus8subjects5testss_25test_log_subject_builders
FNDA:1,_RNvNtNtCs7756PgZboGe_9smith_bus8subjects5testss_26test_capability_extraction
FNDA:1,_RNvNtNtCs7756PgZboGe_9smith_bus8subjects5testss_26test_convenience_functions
FNDA:1,_RNvNtNtCs7756PgZboGe_9smith_bus8subjects5testss_26test_root_pattern_constant
FNDA:1,_RNvNtNtCs7756PgZboGe_9smith_bus8subjects5testss_28test_intent_subject_builders
FNDA:1,_RNvNtNtCs7756PgZboGe_9smith_bus8subjects5testss_28test_result_subject_builders
FNDA:1,_RNvNtNtCs7756PgZboGe_9smith_bus8subjects5testss_29test_subject_prefix_contracts
FNDA:1,_RNvNtNtCs7756PgZboGe_9smith_bus8subjects5testss_30test_special_pattern_constants
FNDA:1,_RNvNtNtCs7756PgZboGe_9smith_bus8subjects5testss_30test_validation_error_handling
FNDA:1,_RNvNtNtCs7756PgZboGe_9smith_bus8subjects5testss_31test_benchmark_subject_builders
FNDA:1,_RNvNtNtCs7756PgZboGe_9smith_bus8subjects5testss_34test_additional_benchmark_patterns
FNDA:1,_RNvNtNtCs7756PgZboGe_9smith_bus8subjects5testss_34test_stream_and_consumer_constants
FNDA:1,_RNvNtNtCs7756PgZboGe_9smith_bus8subjects5testss_34test_subject_builder_comprehensive
FNDA:1,_RNvNtNtCs7756PgZboGe_9smith_bus8subjects5testss_34test_subject_extraction_edge_cases
FNDA:1,_RNvNtNtCs7756PgZboGe_9smith_bus8subjects5testss_36test_comprehensive_constant_coverage
FNDA:1,_RNvNtNtCs7756PgZboGe_9smith_bus8subjects5testss_36test_pattern_constants_comprehensive
FNDA:1,_RNvNtNtCs7756PgZboGe_9smith_bus8subjects5testss_39test_validation_functions_comprehensive
FNDA:1,_RNvNtNtCs7756PgZboGe_9smith_bus8subjects5testss_40test_subject_builder_capability_variants
FNDA:1,_RNvNtNtCs7756PgZboGe_9smith_bus8subjects5testss_41test_audit_subject_builders_comprehensive
FNDA:1,_RNvNtNtCs7756PgZboGe_9smith_bus8subjects5testss_41test_event_subject_builders_comprehensive
FNDA:32,_RNCNvNtNtCs7756PgZboGe_9smith_bus8subjects5testss_29test_subject_prefix_contracts0B7_
FNDA:32,_RNCNvNtNtCs7756PgZboGe_9smith_bus8subjects5testss_29test_subject_prefix_contractss0_0B7_
FNDA:32,_RNCNvNtNtCs7756PgZboGe_9smith_bus8subjects5testss_29test_subject_prefix_contractss1_0B7_
FNDA:32,_RNCNvNtNtCs7756PgZboGe_9smith_bus8subjects5testss_29test_subject_prefix_contractss_0B7_
FNDA:110,_RNCNvNtNtCs7756PgZboGe_9smith_bus8subjects5testss_36test_comprehensive_constant_coverage0B7_
FNF:80
FNH:79
DA:209,57
DA:210,57
DA:211,57
DA:212,57
DA:213,57
DA:216,135
DA:217,135
DA:218,135
DA:219,135
DA:222,17
DA:223,17
DA:224,17
DA:225,16
DA:226,16
DA:227,16
DA:228,1
DA:229,1
DA:230,1
DA:231,17
DA:232,17
DA:235,5
DA:236,5
DA:237,5
DA:238,5
DA:241,53
DA:242,53
DA:243,53
DA:246,4
DA:247,4
DA:248,4
DA:249,4
DA:253,0
DA:254,0
DA:255,0
DA:267,5
DA:268,5
DA:269,5
DA:270,5
DA:271,5
DA:272,5
DA:273,5
DA:276,4
DA:277,4
DA:278,4
DA:279,4
DA:280,4
DA:281,4
DA:282,4
DA:285,2
DA:286,2
DA:287,2
DA:288,2
DA:289,2
DA:290,2
DA:291,2
DA:294,1
DA:295,1
DA:296,1
DA:297,1
DA:298,1
DA:299,1
DA:307,3
DA:308,3
DA:309,3
DA:310,3
DA:311,3
DA:312,3
DA:315,1
DA:316,1
DA:317,1
DA:325,2
DA:326,2
DA:327,2
DA:328,2
DA:329,2
DA:330,2
DA:331,2
DA:332,2
DA:335,2
DA:336,2
DA:337,2
DA:338,2
DA:339,2
DA:340,2
DA:341,2
DA:344,2
DA:345,2
DA:346,2
DA:347,2
DA:348,2
DA:349,2
DA:350,2
DA:358,3
DA:359,3
DA:360,3
DA:361,3
DA:362,3
DA:363,3
DA:364,3
DA:367,2
DA:368,2
DA:369,2
DA:370,2
DA:371,2
DA:372,2
DA:373,2
DA:376,2
DA:377,2
DA:378,2
DA:379,2
DA:380,2
DA:381,2
DA:382,2
DA:390,1
DA:391,1
DA:392,1
DA:393,1
DA:394,1
DA:395,1
DA:396,1
DA:399,1
DA:400,1
DA:401,1
DA:402,1
DA:403,1
DA:404,1
DA:405,1
DA:408,1
DA:409,1
DA:410,1
DA:411,1
DA:412,1
DA:413,1
DA:414,1
DA:417,1
DA:418,1
DA:419,1
DA:420,1
DA:421,1
DA:422,1
DA:423,1
DA:426,1
DA:427,1
DA:428,1
DA:429,1
DA:430,1
DA:431,1
DA:432,1
DA:435,1
DA:436,1
DA:437,1
DA:438,1
DA:439,1
DA:440,1
DA:441,1
DA:444,1
DA:445,1
DA:446,1
DA:447,1
DA:448,1
DA:449,1
DA:450,1
DA:453,1
DA:454,1
DA:455,1
DA:456,1
DA:457,1
DA:458,1
DA:459,1
DA:460,1
DA:463,1
DA:464,1
DA:465,1
DA:473,1
DA:474,1
DA:475,1
DA:476,1
DA:477,1
DA:478,1
DA:479,1
DA:482,1
DA:483,1
DA:484,1
DA:485,1
DA:486,1
DA:487,1
DA:488,1
DA:489,1
DA:492,1
DA:493,1
DA:494,1
DA:495,1
DA:496,1
DA:497,1
DA:498,1
DA:499,1
DA:502,1
DA:503,1
DA:504,1
DA:505,1
DA:506,1
DA:507,1
DA:508,1
DA:509,1
DA:512,1
DA:513,1
DA:514,1
DA:515,1
DA:516,1
DA:517,1
DA:518,1
DA:519,1
DA:522,1
DA:523,1
DA:524,1
DA:525,1
DA:526,1
DA:527,1
DA:528,1
DA:531,1
DA:532,1
DA:533,1
DA:534,1
DA:535,1
DA:536,1
DA:537,1
DA:540,1
DA:541,1
DA:542,1
DA:543,1
DA:544,1
DA:545,1
DA:546,1
DA:547,1
DA:550,1
DA:551,1
DA:552,1
DA:557,2
DA:558,2
DA:559,2
DA:561,2
DA:562,2
DA:563,2
DA:622,3
DA:626,3
DA:627,3
DA:628,3
DA:629,3
DA:630,3
DA:631,3
DA:632,3
DA:633,3
DA:635,3
DA:636,3
DA:638,3
DA:641,3
DA:642,3
DA:643,3
DA:644,3
DA:647,2
DA:648,2
DA:649,1
DA:650,1
DA:651,1
DA:652,1
DA:653,1
DA:654,1
DA:655,2
DA:672,6
DA:673,6
DA:674,6
DA:677,7
DA:678,7
DA:681,7
DA:683,7
DA:684,7
DA:685,7
DA:688,35
DA:689,28
DA:690,28
DA:691,8
DA:692,8
DA:693,0
DA:696,7
DA:697,7
DA:700,4
DA:701,4
DA:702,4
DA:703,1
DA:704,1
DA:705,1
DA:706,1
DA:707,1
DA:708,3
DA:709,3
DA:710,4
DA:713,16
DA:714,16
DA:715,16
DA:718,13
DA:719,13
DA:720,13
DA:723,11
DA:724,11
DA:725,6
DA:726,5
DA:728,5
DA:729,5
DA:731,4
DA:733,1
DA:735,11
DA:738,8
DA:739,8
DA:740,6
DA:741,2
DA:743,2
DA:744,2
DA:746,2
DA:748,0
DA:750,8
DA:758,1
DA:759,1
DA:760,1
DA:761,1
DA:762,1
DA:763,1
DA:765,1
DA:766,1
DA:769,1
DA:770,1
DA:771,1
DA:775,1
DA:776,1
DA:780,1
DA:781,1
DA:784,1
DA:787,1
DA:788,1
DA:789,1
DA:790,1
DA:794,1
DA:795,1
DA:798,1
DA:799,1
DA:800,1
DA:801,1
DA:804,1
DA:807,1
DA:808,1
DA:809,1
DA:811,1
DA:812,1
DA:813,1
DA:815,1
DA:816,1
DA:818,1
DA:819,1
DA:820,1
DA:823,1
DA:824,1
DA:825,1
DA:826,1
DA:829,1
DA:830,1
DA:831,1
DA:834,1
DA:835,1
DA:838,1
DA:839,1
DA:840,1
DA:841,1
DA:844,1
DA:845,1
DA:848,1
DA:851,1
DA:852,1
DA:853,1
DA:854,1
DA:855,1
DA:858,1
DA:859,1
DA:860,1
DA:861,1
DA:862,1
DA:867,1
DA:869,1
DA:872,1
DA:873,1
DA:874,1
DA:875,1
DA:876,1
DA:877,1
DA:878,1
DA:879,1
DA:880,1
DA:881,1
DA:882,1
DA:883,1
DA:884,1
DA:885,1
DA:886,1
DA:887,1
DA:888,1
DA:889,1
DA:890,1
DA:893,1
DA:894,1
DA:895,1
DA:896,1
DA:897,1
DA:898,1
DA:899,1
DA:900,1
DA:901,1
DA:902,1
DA:903,1
DA:906,1
DA:907,1
DA:910,33
DA:911,32
DA:912,32
DA:913,0
DA:918,32
DA:919,32
DA:920,0
DA:926,1
DA:927,1
DA:928,32
DA:929,1
DA:931,1
DA:932,1
DA:933,32
DA:934,1
DA:936,1
DA:937,1
DA:938,32
DA:939,1
DA:941,1
DA:942,1
DA:943,32
DA:944,1
DA:947,1
DA:948,1
DA:949,0
DA:951,1
DA:952,1
DA:953,0
DA:955,1
DA:956,1
DA:957,0
DA:959,1
DA:960,1
DA:961,0
DA:965,12
DA:966,11
DA:967,11
DA:968,11
DA:969,0
DA:974,2
DA:975,1
DA:976,1
DA:977,1
DA:978,0
DA:983,1
DA:984,1
DA:985,1
DA:987,1
DA:988,1
DA:989,1
DA:990,1
DA:991,1
DA:994,1
DA:996,1
DA:997,1
DA:998,1
DA:999,1
DA:1000,1
DA:1001,1
DA:1004,1
DA:1005,1
DA:1006,1
DA:1007,1
DA:1010,1
DA:1011,1
DA:1014,1
DA:1015,1
DA:1016,1
DA:1017,1
DA:1018,1
DA:1019,1
DA:1020,1
DA:1021,1
DA:1024,1
DA:1026,1
DA:1027,1
DA:1030,1
DA:1031,1
DA:1034,1
DA:1035,1
DA:1038,1
DA:1039,1
DA:1042,1
DA:1043,1
DA:1046,1
DA:1047,1
DA:1050,1
DA:1051,1
DA:1054,1
DA:1055,1
DA:1058,1
DA:1059,1
DA:1062,1
DA:1064,1
DA:1065,1
DA:1068,1
DA:1069,1
DA:1072,1
DA:1073,1
DA:1076,1
DA:1079,1
DA:1081,1
DA:1082,1
DA:1085,1
DA:1086,1
DA:1089,1
DA:1090,1
DA:1093,1
DA:1096,1
DA:1098,1
DA:1099,1
DA:1102,1
DA:1103,1
DA:1106,1
DA:1107,1
DA:1110,1
DA:1111,1
DA:1114,1
DA:1115,1
DA:1118,1
DA:1119,1
DA:1122,1
DA:1123,1
DA:1126,1
DA:1127,1
DA:1130,1
DA:1131,1
DA:1134,1
DA:1136,1
DA:1137,1
DA:1138,1
DA:1139,1
DA:1140,1
DA:1141,1
DA:1142,1
DA:1143,1
DA:1144,1
DA:1145,1
DA:1146,1
DA:1147,1
DA:1150,1
DA:1151,1
DA:1154,1
DA:1155,1
DA:1156,1
DA:1157,1
DA:1160,1
DA:1161,1
DA:1162,1
DA:1163,1
DA:1164,1
DA:1167,1
DA:1168,1
DA:1169,1
DA:1172,1
DA:1173,1
DA:1174,1
DA:1175,1
DA:1178,1
DA:1180,1
DA:1181,1
DA:1182,1
DA:1183,1
DA:1184,1
DA:1185,1
DA:1187,1
DA:1188,1
DA:1191,1
DA:1192,1
DA:1195,1
DA:1196,1
DA:1197,1
DA:1199,1
DA:1200,1
DA:1201,1
DA:1203,1
DA:1204,1
DA:1207,1
DA:1208,1
DA:1209,1
DA:1211,1
DA:1212,1
DA:1215,1
DA:1216,1
DA:1217,1
DA:1218,1
DA:1220,1
DA:1221,1
DA:1222,1
DA:1224,1
DA:1225,1
DA:1226,1
DA:1227,1
DA:1230,1
DA:1232,1
DA:1233,1
DA:1234,1
DA:1235,1
DA:1236,1
DA:1237,1
DA:1240,1
DA:1241,1
DA:1242,1
DA:1243,1
DA:1244,1
DA:1245,1
DA:1246,1
DA:1247,1
DA:1248,1
DA:1249,1
DA:1252,1
DA:1254,1
DA:1255,1
DA:1258,1
DA:1259,1
DA:1260,1
DA:1263,1
DA:1264,1
DA:1265,1
DA:1268,1
DA:1270,1
DA:1273,1
DA:1274,1
DA:1275,1
DA:1278,1
DA:1279,1
DA:1280,1
DA:1281,1
DA:1282,1
DA:1283,1
DA:1286,1
DA:1287,1
DA:1288,1
DA:1289,1
DA:1290,1
DA:1291,1
DA:1292,1
DA:1293,1
DA:1294,1
DA:1295,1
DA:1296,1
DA:1297,1
DA:1298,1
DA:1299,1
DA:1300,1
DA:1301,1
DA:1304,1
DA:1306,1
DA:1307,1
DA:1308,1
DA:1309,1
DA:1312,1
DA:1313,1
DA:1314,1
DA:1315,1
DA:1318,1
DA:1319,1
DA:1320,1
DA:1321,1
DA:1322,1
DA:1323,1
DA:1326,1
DA:1328,1
DA:1329,1
DA:1330,1
DA:1331,1
DA:1333,1
DA:1334,1
DA:1336,1
DA:1337,1
DA:1340,1
DA:1341,1
DA:1342,1
DA:1345,1
DA:1347,1
DA:1348,1
DA:1349,1
DA:1352,1
DA:1353,1
DA:1356,1
DA:1357,1
DA:1358,1
DA:1361,1
DA:1363,1
DA:1364,1
DA:1365,1
DA:1366,1
DA:1367,1
DA:1368,1
DA:1371,1
DA:1373,1
DA:1376,1
DA:1377,1
DA:1378,1
DA:1379,1
DA:1382,1
DA:1384,1
DA:1385,1
DA:1388,1
DA:1389,1
DA:1390,1
DA:1393,1
DA:1398,1
DA:1400,1
DA:1401,1
DA:1402,1
DA:1403,1
DA:1404,1
DA:1405,1
DA:1406,1
DA:1407,1
DA:1408,1
DA:1409,1
DA:1412,12
DA:1413,11
DA:1414,11
DA:1418,1
DA:1420,1
DA:1421,1
DA:1422,1
DA:1423,1
DA:1424,1
DA:1425,1
DA:1428,8
DA:1429,7
DA:1430,110
DA:1434,1
DA:1436,1
DA:1439,3
DA:1440,2
DA:1441,2
DA:1443,1
BRF:0
BRH:0
LF:756
LH:743
end_of_record