SF:/home/nathan/Projects/smith/shared/smith-config/src/behavior.rs
FN:157,_RINvMs2_NtCseymUlnl0dXB_12smith_config8behaviorNtB6_19BehaviorPackManager3newRNtNtCsiKSG5X70Gj7_3std4path4PathEB8_
FN:238,_RNCNvMs2_NtCseymUlnl0dXB_12smith_config8behaviorNtB7_19BehaviorPackManager16check_and_reload0B9_
FN:257,_RNCNvMs2_NtCseymUlnl0dXB_12smith_config8behaviorNtB7_19BehaviorPackManager16check_and_reloads0_0B9_
FN:239,_RNCNvMs2_NtCseymUlnl0dXB_12smith_config8behaviorNtB7_19BehaviorPackManager16check_and_reloads_0B9_
FN:168,_RNCNvMs2_NtCseymUlnl0dXB_12smith_config8behaviorNtB7_19BehaviorPackManager8load_all0B9_
FN:180,_RNCNvMs2_NtCseymUlnl0dXB_12smith_config8behaviorNtB7_19BehaviorPackManager8load_alls0_0B9_
FN:179,_RNCNvMs2_NtCseymUlnl0dXB_12smith_config8behaviorNtB7_19BehaviorPackManager8load_alls_0B9_
FN:192,_RNCNvMs2_NtCseymUlnl0dXB_12smith_config8behaviorNtB7_19BehaviorPackManager9load_pack0B9_
FN:202,_RNCNvMs2_NtCseymUlnl0dXB_12smith_config8behaviorNtB7_19BehaviorPackManager9load_packs0_0B9_
FN:195,_RNCNvMs2_NtCseymUlnl0dXB_12smith_config8behaviorNtB7_19BehaviorPackManager9load_packs_0B9_
FN:221,_RNvMs2_NtCseymUlnl0dXB_12smith_config8behaviorNtB5_19BehaviorPackManager10list_packs
FN:281,_RNvMs2_NtCseymUlnl0dXB_12smith_config8behaviorNtB5_19BehaviorPackManager13poll_interval
FN:226,_RNvMs2_NtCseymUlnl0dXB_12smith_config8behaviorNtB5_19BehaviorPackManager16check_and_reload
FN:286,_RNvMs2_NtCseymUlnl0dXB_12smith_config8behaviorNtB5_19BehaviorPackManager17set_poll_interval
FN:216,_RNvMs2_NtCseymUlnl0dXB_12smith_config8behaviorNtB5_19BehaviorPackManager8get_pack
FN:167,_RNvMs2_NtCseymUlnl0dXB_12smith_config8behaviorNtB5_19BehaviorPackManager8load_all
FN:291,_RNvMs2_NtCseymUlnl0dXB_12smith_config8behaviorNtB5_19BehaviorPackManager9all_packs
FN:190,_RNvMs2_NtCseymUlnl0dXB_12smith_config8behaviorNtB5_19BehaviorPackManager9load_pack
FN:298,_RNvMs3_NtCseymUlnl0dXB_12smith_config8behaviorNtB5_12BehaviorPack8validate
FN:53,_RNvXNtCseymUlnl0dXB_12smith_config8behaviorNtB2_11GuardConfigNtNtCs66KPHxksi63_4core7default7Default7default
FN:88,_RNvXs0_NtCseymUlnl0dXB_12smith_config8behaviorNtB5_11MacroGuardsNtNtCs66KPHxksi63_4core7default7Default7default
FN:105,_RNvXs1_NtCseymUlnl0dXB_12smith_config8behaviorNtB5_14PlaybookGuardsNtNtCs66KPHxksi63_4core7default7Default7default
FN:72,_RNvXs_NtCseymUlnl0dXB_12smith_config8behaviorNtB4_10AtomGuardsNtNtCs66KPHxksi63_4core7default7Default7default
FN:387,_RNvMs3_NtCseymUlnl0dXB_12smith_config8behaviorNtB5_12BehaviorPack10get_params
FN:372,_RNvMs3_NtCseymUlnl0dXB_12smith_config8behaviorNtB5_12BehaviorPack15is_atom_enabled
FN:377,_RNvMs3_NtCseymUlnl0dXB_12smith_config8behaviorNtB5_12BehaviorPack16is_macro_enabled
FN:382,_RNvMs3_NtCseymUlnl0dXB_12smith_config8behaviorNtB5_12BehaviorPack19is_playbook_enabled
FN:432,_RNvNtNtCseymUlnl0dXB_12smith_config8behavior5testss_26test_behavior_pack_manager
FN:398,_RNvNtNtCseymUlnl0dXB_12smith_config8behavior5testss_29test_behavior_pack_validation
FN:415,_RNvNtNtCseymUlnl0dXB_12smith_config8behavior5testss_44test_strict_mode_validation_fails_with_atoms
FNDA:8,_RINvMs2_NtCseymUlnl0dXB_12smith_config8behaviorNtB6_19BehaviorPackManager3newRNtNtCsiKSG5X70Gj7_3std4path4PathEB8_
FNDA:1,_RNCNvMs2_NtCseymUlnl0dXB_12smith_config8behaviorNtB7_19BehaviorPackManager16check_and_reload0B9_
FNDA:1,_RNCNvMs2_NtCseymUlnl0dXB_12smith_config8behaviorNtB7_19BehaviorPackManager16check_and_reloads0_0B9_
FNDA:0,_RNCNvMs2_NtCseymUlnl0dXB_12smith_config8behaviorNtB7_19BehaviorPackManager16check_and_reloads_0B9_
FNDA:0,_RNCNvMs2_NtCseymUlnl0dXB_12smith_config8behaviorNtB7_19BehaviorPackManager8load_all0B9_
FNDA:0,_RNCNvMs2_NtCseymUlnl0dXB_12smith_config8behaviorNtB7_19BehaviorPackManager8load_alls0_0B9_
FNDA:1,_RNCNvMs2_NtCseymUlnl0dXB_12smith_config8behaviorNtB7_19BehaviorPackManager8load_alls_0B9_
FNDA:1,_RNCNvMs2_NtCseymUlnl0dXB_12smith_config8behaviorNtB7_19BehaviorPackManager9load_pack0B9_
FNDA:0,_RNCNvMs2_NtCseymUlnl0dXB_12smith_config8behaviorNtB7_19BehaviorPackManager9load_packs0_0B9_
FNDA:1,_RNCNvMs2_NtCseymUlnl0dXB_12smith_config8behaviorNtB7_19BehaviorPackManager9load_packs_0B9_
FNDA:3,_RNvMs2_NtCseymUlnl0dXB_12smith_config8behaviorNtB5_19BehaviorPackManager10list_packs
FNDA:2,_RNvMs2_NtCseymUlnl0dXB_12smith_config8behaviorNtB5_19BehaviorPackManager13poll_interval
FNDA:1,_RNvMs2_NtCseymUlnl0dXB_12smith_config8behaviorNtB5_19BehaviorPackManager16check_and_reload
FNDA:1,_RNvMs2_NtCseymUlnl0dXB_12smith_config8behaviorNtB5_19BehaviorPackManager17set_poll_interval
FNDA:4,_RNvMs2_NtCseymUlnl0dXB_12smith_config8behaviorNtB5_19BehaviorPackManager8get_pack
FNDA:1,_RNvMs2_NtCseymUlnl0dXB_12smith_config8behaviorNtB5_19BehaviorPackManager8load_all
FNDA:3,_RNvMs2_NtCseymUlnl0dXB_12smith_config8behaviorNtB5_19BehaviorPackManager9all_packs
FNDA:7,_RNvMs2_NtCseymUlnl0dXB_12smith_config8behaviorNtB5_19BehaviorPackManager9load_pack
FNDA:9,_RNvMs3_NtCseymUlnl0dXB_12smith_config8behaviorNtB5_12BehaviorPack8validate
FNDA:51,_RNvXNtCseymUlnl0dXB_12smith_config8behaviorNtB2_11GuardConfigNtNtCs66KPHxksi63_4core7default7Default7default
FNDA:52,_RNvXs0_NtCseymUlnl0dXB_12smith_config8behaviorNtB5_11MacroGuardsNtNtCs66KPHxksi63_4core7default7Default7default
FNDA:52,_RNvXs1_NtCseymUlnl0dXB_12smith_config8behaviorNtB5_14PlaybookGuardsNtNtCs66KPHxksi63_4core7default7Default7default
FNDA:52,_RNvXs_NtCseymUlnl0dXB_12smith_config8behaviorNtB4_10AtomGuardsNtNtCs66KPHxksi63_4core7default7Default7default
FNDA:0,_RNvMs3_NtCseymUlnl0dXB_12smith_config8behaviorNtB5_12BehaviorPack10get_params
FNDA:0,_RNvMs3_NtCseymUlnl0dXB_12smith_config8behaviorNtB5_12BehaviorPack15is_atom_enabled
FNDA:0,_RNvMs3_NtCseymUlnl0dXB_12smith_config8behaviorNtB5_12BehaviorPack16is_macro_enabled
FNDA:0,_RNvMs3_NtCseymUlnl0dXB_12smith_config8behaviorNtB5_12BehaviorPack19is_playbook_enabled
FNDA:1,_RNvNtNtCseymUlnl0dXB_12smith_config8behavior5testss_26test_behavior_pack_manager
FNDA:1,_RNvNtNtCseymUlnl0dXB_12smith_config8behavior5testss_29test_behavior_pack_validation
FNDA:1,_RNvNtNtCseymUlnl0dXB_12smith_config8behavior5testss_44test_strict_mode_validation_fails_with_atoms
FNF:30
FNH:22
DA:53,51
DA:54,51
DA:55,51
DA:56,51
DA:57,51
DA:58,51
DA:59,51
DA:72,52
DA:73,52
DA:74,52
DA:75,52
DA:76,52
DA:77,52
DA:88,52
DA:89,52
DA:90,52
DA:91,52
DA:92,52
DA:105,52
DA:106,52
DA:107,52
DA:108,52
DA:109,52
DA:110,52
DA:157,8
DA:158,8
DA:159,8
DA:160,8
DA:161,8
DA:162,8
DA:163,8
DA:164,8
DA:167,1
DA:168,1
DA:169,0
DA:170,0
DA:171,0
DA:173,0
DA:175,2
DA:176,1
DA:177,1
DA:179,1
DA:180,0
DA:182,1
DA:183,0
DA:186,1
DA:187,1
DA:190,7
DA:191,7
DA:192,7
DA:194,6
DA:195,6
DA:198,5
DA:201,5
DA:202,5
DA:204,5
DA:205,5
DA:206,5
DA:209,5
DA:211,5
DA:212,5
DA:213,7
DA:216,4
DA:217,4
DA:218,4
DA:221,3
DA:222,3
DA:223,3
DA:226,1
DA:227,1
DA:229,1
DA:230,1
DA:231,0
DA:234,2
DA:235,1
DA:236,1
DA:238,1
DA:239,0
DA:241,1
DA:242,1
DA:243,0
DA:246,1
DA:247,1
DA:248,1
DA:249,0
DA:252,1
DA:253,1
DA:255,1
DA:256,1
DA:257,1
DA:258,1
DA:259,1
DA:260,1
DA:261,1
DA:263,0
DA:264,0
DA:265,0
DA:266,0
DA:272,0
DA:273,0
DA:274,0
DA:277,1
DA:278,1
DA:281,2
DA:282,2
DA:283,2
DA:286,1
DA:287,1
DA:288,1
DA:291,3
DA:292,3
DA:293,3
DA:298,9
DA:300,9
DA:301,1
DA:302,8
DA:305,8
DA:307,7
DA:308,1
DA:309,1
DA:310,1
DA:311,1
DA:312,6
DA:316,1
DA:317,1
DA:318,0
DA:319,0
DA:322,1
DA:323,0
DA:325,0
DA:326,0
DA:327,0
DA:331,7
DA:332,7
DA:333,0
DA:334,7
DA:335,7
DA:336,0
DA:337,0
DA:341,7
DA:342,0
DA:344,7
DA:345,6
DA:346,0
DA:347,6
DA:348,6
DA:349,0
DA:350,0
DA:354,6
DA:355,1
DA:358,7
DA:359,0
DA:360,0
DA:361,0
DA:362,0
DA:363,0
DA:364,0
DA:365,0
DA:368,7
DA:369,9
DA:372,0
DA:373,0
DA:374,0
DA:377,0
DA:378,0
DA:379,0
DA:382,0
DA:383,0
DA:384,0
DA:387,0
DA:388,0
DA:389,0
DA:398,1
DA:399,1
DA:400,1
DA:401,1
DA:402,1
DA:403,1
DA:404,1
DA:405,1
DA:406,1
DA:407,1
DA:408,1
DA:409,1
DA:411,1
DA:412,1
DA:415,1
DA:416,1
DA:417,1
DA:418,1
DA:419,1
DA:420,1
DA:421,1
DA:422,1
DA:423,1
DA:424,1
DA:425,1
DA:426,1
DA:428,1
DA:429,1
DA:432,1
DA:433,1
DA:434,1
DA:437,1
DA:438,1
DA:439,1
DA:440,1
DA:441,1
DA:442,1
DA:443,1
DA:444,1
DA:445,1
DA:446,1
DA:447,1
DA:448,1
DA:449,1
DA:451,1
DA:452,1
DA:455,1
DA:458,1
DA:459,1
DA:461,1
DA:462,1
BRF:0
BRH:0
LF:233
LH:179
end_of_record
SF:/home/nathan/Projects/smith/shared/smith-config/src/behavior_tests.rs
FN:56,_RNvNtCseymUlnl0dXB_12smith_config14behavior_testss_24test_atom_guards_default
FN:47,_RNvNtCseymUlnl0dXB_12smith_config14behavior_testss_25test_guard_config_default
FN:63,_RNvNtCseymUlnl0dXB_12smith_config14behavior_testss_25test_macro_guards_default
FN:17,_RNvNtCseymUlnl0dXB_12smith_config14behavior_testss_26test_behavior_mode_default
FN:96,_RNvNtCseymUlnl0dXB_12smith_config14behavior_testss_27test_behavior_pack_creation
FN:327,_RNvNtCseymUlnl0dXB_12smith_config14behavior_testss_28test_capability_params_usage
FN:69,_RNvNtCseymUlnl0dXB_12smith_config14behavior_testss_28test_playbook_guards_default
FN:367,_RNvNtCseymUlnl0dXB_12smith_config14behavior_testss_29test_behavior_pack_edge_cases
FN:147,_RNvNtCseymUlnl0dXB_12smith_config14behavior_testss_29test_behavior_pack_validation
FN:179,_RNvNtCseymUlnl0dXB_12smith_config14behavior_testss_30test_behavior_pack_manager_new
FN:344,_RNvNtCseymUlnl0dXB_12smith_config14behavior_testss_31test_guard_config_customization
FN:22,_RNvNtCseymUlnl0dXB_12smith_config14behavior_testss_32test_behavior_mode_serialization
FN:120,_RNvNtCseymUlnl0dXB_12smith_config14behavior_testss_32test_behavior_pack_serialization
FN:39,_RNvNtCseymUlnl0dXB_12smith_config14behavior_testss_33test_enabled_capabilities_default
FN:76,_RNvNtCseymUlnl0dXB_12smith_config14behavior_testss_35test_validation_level_serialization
FN:297,_RNvNtCseymUlnl0dXB_12smith_config14behavior_testss_36test_behavior_pack_manager_all_packs
FN:189,_RNvNtCseymUlnl0dXB_12smith_config14behavior_testss_36test_behavior_pack_manager_load_pack
FN:224,_RNvNtCseymUlnl0dXB_12smith_config14behavior_testss_37test_behavior_pack_manager_hot_reload
FN:406,_RNvNtCseymUlnl0dXB_12smith_config14behavior_testss_39test_behavior_pack_manager_invalid_yaml
FN:389,_RNvNtCseymUlnl0dXB_12smith_config14behavior_testss_41test_behavior_pack_manager_error_handling
FN:280,_RNvNtCseymUlnl0dXB_12smith_config14behavior_testss_41test_behavior_pack_manager_polling_config
FNDA:1,_RNvNtCseymUlnl0dXB_12smith_config14behavior_testss_24test_atom_guards_default
FNDA:1,_RNvNtCseymUlnl0dXB_12smith_config14behavior_testss_25test_guard_config_default
FNDA:1,_RNvNtCseymUlnl0dXB_12smith_config14behavior_testss_25test_macro_guards_default
FNDA:1,_RNvNtCseymUlnl0dXB_12smith_config14behavior_testss_26test_behavior_mode_default
FNDA:1,_RNvNtCseymUlnl0dXB_12smith_config14behavior_testss_27test_behavior_pack_creation
FNDA:1,_RNvNtCseymUlnl0dXB_12smith_config14behavior_testss_28test_capability_params_usage
FNDA:1,_RNvNtCseymUlnl0dXB_12smith_config14behavior_testss_28test_playbook_guards_default
FNDA:1,_RNvNtCseymUlnl0dXB_12smith_config14behavior_testss_29test_behavior_pack_edge_cases
FNDA:1,_RNvNtCseymUlnl0dXB_12smith_config14behavior_testss_29test_behavior_pack_validation
FNDA:1,_RNvNtCseymUlnl0dXB_12smith_config14behavior_testss_30test_behavior_pack_manager_new
FNDA:1,_RNvNtCseymUlnl0dXB_12smith_config14behavior_testss_31test_guard_config_customization
FNDA:1,_RNvNtCseymUlnl0dXB_12smith_config14behavior_testss_32test_behavior_mode_serialization
FNDA:1,_RNvNtCseymUlnl0dXB_12smith_config14behavior_testss_32test_behavior_pack_serialization
FNDA:1,_RNvNtCseymUlnl0dXB_12smith_config14behavior_testss_33test_enabled_capabilities_default
FNDA:1,_RNvNtCseymUlnl0dXB_12smith_config14behavior_testss_35test_validation_level_serialization
FNDA:1,_RNvNtCseymUlnl0dXB_12smith_config14behavior_testss_36test_behavior_pack_manager_all_packs
FNDA:1,_RNvNtCseymUlnl0dXB_12smith_config14behavior_testss_36test_behavior_pack_manager_load_pack
FNDA:1,_RNvNtCseymUlnl0dXB_12smith_config14behavior_testss_37test_behavior_pack_manager_hot_reload
FNDA:1,_RNvNtCseymUlnl0dXB_12smith_config14behavior_testss_39test_behavior_pack_manager_invalid_yaml
FNDA:1,_RNvNtCseymUlnl0dXB_12smith_config14behavior_testss_41test_behavior_pack_manager_error_handling
FNDA:1,_RNvNtCseymUlnl0dXB_12smith_config14behavior_testss_41test_behavior_pack_manager_polling_config
FNF:21
FNH:21
DA:17,1
DA:18,1
DA:19,1
DA:22,1
DA:23,1
DA:24,1
DA:25,1
DA:26,1
DA:29,4
DA:30,3
DA:31,3
DA:33,3
DA:34,3
DA:36,1
DA:39,1
DA:40,1
DA:41,1
DA:42,1
DA:43,1
DA:44,1
DA:47,1
DA:48,1
DA:50,1
DA:51,1
DA:52,1
DA:53,1
DA:56,1
DA:57,1
DA:58,1
DA:59,1
DA:60,1
DA:63,1
DA:64,1
DA:65,1
DA:66,1
DA:69,1
DA:70,1
DA:71,1
DA:72,1
DA:73,1
DA:76,1
DA:77,1
DA:78,1
DA:79,1
DA:82,3
DA:83,2
DA:84,2
DA:86,2
DA:87,2
DA:89,2
DA:90,0
DA:93,1
DA:96,1
DA:97,1
DA:98,1
DA:99,1
DA:100,1
DA:101,1
DA:102,1
DA:103,1
DA:104,1
DA:105,1
DA:106,1
DA:107,1
DA:109,1
DA:111,1
DA:112,1
DA:113,1
DA:114,1
DA:115,1
DA:116,1
DA:117,1
DA:120,1
DA:121,1
DA:122,1
DA:123,1
DA:124,1
DA:125,1
DA:126,1
DA:127,1
DA:128,1
DA:129,1
DA:130,1
DA:131,1
DA:132,1
DA:133,1
DA:134,1
DA:135,1
DA:137,1
DA:138,1
DA:140,1
DA:141,1
DA:142,1
DA:143,1
DA:144,1
DA:147,1
DA:149,1
DA:150,1
DA:151,1
DA:152,1
DA:153,1
DA:154,1
DA:155,1
DA:156,1
DA:157,1
DA:158,1
DA:159,1
DA:161,1
DA:164,1
DA:165,1
DA:166,1
DA:167,1
DA:168,1
DA:169,1
DA:170,1
DA:173,1
DA:175,1
DA:176,1
DA:179,1
DA:180,1
DA:181,1
DA:184,1
DA:185,1
DA:186,1
DA:189,1
DA:190,1
DA:193,1
DA:194,1
DA:195,1
DA:196,1
DA:197,1
DA:198,1
DA:199,1
DA:200,1
DA:201,1
DA:202,1
DA:203,1
DA:205,1
DA:206,1
DA:207,1
DA:209,1
DA:210,1
DA:212,1
DA:213,1
DA:214,1
DA:216,1
DA:217,1
DA:218,1
DA:220,1
DA:221,1
DA:224,1
DA:225,1
DA:226,1
DA:229,1
DA:230,1
DA:231,1
DA:232,1
DA:233,1
DA:234,1
DA:235,1
DA:236,1
DA:237,1
DA:238,1
DA:239,1
DA:241,1
DA:242,1
DA:243,1
DA:246,1
DA:249,1
DA:251,1
DA:252,1
DA:253,1
DA:254,1
DA:255,1
DA:256,1
DA:257,1
DA:258,1
DA:259,1
DA:260,1
DA:261,1
DA:263,1
DA:264,1
DA:267,1
DA:268,1
DA:269,1
DA:272,1
DA:273,1
DA:274,1
DA:276,1
DA:277,1
DA:280,1
DA:281,1
DA:282,1
DA:285,1
DA:286,1
DA:289,1
DA:290,1
DA:291,1
DA:293,1
DA:294,1
DA:297,1
DA:298,1
DA:299,1
DA:302,1
DA:305,1
DA:306,1
DA:307,1
DA:308,1
DA:309,1
DA:310,1
DA:311,1
DA:313,1
DA:314,1
DA:315,1
DA:317,1
DA:320,1
DA:321,1
DA:323,1
DA:324,1
DA:327,1
DA:328,1
DA:330,1
DA:331,1
DA:333,1
DA:334,1
DA:335,1
DA:338,1
DA:339,1
DA:340,1
DA:341,1
DA:344,1
DA:345,1
DA:346,1
DA:347,1
DA:348,1
DA:349,1
DA:350,1
DA:351,1
DA:352,1
DA:353,1
DA:354,1
DA:355,1
DA:356,1
DA:357,1
DA:359,1
DA:360,1
DA:361,1
DA:362,1
DA:363,1
DA:364,1
DA:367,1
DA:369,1
DA:370,1
DA:371,1
DA:372,1
DA:373,1
DA:374,1
DA:375,1
DA:377,1
DA:378,1
DA:380,1
DA:381,1
DA:382,1
DA:383,1
DA:385,1
DA:386,1
DA:389,1
DA:390,1
DA:391,1
DA:394,1
DA:397,1
DA:398,1
DA:399,1
DA:400,1
DA:402,1
DA:403,1
DA:406,1
DA:407,1
DA:408,1
DA:411,1
DA:412,1
DA:415,1
DA:416,1
DA:418,1
DA:419,1
BRF:0
BRH:0
LF:285
LH:284
end_of_record
SF:/home/nathan/Projects/smith/shared/smith-config/src/diff.rs
FN:920,_RNvNtNtCseymUlnl0dXB_12smith_config4diff5testss_30test_scope_expansion_detection
FN:886,_RNvNtNtCseymUlnl0dXB_12smith_config4diff5testss_33test_capability_changes_detection
FN:868,_RNvNtNtCseymUlnl0dXB_12smith_config4diff5testss_34test_behavior_pack_diff_no_changes
FN:419,_RNvMNtCseymUlnl0dXB_12smith_config4diffNtB2_16BehaviorPackDiff12analyze_risk
FN:557,_RNvMNtCseymUlnl0dXB_12smith_config4diffNtB2_16BehaviorPackDiff14array_expanded
FN:488,_RNvMNtCseymUlnl0dXB_12smith_config4diffNtB2_16BehaviorPackDiff16assess_mode_risk
FN:647,_RNvMNtCseymUlnl0dXB_12smith_config4diffNtB2_16BehaviorPackDiff16generate_summary
FN:566,_RNvMNtCseymUlnl0dXB_12smith_config4diffNtB2_16BehaviorPackDiff17numeric_increased
FN:633,_RNvMNtCseymUlnl0dXB_12smith_config4diffNtB2_16BehaviorPackDiff20extract_time_changes
FN:687,_RNvMNtCseymUlnl0dXB_12smith_config4diffNtB2_16BehaviorPackDiff20generate_description
FN:358,_RNvMNtCseymUlnl0dXB_12smith_config4diffNtB2_16BehaviorPackDiff21analyze_guard_changes
FN:304,_RNvMNtCseymUlnl0dXB_12smith_config4diffNtB2_16BehaviorPackDiff21compare_param_objects
FN:603,_RNvMNtCseymUlnl0dXB_12smith_config4diffNtB2_16BehaviorPackDiff22extract_memory_changes
FN:589,_RNvMNtCseymUlnl0dXB_12smith_config4diffNtB2_16BehaviorPackDiff23extract_network_changes
FN:253,_RNvMNtCseymUlnl0dXB_12smith_config4diffNtB2_16BehaviorPackDiff25analyze_parameter_changes
FN:232,_RNvMNtCseymUlnl0dXB_12smith_config4diffNtB2_16BehaviorPackDiff26analyze_capability_changes
FN:575,_RNvMNtCseymUlnl0dXB_12smith_config4diffNtB2_16BehaviorPackDiff26extract_filesystem_changes
FN:526,_RNvMNtCseymUlnl0dXB_12smith_config4diffNtB2_16BehaviorPackDiff29detect_silent_scope_expansion
FN:196,_RNvMNtCseymUlnl0dXB_12smith_config4diffNtB2_16BehaviorPackDiff7compare
FN:724,_RNvMNtCseymUlnl0dXB_12smith_config4diffNtB2_16BehaviorPackDiff9to_report
FN:456,_RNCNvMNtCseymUlnl0dXB_12smith_config4diffNtB4_16BehaviorPackDiff12analyze_risk0B6_
FN:636,_RNCNvMNtCseymUlnl0dXB_12smith_config4diffNtB4_16BehaviorPackDiff20extract_time_changes0B6_
FN:637,_RNCNvMNtCseymUlnl0dXB_12smith_config4diffNtB4_16BehaviorPackDiff20extract_time_changess_0B6_
FN:592,_RNCNvMNtCseymUlnl0dXB_12smith_config4diffNtB4_16BehaviorPackDiff23extract_network_changes0B6_
FN:593,_RNCNvMNtCseymUlnl0dXB_12smith_config4diffNtB4_16BehaviorPackDiff23extract_network_changess_0B6_
FN:578,_RNCNvMNtCseymUlnl0dXB_12smith_config4diffNtB4_16BehaviorPackDiff26extract_filesystem_changes0B6_
FN:579,_RNCNvMNtCseymUlnl0dXB_12smith_config4diffNtB4_16BehaviorPackDiff26extract_filesystem_changess_0B6_
FNDA:1,_RNvNtNtCseymUlnl0dXB_12smith_config4diff5testss_30test_scope_expansion_detection
FNDA:1,_RNvNtNtCseymUlnl0dXB_12smith_config4diff5testss_33test_capability_changes_detection
FNDA:1,_RNvNtNtCseymUlnl0dXB_12smith_config4diff5testss_34test_behavior_pack_diff_no_changes
FNDA:20,_RNvMNtCseymUlnl0dXB_12smith_config4diffNtB2_16BehaviorPackDiff12analyze_risk
FNDA:5,_RNvMNtCseymUlnl0dXB_12smith_config4diffNtB2_16BehaviorPackDiff14array_expanded
FNDA:20,_RNvMNtCseymUlnl0dXB_12smith_config4diffNtB2_16BehaviorPackDiff16assess_mode_risk
FNDA:20,_RNvMNtCseymUlnl0dXB_12smith_config4diffNtB2_16BehaviorPackDiff16generate_summary
FNDA:1,_RNvMNtCseymUlnl0dXB_12smith_config4diffNtB2_16BehaviorPackDiff17numeric_increased
FNDA:20,_RNvMNtCseymUlnl0dXB_12smith_config4diffNtB2_16BehaviorPackDiff20extract_time_changes
FNDA:20,_RNvMNtCseymUlnl0dXB_12smith_config4diffNtB2_16BehaviorPackDiff20generate_description
FNDA:20,_RNvMNtCseymUlnl0dXB_12smith_config4diffNtB2_16BehaviorPackDiff21analyze_guard_changes
FNDA:7,_RNvMNtCseymUlnl0dXB_12smith_config4diffNtB2_16BehaviorPackDiff21compare_param_objects
FNDA:20,_RNvMNtCseymUlnl0dXB_12smith_config4diffNtB2_16BehaviorPackDiff22extract_memory_changes
FNDA:20,_RNvMNtCseymUlnl0dXB_12smith_config4diffNtB2_16BehaviorPackDiff23extract_network_changes
FNDA:20,_RNvMNtCseymUlnl0dXB_12smith_config4diffNtB2_16BehaviorPackDiff25analyze_parameter_changes
FNDA:20,_RNvMNtCseymUlnl0dXB_12smith_config4diffNtB2_16BehaviorPackDiff26analyze_capability_changes
FNDA:20,_RNvMNtCseymUlnl0dXB_12smith_config4diffNtB2_16BehaviorPackDiff26extract_filesystem_changes
FNDA:20,_RNvMNtCseymUlnl0dXB_12smith_config4diffNtB2_16BehaviorPackDiff29detect_silent_scope_expansion
FNDA:20,_RNvMNtCseymUlnl0dXB_12smith_config4diffNtB2_16BehaviorPackDiff7compare
FNDA:1,_RNvMNtCseymUlnl0dXB_12smith_config4diffNtB2_16BehaviorPackDiff9to_report
FNDA:7,_RNCNvMNtCseymUlnl0dXB_12smith_config4diffNtB4_16BehaviorPackDiff12analyze_risk0B6_
FNDA:11,_RNCNvMNtCseymUlnl0dXB_12smith_config4diffNtB4_16BehaviorPackDiff20extract_time_changes0B6_
FNDA:1,_RNCNvMNtCseymUlnl0dXB_12smith_config4diffNtB4_16BehaviorPackDiff20extract_time_changess_0B6_
FNDA:11,_RNCNvMNtCseymUlnl0dXB_12smith_config4diffNtB4_16BehaviorPackDiff23extract_network_changes0B6_
FNDA:5,_RNCNvMNtCseymUlnl0dXB_12smith_config4diffNtB4_16BehaviorPackDiff23extract_network_changess_0B6_
FNDA:11,_RNCNvMNtCseymUlnl0dXB_12smith_config4diffNtB4_16BehaviorPackDiff26extract_filesystem_changes0B6_
FNDA:4,_RNCNvMNtCseymUlnl0dXB_12smith_config4diffNtB4_16BehaviorPackDiff26extract_filesystem_changess_0B6_
FNF:27
FNH:27
DA:196,20
DA:197,20
DA:198,20
DA:199,20
DA:200,20
DA:201,20
DA:202,20
DA:203,20
DA:205,20
DA:206,20
DA:207,20
DA:208,20
DA:209,20
DA:210,20
DA:211,20
DA:212,20
DA:214,20
DA:215,20
DA:216,20
DA:217,20
DA:218,20
DA:221,20
DA:222,20
DA:223,20
DA:224,20
DA:225,20
DA:226,20
DA:227,20
DA:228,20
DA:229,20
DA:232,20
DA:233,20
DA:234,20
DA:236,20
DA:237,20
DA:239,20
DA:240,20
DA:242,20
DA:243,20
DA:244,20
DA:245,20
DA:246,20
DA:247,20
DA:248,20
DA:249,20
DA:250,20
DA:253,20
DA:254,20
DA:257,20
DA:258,20
DA:259,20
DA:261,31
DA:262,11
DA:263,11
DA:265,11
DA:266,4
DA:268,4
DA:269,8
DA:270,4
DA:271,4
DA:272,4
DA:273,4
DA:274,4
DA:275,4
DA:276,4
DA:277,4
DA:278,0
DA:280,0
DA:281,0
DA:282,0
DA:283,0
DA:284,0
DA:285,0
DA:286,0
DA:287,0
DA:288,0
DA:289,0
DA:290,7
DA:291,7
DA:292,7
DA:293,7
DA:294,0
DA:295,0
DA:296,0
DA:300,20
DA:301,20
DA:304,7
DA:305,7
DA:306,7
DA:307,7
DA:308,7
DA:309,7
DA:310,7
DA:311,7
DA:312,7
DA:313,7
DA:315,14
DA:316,7
DA:317,7
DA:319,7
DA:320,0
DA:321,0
DA:322,0
DA:323,0
DA:324,0
DA:325,0
DA:326,0
DA:327,0
DA:328,0
DA:329,0
DA:330,0
DA:331,0
DA:332,0
DA:333,0
DA:334,0
DA:335,0
DA:336,0
DA:337,0
DA:338,7
DA:339,7
DA:340,7
DA:341,7
DA:342,7
DA:343,7
DA:344,7
DA:345,7
DA:346,7
DA:347,7
DA:349,0
DA:350,0
DA:351,0
DA:354,0
DA:355,7
DA:358,20
DA:359,20
DA:360,20
DA:361,20
DA:362,20
DA:363,20
DA:366,20
DA:367,20
DA:369,20
DA:370,3
DA:371,3
DA:372,3
DA:373,3
DA:374,3
DA:376,0
DA:378,3
DA:381,17
DA:383,20
DA:384,4
DA:385,4
DA:386,4
DA:387,4
DA:388,4
DA:389,0
DA:391,4
DA:394,16
DA:395,0
DA:398,20
DA:399,20
DA:401,20
DA:402,0
DA:403,0
DA:404,0
DA:405,0
DA:406,0
DA:407,0
DA:409,0
DA:412,20
DA:413,0
DA:415,20
DA:416,20
DA:419,20
DA:420,20
DA:421,20
DA:422,20
DA:423,20
DA:424,20
DA:425,20
DA:428,20
DA:429,20
DA:432,20
DA:433,20
DA:434,20
DA:436,20
DA:437,8
DA:438,8
DA:439,3
DA:440,1
DA:442,12
DA:445,20
DA:446,20
DA:447,6
DA:448,14
DA:451,20
DA:452,20
DA:453,20
DA:454,20
DA:455,20
DA:456,20
DA:457,20
DA:459,20
DA:460,4
DA:461,16
DA:464,20
DA:467,20
DA:469,20
DA:470,20
DA:471,20
DA:472,6
DA:474,14
DA:477,20
DA:478,20
DA:479,20
DA:480,20
DA:481,20
DA:482,20
DA:483,20
DA:485,20
DA:488,20
DA:491,20
DA:492,6
DA:493,6
DA:494,6
DA:495,6
DA:496,6
DA:497,0
DA:498,0
DA:499,0
DA:500,0
DA:501,0
DA:502,0
DA:503,0
DA:504,0
DA:505,0
DA:506,0
DA:507,0
DA:508,0
DA:509,0
DA:510,0
DA:511,0
DA:512,0
DA:513,0
DA:514,0
DA:515,0
DA:516,0
DA:517,0
DA:518,14
DA:519,14
DA:520,14
DA:521,14
DA:523,20
DA:526,20
DA:527,24
DA:528,10
DA:529,10
DA:530,4
DA:531,4
DA:532,4
DA:533,0
DA:534,0
DA:536,6
DA:537,1
DA:538,1
DA:539,1
DA:540,0
DA:541,0
DA:543,5
DA:544,4
DA:545,1
DA:546,1
DA:547,0
DA:548,3
DA:550,1
DA:553,14
DA:554,20
DA:557,5
DA:558,5
DA:559,5
DA:561,0
DA:563,5
DA:566,1
DA:567,1
DA:568,1
DA:570,0
DA:572,1
DA:575,20
DA:576,20
DA:577,20
DA:578,20
DA:579,20
DA:580,4
DA:581,4
DA:584,4
DA:585,20
DA:586,20
DA:589,20
DA:590,20
DA:591,20
DA:592,20
DA:593,20
DA:594,5
DA:595,5
DA:598,5
DA:599,20
DA:600,20
DA:603,20
DA:604,20
DA:605,20
DA:606,20
DA:607,20
DA:610,31
DA:611,11
DA:612,3
DA:613,3
DA:614,3
DA:615,3
DA:616,8
DA:620,27
DA:621,7
DA:622,3
DA:623,3
DA:624,3
DA:625,3
DA:626,4
DA:629,20
DA:630,20
DA:633,20
DA:634,20
DA:635,20
DA:636,20
DA:637,20
DA:638,1
DA:639,1
DA:642,1
DA:643,20
DA:644,20
DA:647,20
DA:648,20
DA:649,20
DA:650,20
DA:651,20
DA:652,20
DA:653,20
DA:654,20
DA:655,20
DA:656,20
DA:657,20
DA:658,20
DA:660,20
DA:661,20
DA:662,20
DA:664,20
DA:665,20
DA:667,13
DA:668,13
DA:670,20
DA:671,20
DA:672,20
DA:673,20
DA:674,20
DA:677,20
DA:678,20
DA:679,20
DA:680,20
DA:681,20
DA:682,20
DA:683,20
DA:684,20
DA:687,20
DA:688,20
DA:689,20
DA:690,20
DA:691,20
DA:692,20
DA:693,20
DA:695,20
DA:696,8
DA:697,12
DA:699,20
DA:700,9
DA:701,11
DA:703,20
DA:704,4
DA:705,16
DA:707,20
DA:708,5
DA:710,15
DA:713,20
DA:714,6
DA:715,7
DA:716,1
DA:717,6
DA:720,20
DA:721,20
DA:724,1
DA:725,1
DA:727,1
DA:728,1
DA:729,1
DA:730,1
DA:731,1
DA:732,1
DA:733,1
DA:734,1
DA:735,1
DA:736,1
DA:737,1
DA:738,1
DA:741,1
DA:742,1
DA:745,1
DA:746,1
DA:747,1
DA:748,1
DA:749,1
DA:750,1
DA:752,1
DA:753,0
DA:754,1
DA:757,1
DA:758,1
DA:759,1
DA:760,1
DA:761,1
DA:763,1
DA:764,0
DA:765,1
DA:767,1
DA:768,1
DA:769,1
DA:770,1
DA:773,1
DA:774,1
DA:776,1
DA:777,1
DA:778,1
DA:779,1
DA:780,1
DA:781,1
DA:782,1
DA:783,0
DA:784,0
DA:785,0
DA:786,0
DA:787,1
DA:788,1
DA:789,1
DA:790,1
DA:791,1
DA:792,1
DA:793,1
DA:794,1
DA:795,0
DA:796,0
DA:797,0
DA:798,0
DA:799,1
DA:800,1
DA:801,0
DA:802,0
DA:803,0
DA:804,0
DA:805,1
DA:806,1
DA:807,1
DA:808,1
DA:809,1
DA:810,1
DA:811,1
DA:812,1
DA:813,0
DA:816,1
DA:817,1
DA:818,2
DA:819,1
DA:820,1
DA:821,0
DA:822,0
DA:824,1
DA:825,1
DA:826,1
DA:827,1
DA:828,1
DA:829,1
DA:830,1
DA:831,1
DA:833,1
DA:834,0
DA:837,1
DA:838,1
DA:839,3
DA:840,2
DA:841,1
DA:842,1
DA:843,0
DA:845,2
DA:846,2
DA:847,2
DA:848,2
DA:850,1
DA:851,0
DA:853,1
DA:854,1
DA:868,1
DA:869,1
DA:870,1
DA:871,1
DA:872,1
DA:873,1
DA:874,1
DA:875,1
DA:877,1
DA:879,1
DA:880,1
DA:881,1
DA:882,1
DA:883,1
DA:886,1
DA:887,1
DA:888,1
DA:889,1
DA:890,1
DA:891,1
DA:892,1
DA:893,1
DA:894,1
DA:895,1
DA:896,1
DA:897,1
DA:899,1
DA:900,1
DA:901,1
DA:902,1
DA:903,1
DA:904,1
DA:905,1
DA:906,1
DA:907,1
DA:908,1
DA:909,1
DA:911,1
DA:913,1
DA:914,1
DA:915,1
DA:916,1
DA:917,1
DA:920,1
DA:921,1
DA:922,1
DA:923,1
DA:924,1
DA:925,1
DA:929,1
DA:930,1
DA:931,1
DA:932,1
DA:933,1
DA:937,1
DA:938,1
DA:939,1
DA:940,1
DA:941,1
DA:942,1
DA:943,1
DA:945,1
DA:946,1
DA:947,1
DA:948,1
DA:949,1
DA:950,1
DA:951,1
DA:953,1
DA:954,1
DA:955,1
DA:956,1
DA:959,1
BRF:0
BRH:0
LF:586
LH:491
end_of_record
SF:/home/nathan/Projects/smith/shared/smith-config/src/diff_tests.rs
FN:297,_RNCNvNtCseymUlnl0dXB_12smith_config10diff_testss_30test_complex_parameter_nesting0B5_
FN:87,_RNCNvNtCseymUlnl0dXB_12smith_config10diff_testss_32test_parameter_changes_detection0B5_
FN:93,_RNCNvNtCseymUlnl0dXB_12smith_config10diff_testss_32test_parameter_changes_detections_0B5_
FN:12,_RNvNtCseymUlnl0dXB_12smith_config10diff_tests16create_test_pack
FN:179,_RNvNtCseymUlnl0dXB_12smith_config10diff_testss_23test_summary_generation
FN:205,_RNvNtCseymUlnl0dXB_12smith_config10diff_testss_24test_review_requirements
FN:229,_RNvNtCseymUlnl0dXB_12smith_config10diff_testss_25test_to_report_generation
FN:37,_RNvNtCseymUlnl0dXB_12smith_config10diff_testss_26test_basic_pack_comparison
FN:23,_RNvNtCseymUlnl0dXB_12smith_config10diff_testss_27test_diff_metadata_creation
FN:122,_RNvNtCseymUlnl0dXB_12smith_config10diff_testss_27test_risk_analysis_low_risk
FN:99,_RNvNtCseymUlnl0dXB_12smith_config10diff_testss_28test_guard_changes_detection
FN:274,_RNvNtCseymUlnl0dXB_12smith_config10diff_testss_30test_complex_parameter_nesting
FN:136,_RNvNtCseymUlnl0dXB_12smith_config10diff_testss_30test_risk_analysis_medium_risk
FN:260,_RNvNtCseymUlnl0dXB_12smith_config10diff_testss_31test_identical_packs_no_changes
FN:313,_RNvNtCseymUlnl0dXB_12smith_config10diff_testss_31test_risk_factors_comprehensive
FN:72,_RNvNtCseymUlnl0dXB_12smith_config10diff_testss_32test_parameter_changes_detection
FN:50,_RNvNtCseymUlnl0dXB_12smith_config10diff_testss_33test_capability_changes_detection
FN:149,_RNvNtCseymUlnl0dXB_12smith_config10diff_testss_36test_scope_expansion_detection_hosts
FN:164,_RNvNtCseymUlnl0dXB_12smith_config10diff_testss_36test_scope_expansion_detection_paths
FN:302,_RNvNtCseymUlnl0dXB_12smith_config10diff_testss_38test_error_handling_invalid_comparison
FNDA:1,_RNCNvNtCseymUlnl0dXB_12smith_config10diff_testss_30test_complex_parameter_nesting0B5_
FNDA:2,_RNCNvNtCseymUlnl0dXB_12smith_config10diff_testss_32test_parameter_changes_detection0B5_
FNDA:2,_RNCNvNtCseymUlnl0dXB_12smith_config10diff_testss_32test_parameter_changes_detections_0B5_
FNDA:34,_RNvNtCseymUlnl0dXB_12smith_config10diff_tests16create_test_pack
FNDA:1,_RNvNtCseymUlnl0dXB_12smith_config10diff_testss_23test_summary_generation
FNDA:1,_RNvNtCseymUlnl0dXB_12smith_config10diff_testss_24test_review_requirements
FNDA:1,_RNvNtCseymUlnl0dXB_12smith_config10diff_testss_25test_to_report_generation
FNDA:1,_RNvNtCseymUlnl0dXB_12smith_config10diff_testss_26test_basic_pack_comparison
FNDA:1,_RNvNtCseymUlnl0dXB_12smith_config10diff_testss_27test_diff_metadata_creation
FNDA:1,_RNvNtCseymUlnl0dXB_12smith_config10diff_testss_27test_risk_analysis_low_risk
FNDA:1,_RNvNtCseymUlnl0dXB_12smith_config10diff_testss_28test_guard_changes_detection
FNDA:1,_RNvNtCseymUlnl0dXB_12smith_config10diff_testss_30test_complex_parameter_nesting
FNDA:1,_RNvNtCseymUlnl0dXB_12smith_config10diff_testss_30test_risk_analysis_medium_risk
FNDA:1,_RNvNtCseymUlnl0dXB_12smith_config10diff_testss_31test_identical_packs_no_changes
FNDA:1,_RNvNtCseymUlnl0dXB_12smith_config10diff_testss_31test_risk_factors_comprehensive
FNDA:1,_RNvNtCseymUlnl0dXB_12smith_config10diff_testss_32test_parameter_changes_detection
FNDA:1,_RNvNtCseymUlnl0dXB_12smith_config10diff_testss_33test_capability_changes_detection
FNDA:1,_RNvNtCseymUlnl0dXB_12smith_config10diff_testss_36test_scope_expansion_detection_hosts
FNDA:1,_RNvNtCseymUlnl0dXB_12smith_config10diff_testss_36test_scope_expansion_detection_paths
FNDA:1,_RNvNtCseymUlnl0dXB_12smith_config10diff_testss_38test_error_handling_invalid_comparison
FNF:20
FNH:20
DA:12,34
DA:13,34
DA:14,34
DA:15,34
DA:16,34
DA:17,34
DA:18,34
DA:19,34
DA:20,34
DA:23,1
DA:24,1
DA:25,1
DA:27,1
DA:29,1
DA:30,1
DA:31,1
DA:32,1
DA:33,1
DA:34,1
DA:37,1
DA:38,1
DA:39,1
DA:41,1
DA:43,1
DA:44,1
DA:45,1
DA:46,1
DA:47,1
DA:50,1
DA:51,1
DA:52,1
DA:55,1
DA:56,1
DA:57,1
DA:60,1
DA:62,1
DA:65,1
DA:66,1
DA:67,1
DA:68,1
DA:69,1
DA:72,1
DA:73,1
DA:74,1
DA:77,1
DA:78,1
DA:79,1
DA:81,1
DA:83,1
DA:86,1
DA:87,2
DA:88,1
DA:89,1
DA:92,1
DA:93,2
DA:94,1
DA:95,1
DA:96,1
DA:99,1
DA:100,1
DA:101,1
DA:104,1
DA:105,1
DA:106,1
DA:107,1
DA:109,1
DA:110,1
DA:111,1
DA:113,1
DA:115,1
DA:116,1
DA:117,1
DA:118,1
DA:119,1
DA:122,1
DA:123,1
DA:124,1
DA:127,1
DA:129,1
DA:131,1
DA:132,1
DA:133,1
DA:136,1
DA:137,1
DA:138,1
DA:141,1
DA:143,1
DA:145,1
DA:146,1
DA:149,1
DA:150,1
DA:151,1
DA:154,1
DA:155,1
DA:157,1
DA:159,1
DA:160,1
DA:161,1
DA:164,1
DA:165,1
DA:166,1
DA:169,1
DA:170,1
DA:172,1
DA:174,1
DA:175,1
DA:176,1
DA:179,1
DA:180,1
DA:181,1
DA:184,1
DA:185,1
DA:188,1
DA:191,1
DA:192,1
DA:193,1
DA:194,1
DA:196,1
DA:198,1
DA:199,1
DA:200,1
DA:201,1
DA:202,1
DA:205,1
DA:206,1
DA:207,1
DA:210,1
DA:211,1
DA:213,1
DA:214,1
DA:217,1
DA:218,1
DA:219,1
DA:220,1
DA:221,1
DA:224,1
DA:225,1
DA:226,1
DA:229,1
DA:230,1
DA:231,1
DA:234,1
DA:235,1
DA:236,1
DA:238,1
DA:239,1
DA:240,1
DA:241,1
DA:242,1
DA:244,1
DA:245,1
DA:248,1
DA:249,1
DA:250,1
DA:251,1
DA:254,1
DA:255,1
DA:256,1
DA:257,1
DA:260,1
DA:261,1
DA:262,1
DA:264,1
DA:266,1
DA:267,1
DA:268,1
DA:269,1
DA:270,1
DA:271,1
DA:274,1
DA:275,1
DA:276,1
DA:279,1
DA:280,1
DA:281,1
DA:282,1
DA:286,1
DA:287,1
DA:288,1
DA:289,1
DA:293,1
DA:295,1
DA:296,1
DA:297,1
DA:299,1
DA:302,1
DA:304,1
DA:305,1
DA:308,1
DA:309,1
DA:310,1
DA:313,1
DA:314,1
DA:315,1
DA:318,1
DA:319,1
DA:320,1
DA:321,1
DA:324,1
DA:325,1
DA:326,1
DA:328,1
DA:329,1
DA:330,1
DA:331,1
DA:333,1
DA:335,1
DA:336,1
DA:337,1
DA:338,1
BRF:0
BRH:0
LF:212
LH:212
end_of_record
SF:/home/nathan/Projects/smith/shared/smith-config/src/env_and_io_tests.rs
FN:12,_RNvNtNtCseymUlnl0dXB_12smith_config16env_and_io_tests5testss_21test_apply_env_string
FN:30,_RNvNtNtCseymUlnl0dXB_12smith_config16env_and_io_tests5testss_24test_apply_env_parse_u16
FN:54,_RNvNtNtCseymUlnl0dXB_12smith_config16env_and_io_tests5testss_25test_apply_env_parse_bool
FN:305,_RNvNtNtCseymUlnl0dXB_12smith_config16env_and_io_tests5testss_27test_config_from_file_valid
FN:267,_RNvNtNtCseymUlnl0dXB_12smith_config16env_and_io_tests5testss_28test_apply_all_env_overrides
FN:110,_RNvNtNtCseymUlnl0dXB_12smith_config16env_and_io_tests5testss_29test_apply_http_env_overrides
FN:79,_RNvNtNtCseymUlnl0dXB_12smith_config16env_and_io_tests5testss_29test_apply_nats_env_overrides
FN:284,_RNvNtNtCseymUlnl0dXB_12smith_config16env_and_io_tests5testss_29test_config_from_file_missing
FN:276,_RNvNtNtCseymUlnl0dXB_12smith_config16env_and_io_tests5testss_29test_from_env_without_figment
FN:170,_RNvNtNtCseymUlnl0dXB_12smith_config16env_and_io_tests5testss_32test_apply_logging_env_overrides
FN:207,_RNvNtNtCseymUlnl0dXB_12smith_config16env_and_io_tests5testss_32test_apply_metrics_env_overrides
FN:140,_RNvNtNtCseymUlnl0dXB_12smith_config16env_and_io_tests5testss_33test_apply_executor_env_overrides
FN:293,_RNvNtNtCseymUlnl0dXB_12smith_config16env_and_io_tests5testss_34test_config_from_file_invalid_toml
FN:237,_RNvNtNtCseymUlnl0dXB_12smith_config16env_and_io_tests5testss_38test_apply_observability_env_overrides
FN:388,_RNvNtNtCseymUlnl0dXB_12smith_config16env_and_io_tests5testss_38test_nats_logging_config_comprehensive
FN:448,_RNvNtNtCseymUlnl0dXB_12smith_config16env_and_io_tests5testss_40test_environment_variable_parsing_errors
FN:490,_RNvNtNtCseymUlnl0dXB_12smith_config16env_and_io_tests5testss_42test_observability_redaction_level_parsing
FN:357,_RNvNtNtCseymUlnl0dXB_12smith_config16env_and_io_tests5testss_43test_complex_environment_variable_scenarios
FNDA:1,_RNvNtNtCseymUlnl0dXB_12smith_config16env_and_io_tests5testss_21test_apply_env_string
FNDA:1,_RNvNtNtCseymUlnl0dXB_12smith_config16env_and_io_tests5testss_24test_apply_env_parse_u16
FNDA:1,_RNvNtNtCseymUlnl0dXB_12smith_config16env_and_io_tests5testss_25test_apply_env_parse_bool
FNDA:1,_RNvNtNtCseymUlnl0dXB_12smith_config16env_and_io_tests5testss_27test_config_from_file_valid
FNDA:1,_RNvNtNtCseymUlnl0dXB_12smith_config16env_and_io_tests5testss_28test_apply_all_env_overrides
FNDA:1,_RNvNtNtCseymUlnl0dXB_12smith_config16env_and_io_tests5testss_29test_apply_http_env_overrides
FNDA:1,_RNvNtNtCseymUlnl0dXB_12smith_config16env_and_io_tests5testss_29test_apply_nats_env_overrides
FNDA:1,_RNvNtNtCseymUlnl0dXB_12smith_config16env_and_io_tests5testss_29test_config_from_file_missing
FNDA:1,_RNvNtNtCseymUlnl0dXB_12smith_config16env_and_io_tests5testss_29test_from_env_without_figment
FNDA:1,_RNvNtNtCseymUlnl0dXB_12smith_config16env_and_io_tests5testss_32test_apply_logging_env_overrides
FNDA:1,_RNvNtNtCseymUlnl0dXB_12smith_config16env_and_io_tests5testss_32test_apply_metrics_env_overrides
FNDA:1,_RNvNtNtCseymUlnl0dXB_12smith_config16env_and_io_tests5testss_33test_apply_executor_env_overrides
FNDA:1,_RNvNtNtCseymUlnl0dXB_12smith_config16env_and_io_tests5testss_34test_config_from_file_invalid_toml
FNDA:1,_RNvNtNtCseymUlnl0dXB_12smith_config16env_and_io_tests5testss_38test_apply_observability_env_overrides
FNDA:1,_RNvNtNtCseymUlnl0dXB_12smith_config16env_and_io_tests5testss_38test_nats_logging_config_comprehensive
FNDA:1,_RNvNtNtCseymUlnl0dXB_12smith_config16env_and_io_tests5testss_40test_environment_variable_parsing_errors
FNDA:1,_RNvNtNtCseymUlnl0dXB_12smith_config16env_and_io_tests5testss_42test_observability_redaction_level_parsing
FNDA:1,_RNvNtNtCseymUlnl0dXB_12smith_config16env_and_io_tests5testss_43test_complex_environment_variable_scenarios
FNF:18
FNH:18
DA:12,1
DA:13,1
DA:16,1
DA:17,1
DA:19,1
DA:20,1
DA:23,1
DA:24,0
DA:25,1
DA:27,1
DA:30,1
DA:31,1
DA:34,1
DA:35,1
DA:37,1
DA:38,1
DA:39,1
DA:42,1
DA:43,1
DA:44,1
DA:47,1
DA:48,0
DA:49,1
DA:51,1
DA:54,1
DA:55,1
DA:58,1
DA:59,1
DA:61,1
DA:62,1
DA:63,1
DA:66,1
DA:67,1
DA:68,1
DA:69,1
DA:72,1
DA:73,0
DA:74,1
DA:76,1
DA:79,1
DA:80,1
DA:81,1
DA:83,1
DA:84,1
DA:87,1
DA:88,1
DA:91,1
DA:92,1
DA:95,1
DA:96,1
DA:99,1
DA:100,0
DA:101,1
DA:103,1
DA:104,0
DA:105,1
DA:107,1
DA:110,1
DA:111,1
DA:112,1
DA:114,1
DA:117,1
DA:118,1
DA:121,1
DA:122,1
DA:125,1
DA:126,1
DA:129,1
DA:130,0
DA:131,1
DA:133,1
DA:134,0
DA:135,1
DA:137,1
DA:140,1
DA:141,1
DA:142,1
DA:144,1
DA:147,1
DA:148,1
DA:151,1
DA:152,1
DA:155,1
DA:156,1
DA:159,1
DA:160,0
DA:161,1
DA:163,1
DA:164,0
DA:165,1
DA:167,1
DA:170,1
DA:171,1
DA:172,1
DA:173,1
DA:175,1
DA:178,1
DA:179,1
DA:180,1
DA:183,1
DA:184,1
DA:187,1
DA:188,1
DA:189,1
DA:192,1
DA:193,0
DA:194,1
DA:196,1
DA:197,0
DA:198,1
DA:200,1
DA:201,0
DA:202,1
DA:204,1
DA:207,1
DA:208,1
DA:209,1
DA:211,1
DA:214,1
DA:215,1
DA:218,1
DA:219,1
DA:222,1
DA:223,1
DA:226,1
DA:227,0
DA:228,1
DA:230,1
DA:231,0
DA:232,1
DA:234,1
DA:237,1
DA:238,1
DA:239,1
DA:241,1
DA:244,1
DA:245,1
DA:248,1
DA:249,1
DA:252,1
DA:253,1
DA:256,1
DA:257,0
DA:258,1
DA:260,1
DA:261,0
DA:262,1
DA:264,1
DA:267,1
DA:268,1
DA:271,1
DA:272,1
DA:273,1
DA:276,1
DA:278,1
DA:280,1
DA:281,1
DA:284,1
DA:285,1
DA:286,1
DA:288,1
DA:289,1
DA:290,1
DA:293,1
DA:294,1
DA:295,1
DA:298,1
DA:300,1
DA:301,1
DA:302,1
DA:305,1
DA:306,1
DA:307,1
DA:310,1
DA:311,1
DA:312,1
DA:313,1
DA:314,1
DA:315,1
DA:316,1
DA:317,1
DA:318,1
DA:319,1
DA:320,1
DA:321,1
DA:322,1
DA:323,1
DA:324,1
DA:325,1
DA:326,1
DA:327,1
DA:328,1
DA:329,1
DA:330,1
DA:331,1
DA:332,1
DA:333,1
DA:334,1
DA:335,1
DA:336,1
DA:337,1
DA:338,1
DA:339,1
DA:340,1
DA:341,1
DA:342,1
DA:343,1
DA:344,1
DA:345,1
DA:346,1
DA:347,1
DA:349,1
DA:351,1
DA:353,1
DA:354,1
DA:357,1
DA:359,1
DA:361,1
DA:364,1
DA:365,1
DA:366,1
DA:368,1
DA:369,1
DA:370,1
DA:371,1
DA:374,1
DA:375,1
DA:376,1
DA:377,1
DA:378,1
DA:381,1
DA:382,0
DA:383,1
DA:385,1
DA:388,1
DA:389,1
DA:390,1
DA:392,1
DA:395,1
DA:396,1
DA:397,1
DA:398,1
DA:399,1
DA:400,1
DA:401,1
DA:402,1
DA:403,1
DA:404,1
DA:406,1
DA:407,1
DA:410,1
DA:411,1
DA:412,1
DA:413,1
DA:414,1
DA:415,1
DA:416,1
DA:417,1
DA:418,1
DA:419,1
DA:422,2
DA:423,1
DA:424,1
DA:426,2
DA:427,0
DA:428,2
DA:433,8
DA:435,1
DA:436,1
DA:437,1
DA:438,1
DA:439,1
DA:440,1
DA:441,1
DA:442,8
DA:443,8
DA:444,8
DA:445,1
DA:448,1
DA:449,1
DA:450,1
DA:452,1
DA:455,1
DA:456,1
DA:458,1
DA:461,0
DA:464,1
DA:468,1
DA:469,1
DA:470,1
DA:472,1
DA:473,0
DA:475,1
DA:479,1
DA:480,0
DA:481,1
DA:483,1
DA:484,0
DA:485,1
DA:487,1
DA:490,1
DA:491,1
DA:493,1
DA:496,1
DA:497,1
DA:498,1
DA:500,1
DA:501,1
DA:502,1
DA:505,1
DA:506,1
DA:507,1
DA:510,1
DA:511,0
DA:512,1
DA:514,1
BRF:0
BRH:0
LF:316
LH:293
end_of_record
SF:/home/nathan/Projects/smith/shared/smith-config/src/executor.rs
FN:407,_RNvMs4_NtCseymUlnl0dXB_12smith_config8executorNtB5_14ExecutorConfig10production
FN:382,_RNvMs4_NtCseymUlnl0dXB_12smith_config8executorNtB5_14ExecutorConfig11development
FN:451,_RNvMs4_NtCseymUlnl0dXB_12smith_config8executorNtB5_14ExecutorConfig7testing
FN:301,_RNvMs4_NtCseymUlnl0dXB_12smith_config8executorNtB5_14ExecutorConfig8validate
FN:511,_RNvMs5_NtCseymUlnl0dXB_12smith_config8executorNtB5_18IntentStreamConfig17validate_duration
FN:536,_RNvMs5_NtCseymUlnl0dXB_12smith_config8executorNtB5_18IntentStreamConfig18validate_byte_size
FN:487,_RNvMs5_NtCseymUlnl0dXB_12smith_config8executorNtB5_18IntentStreamConfig8validate
FN:565,_RNvMs6_NtCseymUlnl0dXB_12smith_config8executorNtB5_13ResultsConfig8validate
FN:583,_RNvMs7_NtCseymUlnl0dXB_12smith_config8executorNtB5_12LimitsConfig8validate
FN:603,_RNvMs8_NtCseymUlnl0dXB_12smith_config8executorNtB5_13DefaultLimits8validate
FN:633,_RNvMs9_NtCseymUlnl0dXB_12smith_config8executorNtB5_14SecurityConfig8validate
FN:655,_RNvMsa_NtCseymUlnl0dXB_12smith_config8executorNtB5_12PolicyConfig8validate
FN:669,_RNvMsb_NtCseymUlnl0dXB_12smith_config8executorNtB5_18ExecutorNatsConfig8validate
FN:726,_RNvMsc_NtCseymUlnl0dXB_12smith_config8executorNtB5_14ExecutorConfig15parse_byte_size
FN:199,_RNvXNtCseymUlnl0dXB_12smith_config8executorNtB2_14ExecutorConfigNtNtCs66KPHxksi63_4core7default7Default7default
FN:254,_RNvXs0_NtCseymUlnl0dXB_12smith_config8executorNtB5_13DefaultLimitsNtNtCs66KPHxksi63_4core7default7Default7default
FN:267,_RNvXs1_NtCseymUlnl0dXB_12smith_config8executorNtB5_14SecurityConfigNtNtCs66KPHxksi63_4core7default7Default7default
FN:279,_RNvXs2_NtCseymUlnl0dXB_12smith_config8executorNtB5_12PolicyConfigNtNtCs66KPHxksi63_4core7default7Default7default
FN:289,_RNvXs3_NtCseymUlnl0dXB_12smith_config8executorNtB5_18ExecutorNatsConfigNtNtCs66KPHxksi63_4core7default7Default7default
FN:244,_RNvXs_NtCseymUlnl0dXB_12smith_config8executorNtB4_13ResultsConfigNtNtCs66KPHxksi63_4core7default7Default7default
FN:810,_RNvXse_NtCseymUlnl0dXB_12smith_config8executorNtB5_17AttestationConfigNtNtCs66KPHxksi63_4core7default7Default7default
FN:1053,_RNvNtNtCseymUlnl0dXB_12smith_config8executor5testss_18test_cgroup_limits
FN:1087,_RNvNtNtCseymUlnl0dXB_12smith_config8executor5testss_20test_parse_byte_size
FN:1132,_RNvNtNtCseymUlnl0dXB_12smith_config8executor5testss_21test_debug_formatting
FN:866,_RNvNtNtCseymUlnl0dXB_12smith_config8executor5testss_25test_intent_stream_config
FN:918,_RNvNtNtCseymUlnl0dXB_12smith_config8executor5testss_26test_limits_config_default
FN:910,_RNvNtNtCseymUlnl0dXB_12smith_config8executor5testss_27test_results_config_default
FN:1064,_RNvNtNtCseymUlnl0dXB_12smith_config8executor5testss_28test_executor_config_presets
FN:1100,_RNvNtNtCseymUlnl0dXB_12smith_config8executor5testss_28test_serialization_roundtrip
FN:838,_RNvNtNtCseymUlnl0dXB_12smith_config8executor5testss_29test_executor_config_creation
FN:978,_RNvNtNtCseymUlnl0dXB_12smith_config8executor5testss_29test_policy_config_validation
FN:927,_RNvNtNtCseymUlnl0dXB_12smith_config8executor5testss_30test_default_limits_validation
FN:1042,_RNvNtNtCseymUlnl0dXB_12smith_config8executor5testss_31test_attestation_config_default
FN:952,_RNvNtNtCseymUlnl0dXB_12smith_config8executor5testss_31test_security_config_validation
FN:992,_RNvNtNtCseymUlnl0dXB_12smith_config8executor5testss_36test_executor_nats_config_validation
FN:881,_RNvNtNtCseymUlnl0dXB_12smith_config8executor5testss_36test_intent_stream_config_validation
FN:1012,_RNvNtNtCseymUlnl0dXB_12smith_config8executor5testss_40test_executor_nats_config_tls_validation
FN:353,_RNCNvMs4_NtCseymUlnl0dXB_12smith_config8executorNtB7_14ExecutorConfig8validate0B9_
FN:519,_RNCNvMs5_NtCseymUlnl0dXB_12smith_config8executorNtB7_18IntentStreamConfig17validate_duration0B9_
FN:531,_RNCNvMs5_NtCseymUlnl0dXB_12smith_config8executorNtB7_18IntentStreamConfig17validate_durations_0B9_
FN:544,_RNCNvMs5_NtCseymUlnl0dXB_12smith_config8executorNtB7_18IntentStreamConfig18validate_byte_size0B9_
FN:555,_RNCNvMs5_NtCseymUlnl0dXB_12smith_config8executorNtB7_18IntentStreamConfig18validate_byte_sizes0_0B9_
FN:545,_RNCNvMs5_NtCseymUlnl0dXB_12smith_config8executorNtB7_18IntentStreamConfig18validate_byte_sizes_0B9_
FN:589,_RNCNvMs7_NtCseymUlnl0dXB_12smith_config8executorNtB7_12LimitsConfig8validate0B9_
FN:637,_RNCNvMs9_NtCseymUlnl0dXB_12smith_config8executorNtB7_14SecurityConfig8validate0B9_
FN:739,_RNCNvMsc_NtCseymUlnl0dXB_12smith_config8executorNtB7_14ExecutorConfig15parse_byte_size0B9_
FN:816,_RNCNvXse_NtCseymUlnl0dXB_12smith_config8executorNtB7_17AttestationConfigNtNtCs66KPHxksi63_4core7default7Default7default0B9_
FN:822,_RNCNvXse_NtCseymUlnl0dXB_12smith_config8executorNtB7_17AttestationConfigNtNtCs66KPHxksi63_4core7default7Default7defaults_0B9_
FN:758,_RNCNvMsc_NtCseymUlnl0dXB_12smith_config8executorNtB7_14ExecutorConfig22parse_duration_seconds0B9_
FN:771,_RNCNvMsc_NtCseymUlnl0dXB_12smith_config8executorNtB7_14ExecutorConfig4load0B9_
FN:774,_RNCNvMsc_NtCseymUlnl0dXB_12smith_config8executorNtB7_14ExecutorConfig4loads_0B9_
FN:785,_RNCNvMsd_NtCseymUlnl0dXB_12smith_config8executorNtB7_17PolicyDerivations4load0B9_
FN:788,_RNCNvMsd_NtCseymUlnl0dXB_12smith_config8executorNtB7_17PolicyDerivations4loads_0B9_
FN:748,_RNvMsc_NtCseymUlnl0dXB_12smith_config8executorNtB5_14ExecutorConfig22parse_duration_seconds
FN:769,_RNvMsc_NtCseymUlnl0dXB_12smith_config8executorNtB5_14ExecutorConfig4load
FN:804,_RNvMsd_NtCseymUlnl0dXB_12smith_config8executorNtB5_17PolicyDerivations17get_cgroup_limits
FN:799,_RNvMsd_NtCseymUlnl0dXB_12smith_config8executorNtB5_17PolicyDerivations20get_landlock_profile
FN:794,_RNvMsd_NtCseymUlnl0dXB_12smith_config8executorNtB5_17PolicyDerivations21get_seccomp_allowlist
FN:783,_RNvMsd_NtCseymUlnl0dXB_12smith_config8executorNtB5_17PolicyDerivations4load
FNDA:10,_RNvMs4_NtCseymUlnl0dXB_12smith_config8executorNtB5_14ExecutorConfig10production
FNDA:19,_RNvMs4_NtCseymUlnl0dXB_12smith_config8executorNtB5_14ExecutorConfig11development
FNDA:11,_RNvMs4_NtCseymUlnl0dXB_12smith_config8executorNtB5_14ExecutorConfig7testing
FNDA:6,_RNvMs4_NtCseymUlnl0dXB_12smith_config8executorNtB5_14ExecutorConfig8validate
FNDA:2,_RNvMs5_NtCseymUlnl0dXB_12smith_config8executorNtB5_18IntentStreamConfig17validate_duration
FNDA:2,_RNvMs5_NtCseymUlnl0dXB_12smith_config8executorNtB5_18IntentStreamConfig18validate_byte_size
FNDA:5,_RNvMs5_NtCseymUlnl0dXB_12smith_config8executorNtB5_18IntentStreamConfig8validate
FNDA:0,_RNvMs6_NtCseymUlnl0dXB_12smith_config8executorNtB5_13ResultsConfig8validate
FNDA:0,_RNvMs7_NtCseymUlnl0dXB_12smith_config8executorNtB5_12LimitsConfig8validate
FNDA:6,_RNvMs8_NtCseymUlnl0dXB_12smith_config8executorNtB5_13DefaultLimits8validate
FNDA:6,_RNvMs9_NtCseymUlnl0dXB_12smith_config8executorNtB5_14SecurityConfig8validate
FNDA:3,_RNvMsa_NtCseymUlnl0dXB_12smith_config8executorNtB5_12PolicyConfig8validate
FNDA:6,_RNvMsb_NtCseymUlnl0dXB_12smith_config8executorNtB5_18ExecutorNatsConfig8validate
FNDA:7,_RNvMsc_NtCseymUlnl0dXB_12smith_config8executorNtB5_14ExecutorConfig15parse_byte_size
FNDA:62,_RNvXNtCseymUlnl0dXB_12smith_config8executorNtB2_14ExecutorConfigNtNtCs66KPHxksi63_4core7default7Default7default
FNDA:96,_RNvXs0_NtCseymUlnl0dXB_12smith_config8executorNtB5_13DefaultLimitsNtNtCs66KPHxksi63_4core7default7Default7default
FNDA:106,_RNvXs1_NtCseymUlnl0dXB_12smith_config8executorNtB5_14SecurityConfigNtNtCs66KPHxksi63_4core7default7Default7default
FNDA:87,_RNvXs2_NtCseymUlnl0dXB_12smith_config8executorNtB5_12PolicyConfigNtNtCs66KPHxksi63_4core7default7Default7default
FNDA:106,_RNvXs3_NtCseymUlnl0dXB_12smith_config8executorNtB5_18ExecutorNatsConfigNtNtCs66KPHxksi63_4core7default7Default7default
FNDA:66,_RNvXs_NtCseymUlnl0dXB_12smith_config8executorNtB4_13ResultsConfigNtNtCs66KPHxksi63_4core7default7Default7default
FNDA:66,_RNvXse_NtCseymUlnl0dXB_12smith_config8executorNtB5_17AttestationConfigNtNtCs66KPHxksi63_4core7default7Default7default
FNDA:1,_RNvNtNtCseymUlnl0dXB_12smith_config8executor5testss_18test_cgroup_limits
FNDA:1,_RNvNtNtCseymUlnl0dXB_12smith_config8executor5testss_20test_parse_byte_size
FNDA:1,_RNvNtNtCseymUlnl0dXB_12smith_config8executor5testss_21test_debug_formatting
FNDA:1,_RNvNtNtCseymUlnl0dXB_12smith_config8executor5testss_25test_intent_stream_config
FNDA:1,_RNvNtNtCseymUlnl0dXB_12smith_config8executor5testss_26test_limits_config_default
FNDA:1,_RNvNtNtCseymUlnl0dXB_12smith_config8executor5testss_27test_results_config_default
FNDA:1,_RNvNtNtCseymUlnl0dXB_12smith_config8executor5testss_28test_executor_config_presets
FNDA:1,_RNvNtNtCseymUlnl0dXB_12smith_config8executor5testss_28test_serialization_roundtrip
FNDA:1,_RNvNtNtCseymUlnl0dXB_12smith_config8executor5testss_29test_executor_config_creation
FNDA:1,_RNvNtNtCseymUlnl0dXB_12smith_config8executor5testss_29test_policy_config_validation
FNDA:1,_RNvNtNtCseymUlnl0dXB_12smith_config8executor5testss_30test_default_limits_validation
FNDA:1,_RNvNtNtCseymUlnl0dXB_12smith_config8executor5testss_31test_attestation_config_default
FNDA:1,_RNvNtNtCseymUlnl0dXB_12smith_config8executor5testss_31test_security_config_validation
FNDA:1,_RNvNtNtCseymUlnl0dXB_12smith_config8executor5testss_36test_executor_nats_config_validation
FNDA:1,_RNvNtNtCseymUlnl0dXB_12smith_config8executor5testss_36test_intent_stream_config_validation
FNDA:1,_RNvNtNtCseymUlnl0dXB_12smith_config8executor5testss_40test_executor_nats_config_tls_validation
FNDA:0,_RNCNvMs4_NtCseymUlnl0dXB_12smith_config8executorNtB7_14ExecutorConfig8validate0B9_
FNDA:6,_RNCNvMs5_NtCseymUlnl0dXB_12smith_config8executorNtB7_18IntentStreamConfig17validate_duration0B9_
FNDA:0,_RNCNvMs5_NtCseymUlnl0dXB_12smith_config8executorNtB7_18IntentStreamConfig17validate_durations_0B9_
FNDA:4,_RNCNvMs5_NtCseymUlnl0dXB_12smith_config8executorNtB7_18IntentStreamConfig18validate_byte_size0B9_
FNDA:0,_RNCNvMs5_NtCseymUlnl0dXB_12smith_config8executorNtB7_18IntentStreamConfig18validate_byte_sizes0_0B9_
FNDA:0,_RNCNvMs5_NtCseymUlnl0dXB_12smith_config8executorNtB7_18IntentStreamConfig18validate_byte_sizes_0B9_
FNDA:0,_RNCNvMs7_NtCseymUlnl0dXB_12smith_config8executorNtB7_12LimitsConfig8validate0B9_
FNDA:1,_RNCNvMs9_NtCseymUlnl0dXB_12smith_config8executorNtB7_14SecurityConfig8validate0B9_
FNDA:1,_RNCNvMsc_NtCseymUlnl0dXB_12smith_config8executorNtB7_14ExecutorConfig15parse_byte_size0B9_
FNDA:66,_RNCNvXse_NtCseymUlnl0dXB_12smith_config8executorNtB7_17AttestationConfigNtNtCs66KPHxksi63_4core7default7Default7default0B9_
FNDA:66,_RNCNvXse_NtCseymUlnl0dXB_12smith_config8executorNtB7_17AttestationConfigNtNtCs66KPHxksi63_4core7default7Default7defaults_0B9_
FNDA:0,_RNCNvMsc_NtCseymUlnl0dXB_12smith_config8executorNtB7_14ExecutorConfig22parse_duration_seconds0B9_
FNDA:0,_RNCNvMsc_NtCseymUlnl0dXB_12smith_config8executorNtB7_14ExecutorConfig4load0B9_
FNDA:0,_RNCNvMsc_NtCseymUlnl0dXB_12smith_config8executorNtB7_14ExecutorConfig4loads_0B9_
FNDA:0,_RNCNvMsd_NtCseymUlnl0dXB_12smith_config8executorNtB7_17PolicyDerivations4load0B9_
FNDA:0,_RNCNvMsd_NtCseymUlnl0dXB_12smith_config8executorNtB7_17PolicyDerivations4loads_0B9_
FNDA:0,_RNvMsc_NtCseymUlnl0dXB_12smith_config8executorNtB5_14ExecutorConfig22parse_duration_seconds
FNDA:0,_RNvMsc_NtCseymUlnl0dXB_12smith_config8executorNtB5_14ExecutorConfig4load
FNDA:0,_RNvMsd_NtCseymUlnl0dXB_12smith_config8executorNtB5_17PolicyDerivations17get_cgroup_limits
FNDA:0,_RNvMsd_NtCseymUlnl0dXB_12smith_config8executorNtB5_17PolicyDerivations20get_landlock_profile
FNDA:0,_RNvMsd_NtCseymUlnl0dXB_12smith_config8executorNtB5_17PolicyDerivations21get_seccomp_allowlist
FNDA:0,_RNvMsd_NtCseymUlnl0dXB_12smith_config8executorNtB5_17PolicyDerivations4load
FNF:59
FNH:41
DA:199,62
DA:200,62
DA:202,62
DA:203,62
DA:204,62
DA:205,62
DA:206,62
DA:207,62
DA:208,62
DA:209,62
DA:212,62
DA:213,62
DA:214,62
DA:215,62
DA:216,62
DA:217,62
DA:218,62
DA:219,62
DA:222,62
DA:223,62
DA:224,62
DA:225,62
DA:226,62
DA:227,62
DA:228,62
DA:229,62
DA:230,62
DA:231,62
DA:232,62
DA:233,62
DA:234,62
DA:235,62
DA:236,62
DA:237,62
DA:238,62
DA:239,62
DA:240,62
DA:244,66
DA:245,66
DA:246,66
DA:247,66
DA:248,66
DA:249,66
DA:254,96
DA:255,96
DA:256,96
DA:257,96
DA:258,96
DA:259,96
DA:260,96
DA:261,96
DA:262,96
DA:263,96
DA:267,106
DA:268,106
DA:269,106
DA:270,106
DA:271,106
DA:272,106
DA:273,106
DA:274,106
DA:275,106
DA:279,87
DA:280,87
DA:281,87
DA:282,87
DA:283,87
DA:284,87
DA:285,87
DA:289,106
DA:290,106
DA:291,106
DA:292,106
DA:293,106
DA:294,106
DA:295,106
DA:296,106
DA:297,106
DA:301,6
DA:303,6
DA:304,0
DA:305,6
DA:307,6
DA:308,0
DA:309,6
DA:312,6
DA:313,6
DA:314,6
DA:315,6
DA:317,6
DA:318,6
DA:319,6
DA:320,6
DA:321,6
DA:322,6
DA:323,6
DA:324,0
DA:325,0
DA:329,0
DA:330,0
DA:331,0
DA:333,0
DA:334,0
DA:335,0
DA:338,0
DA:339,0
DA:340,0
DA:341,0
DA:342,0
DA:343,0
DA:344,0
DA:345,0
DA:348,0
DA:349,0
DA:350,0
DA:352,0
DA:353,0
DA:354,0
DA:355,0
DA:359,0
DA:360,0
DA:361,0
DA:363,0
DA:364,0
DA:365,0
DA:367,0
DA:368,0
DA:369,0
DA:371,0
DA:372,0
DA:373,0
DA:375,0
DA:376,0
DA:377,0
DA:379,0
DA:380,6
DA:382,19
DA:383,19
DA:384,19
DA:385,19
DA:386,19
DA:387,19
DA:388,19
DA:389,19
DA:390,19
DA:391,19
DA:392,19
DA:393,19
DA:394,19
DA:395,19
DA:396,19
DA:397,19
DA:398,19
DA:399,19
DA:400,19
DA:401,19
DA:402,19
DA:403,19
DA:404,19
DA:405,19
DA:407,10
DA:408,10
DA:409,10
DA:410,10
DA:411,10
DA:412,10
DA:413,10
DA:414,10
DA:415,10
DA:416,10
DA:417,10
DA:418,10
DA:419,10
DA:420,10
DA:421,10
DA:422,10
DA:423,10
DA:424,10
DA:425,10
DA:426,10
DA:427,10
DA:428,10
DA:429,10
DA:430,10
DA:431,10
DA:432,10
DA:433,10
DA:434,10
DA:435,10
DA:436,10
DA:437,10
DA:438,10
DA:439,10
DA:440,10
DA:441,10
DA:442,10
DA:443,10
DA:444,10
DA:445,10
DA:446,10
DA:447,10
DA:448,10
DA:449,10
DA:451,11
DA:452,11
DA:453,11
DA:454,11
DA:455,11
DA:456,11
DA:457,11
DA:458,11
DA:459,11
DA:460,11
DA:461,11
DA:462,11
DA:463,11
DA:464,11
DA:465,11
DA:466,11
DA:467,11
DA:468,11
DA:469,11
DA:470,11
DA:471,11
DA:472,11
DA:473,11
DA:474,11
DA:475,11
DA:476,11
DA:477,11
DA:478,11
DA:479,11
DA:480,11
DA:481,11
DA:482,11
DA:483,11
DA:487,5
DA:488,5
DA:489,1
DA:490,4
DA:492,4
DA:493,1
DA:494,3
DA:496,3
DA:497,1
DA:498,2
DA:501,2
DA:502,2
DA:505,2
DA:506,2
DA:508,2
DA:509,5
DA:511,2
DA:512,2
DA:513,0
DA:514,2
DA:516,2
DA:517,2
DA:518,2
DA:519,6
DA:521,2
DA:522,0
DA:523,0
DA:524,0
DA:525,0
DA:526,2
DA:528,2
DA:529,2
DA:530,2
DA:531,2
DA:533,2
DA:534,2
DA:536,2
DA:537,2
DA:538,0
DA:539,2
DA:541,2
DA:542,2
DA:543,2
DA:544,4
DA:545,2
DA:546,0
DA:547,0
DA:550,0
DA:552,2
DA:553,2
DA:554,2
DA:555,2
DA:557,0
DA:560,2
DA:561,2
DA:565,0
DA:566,0
DA:567,0
DA:568,0
DA:571,0
DA:572,0
DA:573,0
DA:574,0
DA:575,0
DA:576,0
DA:578,0
DA:579,0
DA:583,0
DA:584,0
DA:585,0
DA:586,0
DA:588,0
DA:589,0
DA:590,0
DA:591,0
DA:595,0
DA:598,0
DA:599,0
DA:603,6
DA:604,6
DA:605,1
DA:606,5
DA:608,5
DA:609,1
DA:610,4
DA:612,4
DA:613,0
DA:614,4
DA:616,4
DA:617,2
DA:618,2
DA:620,2
DA:621,0
DA:622,2
DA:624,2
DA:625,0
DA:626,2
DA:628,2
DA:629,6
DA:633,6
DA:635,11
DA:636,6
DA:637,6
DA:641,7
DA:642,4
DA:644,3
DA:645,2
DA:646,1
DA:647,1
DA:650,3
DA:651,6
DA:655,3
DA:656,3
DA:657,1
DA:658,2
DA:660,2
DA:661,0
DA:662,2
DA:664,2
DA:665,3
DA:669,6
DA:671,12
DA:672,7
DA:673,1
DA:674,6
DA:678,5
DA:680,3
DA:681,1
DA:682,1
DA:683,1
DA:684,1
DA:685,2
DA:686,2
DA:687,1
DA:688,1
DA:689,1
DA:690,0
DA:691,1
DA:692,2
DA:694,3
DA:695,6
DA:726,7
DA:727,7
DA:728,7
DA:729,7
DA:730,7
DA:731,7
DA:732,7
DA:733,7
DA:735,31
DA:736,29
DA:737,5
DA:738,5
DA:739,5
DA:740,4
DA:741,24
DA:744,2
DA:745,7
DA:748,0
DA:749,0
DA:750,0
DA:751,0
DA:752,0
DA:753,0
DA:754,0
DA:756,0
DA:757,0
DA:758,0
DA:759,0
DA:760,0
DA:761,0
DA:762,0
DA:765,0
DA:766,0
DA:769,0
DA:770,0
DA:771,0
DA:773,0
DA:774,0
DA:776,0
DA:777,0
DA:778,0
DA:783,0
DA:784,0
DA:785,0
DA:787,0
DA:788,0
DA:790,0
DA:791,0
DA:794,0
DA:795,0
DA:796,0
DA:799,0
DA:800,0
DA:801,0
DA:804,0
DA:805,0
DA:806,0
DA:810,66
DA:815,66
DA:816,66
DA:817,66
DA:818,66
DA:819,66
DA:820,66
DA:821,66
DA:822,66
DA:827,66
DA:838,1
DA:839,1
DA:840,1
DA:841,1
DA:842,1
DA:843,1
DA:844,1
DA:845,1
DA:846,1
DA:847,1
DA:848,1
DA:849,1
DA:850,1
DA:851,1
DA:852,1
DA:853,1
DA:854,1
DA:855,1
DA:856,1
DA:858,1
DA:859,1
DA:860,1
DA:861,1
DA:862,1
DA:863,1
DA:866,1
DA:867,1
DA:868,1
DA:869,1
DA:870,1
DA:871,1
DA:872,1
DA:874,1
DA:875,1
DA:876,1
DA:877,1
DA:878,1
DA:881,1
DA:882,1
DA:883,1
DA:884,1
DA:885,1
DA:886,1
DA:887,1
DA:889,1
DA:892,1
DA:893,1
DA:894,1
DA:897,1
DA:898,1
DA:901,1
DA:902,1
DA:905,1
DA:906,1
DA:907,1
DA:910,1
DA:911,1
DA:913,1
DA:914,1
DA:915,1
DA:918,1
DA:919,1
DA:922,1
DA:924,1
DA:927,1
DA:928,1
DA:929,1
DA:932,1
DA:933,1
DA:934,1
DA:937,1
DA:938,1
DA:939,1
DA:942,1
DA:943,1
DA:944,1
DA:945,1
DA:946,1
DA:948,1
DA:949,1
DA:952,1
DA:953,1
DA:954,1
DA:957,1
DA:958,1
DA:961,1
DA:962,1
DA:965,1
DA:966,1
DA:969,1
DA:970,1
DA:973,1
DA:974,1
DA:975,1
DA:978,1
DA:979,1
DA:980,1
DA:983,1
DA:984,1
DA:987,1
DA:988,1
DA:989,1
DA:992,1
DA:993,1
DA:994,1
DA:995,1
DA:996,1
DA:997,1
DA:998,1
DA:999,1
DA:1000,1
DA:1003,1
DA:1004,1
DA:1007,1
DA:1008,1
DA:1009,1
DA:1012,1
DA:1013,1
DA:1014,1
DA:1015,1
DA:1016,1
DA:1019,1
DA:1020,1
DA:1021,1
DA:1023,1
DA:1024,1
DA:1025,1
DA:1026,1
DA:1029,1
DA:1032,1
DA:1033,1
DA:1036,1
DA:1037,1
DA:1038,1
DA:1039,1
DA:1042,1
DA:1043,1
DA:1045,1
DA:1046,1
DA:1047,1
DA:1048,1
DA:1049,1
DA:1050,1
DA:1053,1
DA:1054,1
DA:1055,1
DA:1056,1
DA:1057,1
DA:1059,1
DA:1060,1
DA:1061,1
DA:1064,1
DA:1066,1
DA:1067,1
DA:1068,1
DA:1069,1
DA:1072,1
DA:1073,1
DA:1074,1
DA:1075,1
DA:1076,1
DA:1079,1
DA:1080,1
DA:1081,1
DA:1082,1
DA:1083,1
DA:1084,1
DA:1087,1
DA:1088,1
DA:1089,1
DA:1090,1
DA:1091,1
DA:1094,1
DA:1095,1
DA:1096,1
DA:1097,1
DA:1100,1
DA:1101,1
DA:1102,1
DA:1103,1
DA:1104,1
DA:1105,1
DA:1106,1
DA:1107,1
DA:1108,1
DA:1109,1
DA:1110,1
DA:1111,1
DA:1112,1
DA:1113,1
DA:1114,1
DA:1115,1
DA:1116,1
DA:1117,1
DA:1118,1
DA:1121,1
DA:1122,1
DA:1124,1
DA:1125,1
DA:1126,1
DA:1127,1
DA:1128,1
DA:1129,1
DA:1132,1
DA:1133,1
DA:1134,1
DA:1135,1
DA:1136,1
DA:1137,1
DA:1138,1
DA:1139,1
DA:1140,1
DA:1141,1
DA:1142,1
DA:1143,1
DA:1144,1
DA:1145,1
DA:1146,1
DA:1147,1
DA:1148,1
DA:1149,1
DA:1150,1
DA:1152,1
DA:1153,1
DA:1154,1
DA:1155,1
DA:1156,1
BRF:0
BRH:0
LF:691
LH:558
end_of_record
SF:/home/nathan/Projects/smith/shared/smith-config/src/http.rs
FN:427,_RINvNtNtCseymUlnl0dXB_12smith_config4http14duration_serde11deserializeINtNtNtCsfeE7rITMw7V_5serde2de5value17UsizeDeserializerNtNtCsjRllk2iJBV1_9toml_edit2de5ErrorEEB6_
FN:427,_RINvNtNtCseymUlnl0dXB_12smith_config4http14duration_serde11deserializeINtNtNtCsfeE7rITMw7V_5serde2de5value18StringDeserializerNtNtCsjRllk2iJBV1_9toml_edit2de5ErrorEEB6_
FN:427,_RINvNtNtCseymUlnl0dXB_12smith_config4http14duration_serde11deserializeNtNtNtCshyg8yL2jKZb_7figment5value2de17ConfiguredValueDeEB6_
FN:427,_RINvNtNtCseymUlnl0dXB_12smith_config4http14duration_serde11deserializeNtNtNtCsjRllk2iJBV1_9toml_edit2de5value17ValueDeserializerEB6_
FN:427,_RINvNtNtCseymUlnl0dXB_12smith_config4http14duration_serde11deserializeQINtNtCsg5DFGjn1iJP_10serde_json2de12DeserializerNtNtB1c_4read7StrReadEEB6_
FN:420,_RINvNtNtCseymUlnl0dXB_12smith_config4http14duration_serde9serializeNtNtNtCsjRllk2iJBV1_9toml_edit3ser3map23DatetimeFieldSerializerEB6_
FN:420,_RINvNtNtCseymUlnl0dXB_12smith_config4http14duration_serde9serializeQINtNtCsg5DFGjn1iJP_10serde_json3ser10SerializerQINtNtCs8Ty2CzGA6U3_5alloc3vec3VechEEEB6_
FN:420,_RINvNtNtCseymUlnl0dXB_12smith_config4http14duration_serde9serializeQNtNtNtCsjRllk2iJBV1_9toml_edit3ser3map18MapValueSerializerEB6_
FN:245,_RNvMs3_NtCseymUlnl0dXB_12smith_config4httpNtB5_10HttpConfig10production
FN:226,_RNvMs3_NtCseymUlnl0dXB_12smith_config4httpNtB5_10HttpConfig11development
FN:275,_RNvMs3_NtCseymUlnl0dXB_12smith_config4httpNtB5_10HttpConfig7testing
FN:189,_RNvMs3_NtCseymUlnl0dXB_12smith_config4httpNtB5_10HttpConfig8validate
FN:303,_RNvMs4_NtCseymUlnl0dXB_12smith_config4httpNtB5_15RateLimitConfig8validate
FN:327,_RNvMs5_NtCseymUlnl0dXB_12smith_config4httpNtB5_15WebSocketConfig8validate
FN:363,_RNvMs6_NtCseymUlnl0dXB_12smith_config4httpNtB5_14SecurityConfig8validate
FN:384,_RNvMs7_NtCseymUlnl0dXB_12smith_config4httpNtB5_17PerformanceConfig8validate
FN:124,_RNvXNtCseymUlnl0dXB_12smith_config4httpNtB2_10HttpConfigNtNtCs66KPHxksi63_4core7default7Default7default
FN:151,_RNvXs0_NtCseymUlnl0dXB_12smith_config4httpNtB5_15WebSocketConfigNtNtCs66KPHxksi63_4core7default7Default7default
FN:164,_RNvXs1_NtCseymUlnl0dXB_12smith_config4httpNtB5_14SecurityConfigNtNtCs66KPHxksi63_4core7default7Default7default
FN:176,_RNvXs2_NtCseymUlnl0dXB_12smith_config4httpNtB5_17PerformanceConfigNtNtCs66KPHxksi63_4core7default7Default7default
FN:140,_RNvXs_NtCseymUlnl0dXB_12smith_config4httpNtB4_15RateLimitConfigNtNtCs66KPHxksi63_4core7default7Default7default
FNDA:0,_RINvNtNtCseymUlnl0dXB_12smith_config4http14duration_serde11deserializeINtNtNtCsfeE7rITMw7V_5serde2de5value17UsizeDeserializerNtNtCsjRllk2iJBV1_9toml_edit2de5ErrorEEB6_
FNDA:0,_RINvNtNtCseymUlnl0dXB_12smith_config4http14duration_serde11deserializeINtNtNtCsfeE7rITMw7V_5serde2de5value18StringDeserializerNtNtCsjRllk2iJBV1_9toml_edit2de5ErrorEEB6_
FNDA:0,_RINvNtNtCseymUlnl0dXB_12smith_config4http14duration_serde11deserializeNtNtNtCshyg8yL2jKZb_7figment5value2de17ConfiguredValueDeEB6_
FNDA:12,_RINvNtNtCseymUlnl0dXB_12smith_config4http14duration_serde11deserializeNtNtNtCsjRllk2iJBV1_9toml_edit2de5value17ValueDeserializerEB6_
FNDA:6,_RINvNtNtCseymUlnl0dXB_12smith_config4http14duration_serde11deserializeQINtNtCsg5DFGjn1iJP_10serde_json2de12DeserializerNtNtB1c_4read7StrReadEEB6_
FNDA:0,_RINvNtNtCseymUlnl0dXB_12smith_config4http14duration_serde9serializeNtNtNtCsjRllk2iJBV1_9toml_edit3ser3map23DatetimeFieldSerializerEB6_
FNDA:18,_RINvNtNtCseymUlnl0dXB_12smith_config4http14duration_serde9serializeQINtNtCsg5DFGjn1iJP_10serde_json3ser10SerializerQINtNtCs8Ty2CzGA6U3_5alloc3vec3VechEEEB6_
FNDA:12,_RINvNtNtCseymUlnl0dXB_12smith_config4http14duration_serde9serializeQNtNtNtCsjRllk2iJBV1_9toml_edit3ser3map18MapValueSerializerEB6_
FNDA:9,_RNvMs3_NtCseymUlnl0dXB_12smith_config4httpNtB5_10HttpConfig10production
FNDA:18,_RNvMs3_NtCseymUlnl0dXB_12smith_config4httpNtB5_10HttpConfig11development
FNDA:10,_RNvMs3_NtCseymUlnl0dXB_12smith_config4httpNtB5_10HttpConfig7testing
FNDA:7,_RNvMs3_NtCseymUlnl0dXB_12smith_config4httpNtB5_10HttpConfig8validate
FNDA:6,_RNvMs4_NtCseymUlnl0dXB_12smith_config4httpNtB5_15RateLimitConfig8validate
FNDA:6,_RNvMs5_NtCseymUlnl0dXB_12smith_config4httpNtB5_15WebSocketConfig8validate
FNDA:6,_RNvMs6_NtCseymUlnl0dXB_12smith_config4httpNtB5_14SecurityConfig8validate
FNDA:6,_RNvMs7_NtCseymUlnl0dXB_12smith_config4httpNtB5_17PerformanceConfig8validate
FNDA:59,_RNvXNtCseymUlnl0dXB_12smith_config4httpNtB2_10HttpConfigNtNtCs66KPHxksi63_4core7default7Default7default
FNDA:69,_RNvXs0_NtCseymUlnl0dXB_12smith_config4httpNtB5_15WebSocketConfigNtNtCs66KPHxksi63_4core7default7Default7default
FNDA:77,_RNvXs1_NtCseymUlnl0dXB_12smith_config4httpNtB5_14SecurityConfigNtNtCs66KPHxksi63_4core7default7Default7default
FNDA:87,_RNvXs2_NtCseymUlnl0dXB_12smith_config4httpNtB5_17PerformanceConfigNtNtCs66KPHxksi63_4core7default7Default7default
FNDA:59,_RNvXs_NtCseymUlnl0dXB_12smith_config4httpNtB4_15RateLimitConfigNtNtCs66KPHxksi63_4core7default7Default7default
FNF:15
FNH:15
DA:124,59
DA:125,59
DA:126,59
DA:127,59
DA:128,59
DA:129,59
DA:130,59
DA:131,59
DA:132,59
DA:133,59
DA:134,59
DA:135,59
DA:136,59
DA:140,59
DA:141,59
DA:142,59
DA:143,59
DA:144,59
DA:145,59
DA:146,59
DA:147,59
DA:151,69
DA:152,69
DA:153,69
DA:154,69
DA:155,69
DA:156,69
DA:157,69
DA:158,69
DA:159,69
DA:160,69
DA:164,77
DA:165,77
DA:166,77
DA:167,77
DA:168,77
DA:169,77
DA:170,77
DA:171,77
DA:172,77
DA:176,87
DA:177,87
DA:178,87
DA:179,87
DA:180,87
DA:181,87
DA:182,87
DA:183,87
DA:184,87
DA:185,87
DA:189,7
DA:191,7
DA:192,0
DA:193,7
DA:196,7
DA:197,1
DA:198,1
DA:199,1
DA:200,1
DA:201,6
DA:204,6
DA:205,0
DA:206,6
DA:209,6
DA:210,6
DA:211,0
DA:213,6
DA:214,0
DA:215,6
DA:218,6
DA:219,6
DA:220,6
DA:221,6
DA:223,6
DA:224,7
DA:226,18
DA:227,18
DA:228,18
DA:229,18
DA:230,18
DA:231,18
DA:232,18
DA:233,18
DA:234,18
DA:235,18
DA:236,18
DA:237,18
DA:238,18
DA:239,18
DA:240,18
DA:241,18
DA:242,18
DA:243,18
DA:245,9
DA:246,9
DA:247,9
DA:248,9
DA:249,9
DA:250,9
DA:251,9
DA:252,9
DA:253,9
DA:254,9
DA:255,9
DA:256,9
DA:257,9
DA:258,9
DA:259,9
DA:260,9
DA:261,9
DA:262,9
DA:263,9
DA:264,9
DA:265,9
DA:266,9
DA:267,9
DA:268,9
DA:269,9
DA:270,9
DA:271,9
DA:272,9
DA:273,9
DA:275,10
DA:276,10
DA:277,10
DA:278,10
DA:279,10
DA:280,10
DA:281,10
DA:282,10
DA:283,10
DA:284,10
DA:285,10
DA:286,10
DA:287,10
DA:288,10
DA:289,10
DA:290,10
DA:291,10
DA:292,10
DA:293,10
DA:294,10
DA:295,10
DA:296,10
DA:297,10
DA:298,10
DA:299,10
DA:303,6
DA:304,6
DA:305,0
DA:306,0
DA:307,0
DA:308,6
DA:310,6
DA:311,0
DA:312,6
DA:314,6
DA:315,0
DA:316,6
DA:318,6
DA:319,0
DA:320,6
DA:322,6
DA:323,6
DA:327,6
DA:328,6
DA:329,0
DA:330,6
DA:332,6
DA:333,0
DA:334,0
DA:335,0
DA:336,6
DA:338,6
DA:339,0
DA:340,6
DA:342,6
DA:343,0
DA:344,6
DA:346,6
DA:347,0
DA:348,6
DA:350,6
DA:351,0
DA:352,6
DA:354,6
DA:355,0
DA:356,6
DA:358,6
DA:359,6
DA:363,6
DA:364,6
DA:365,0
DA:366,6
DA:368,6
DA:369,0
DA:370,6
DA:373,8
DA:374,2
DA:375,0
DA:376,2
DA:379,6
DA:380,6
DA:384,6
DA:385,6
DA:386,0
DA:387,6
DA:389,6
DA:390,0
DA:391,6
DA:393,6
DA:394,0
DA:395,0
DA:397,6
DA:399,6
DA:400,0
DA:401,6
DA:403,6
DA:404,0
DA:405,6
DA:407,6
DA:408,0
DA:409,6
DA:411,6
DA:412,6
DA:420,30
DA:421,30
DA:422,30
DA:424,30
DA:425,30
DA:427,18
DA:428,18
DA:429,18
DA:431,18
DA:432,18
DA:433,18
BRF:0
BRH:0
LF:236
LH:207
end_of_record
SF:/home/nathan/Projects/smith/shared/smith-config/src/lib.rs
FN:1202,_RNvNtCseymUlnl0dXB_12smith_config5testss_19test_config_builder
FN:1149,_RNvNtCseymUlnl0dXB_12smith_config5testss_19test_default_config
FN:1216,_RNvNtCseymUlnl0dXB_12smith_config5testss_20test_port_validation
FN:1173,_RNvNtCseymUlnl0dXB_12smith_config5testss_23test_logging_validation
FN:1185,_RNvNtCseymUlnl0dXB_12smith_config5testss_23test_metrics_validation
FN:1900,_RNvNtCseymUlnl0dXB_12smith_config5testss_24test_config_debug_format
FN:1226,_RNvNtCseymUlnl0dXB_12smith_config5testss_25test_bind_address_helpers
FN:1759,_RNvNtCseymUlnl0dXB_12smith_config5testss_25test_config_serialization
FN:1157,_RNvNtCseymUlnl0dXB_12smith_config5testss_25test_environment_profiles
FN:1245,_RNvNtCseymUlnl0dXB_12smith_config5testss_26test_structured_validation
FN:1232,_RNvNtCseymUlnl0dXB_12smith_config5testss_28test_redaction_level_parsing
FN:1935,_RNvNtCseymUlnl0dXB_12smith_config5testss_29test_complex_config_scenarios
FN:1884,_RNvNtCseymUlnl0dXB_12smith_config5testss_29test_config_clone_and_default
FN:1806,_RNvNtCseymUlnl0dXB_12smith_config5testss_29test_config_from_file_success
FN:1912,_RNvNtCseymUlnl0dXB_12smith_config5testss_30test_config_builder_edge_cases
FN:1774,_RNvNtCseymUlnl0dXB_12smith_config5testss_30test_config_toml_serialization
FN:1649,_RNvNtCseymUlnl0dXB_12smith_config5testss_30test_core_config_comprehensive
FN:1254,_RNvNtCseymUlnl0dXB_12smith_config5testss_33test_config_builder_comprehensive
FN:1339,_RNvNtCseymUlnl0dXB_12smith_config5testss_33test_logging_config_comprehensive
FN:1438,_RNvNtCseymUlnl0dXB_12smith_config5testss_33test_metrics_config_comprehensive
FN:1513,_RNvNtCseymUlnl0dXB_12smith_config5testss_34test_behavior_config_comprehensive
FN:1291,_RNvNtCseymUlnl0dXB_12smith_config5testss_34test_config_environment_variations
FN:1714,_RNvNtCseymUlnl0dXB_12smith_config5testss_34test_port_validation_comprehensive
FN:1670,_RNvNtCseymUlnl0dXB_12smith_config5testss_35test_admission_config_comprehensive
FN:1859,_RNvNtCseymUlnl0dXB_12smith_config5testss_35test_environment_config_consistency
FN:1788,_RNvNtCseymUlnl0dXB_12smith_config5testss_36test_config_from_file_error_handling
FN:1590,_RNvNtCseymUlnl0dXB_12smith_config5testss_36test_monitoring_config_comprehensive
FN:1691,_RNvNtCseymUlnl0dXB_12smith_config5testss_37test_attestation_config_comprehensive
FN:1364,_RNvNtCseymUlnl0dXB_12smith_config5testss_37test_logging_validation_comprehensive
FN:1465,_RNvNtCseymUlnl0dXB_12smith_config5testss_37test_metrics_validation_comprehensive
FN:1544,_RNvNtCseymUlnl0dXB_12smith_config5testss_38test_behavior_validation_comprehensive
FN:1841,_RNvNtCseymUlnl0dXB_12smith_config5testss_38test_config_validation_failure_cascade
FN:1394,_RNvNtCseymUlnl0dXB_12smith_config5testss_38test_nats_logging_config_comprehensive
FN:1620,_RNvNtCseymUlnl0dXB_12smith_config5testss_40test_monitoring_validation_comprehensive
FN:1734,_RNvNtCseymUlnl0dXB_12smith_config5testss_42test_redaction_level_parsing_comprehensive
FN:59,_RINvMCseymUlnl0dXB_12smith_configNtB3_13ConfigBuilder13with_nats_urlReEB3_
FN:77,_RINvMCseymUlnl0dXB_12smith_configNtB3_13ConfigBuilder14with_log_levelReEB3_
FN:71,_RINvMCseymUlnl0dXB_12smith_configNtB3_13ConfigBuilder23with_executor_work_rootNtNtCsiKSG5X70Gj7_3std4path7PathBufEB3_
FN:71,_RINvMCseymUlnl0dXB_12smith_configNtB3_13ConfigBuilder23with_executor_work_rootReEB3_
FN:652,_RINvMs7_CseymUlnl0dXB_12smith_configNtB6_6Config15apply_env_parsebEB6_
FN:652,_RINvMs7_CseymUlnl0dXB_12smith_configNtB6_6Config15apply_env_parsejEB6_
FN:652,_RINvMs7_CseymUlnl0dXB_12smith_configNtB6_6Config15apply_env_parsemEB6_
FN:652,_RINvMs7_CseymUlnl0dXB_12smith_configNtB6_6Config15apply_env_parsetEB6_
FN:652,_RINvMs7_CseymUlnl0dXB_12smith_configNtB6_6Config15apply_env_parseyEB6_
FN:688,_RINvMs7_CseymUlnl0dXB_12smith_configNtB6_6Config9from_fileRNtNtCsiKSG5X70Gj7_3std4path4PathEB6_
FN:688,_RINvMs7_CseymUlnl0dXB_12smith_configNtB6_6Config9from_fileRNtNtCsiKSG5X70Gj7_3std4path7PathBufEB6_
FN:688,_RINvMs7_CseymUlnl0dXB_12smith_configNtB6_6Config9from_fileReEB6_
FN:660,_RNCINvMs7_CseymUlnl0dXB_12smith_configNtB8_6Config15apply_env_parsebE0B8_
FN:660,_RNCINvMs7_CseymUlnl0dXB_12smith_configNtB8_6Config15apply_env_parsejE0B8_
FN:660,_RNCINvMs7_CseymUlnl0dXB_12smith_configNtB8_6Config15apply_env_parsemE0B8_
FN:660,_RNCINvMs7_CseymUlnl0dXB_12smith_configNtB8_6Config15apply_env_parsetE0B8_
FN:660,_RNCINvMs7_CseymUlnl0dXB_12smith_configNtB8_6Config15apply_env_parseyE0B8_
FN:690,_RNCINvMs7_CseymUlnl0dXB_12smith_configNtB8_6Config9from_fileRNtNtCsiKSG5X70Gj7_3std4path4PathE0B8_
FN:693,_RNCINvMs7_CseymUlnl0dXB_12smith_configNtB8_6Config9from_fileRNtNtCsiKSG5X70Gj7_3std4path4PathEs_0B8_
FN:690,_RNCINvMs7_CseymUlnl0dXB_12smith_configNtB8_6Config9from_fileRNtNtCsiKSG5X70Gj7_3std4path7PathBufE0B8_
FN:693,_RNCINvMs7_CseymUlnl0dXB_12smith_configNtB8_6Config9from_fileRNtNtCsiKSG5X70Gj7_3std4path7PathBufEs_0B8_
FN:690,_RNCINvMs7_CseymUlnl0dXB_12smith_configNtB8_6Config9from_fileReE0B8_
FN:693,_RNCINvMs7_CseymUlnl0dXB_12smith_configNtB8_6Config9from_fileReEs_0B8_
FN:586,_RNCNvMs7_CseymUlnl0dXB_12smith_configNtB7_6Config27apply_logging_env_overrides0B7_
FN:587,_RNCNvMs7_CseymUlnl0dXB_12smith_configNtB7_6Config27apply_logging_env_overridess_0B7_
FN:65,_RNvMCseymUlnl0dXB_12smith_configNtB2_13ConfigBuilder14with_http_port
FN:83,_RNvMCseymUlnl0dXB_12smith_configNtB2_13ConfigBuilder15for_environment
FN:54,_RNvMCseymUlnl0dXB_12smith_configNtB2_13ConfigBuilder3new
FN:89,_RNvMCseymUlnl0dXB_12smith_configNtB2_13ConfigBuilder5build
FN:420,_RNvMs4_CseymUlnl0dXB_12smith_configNtB5_17NatsLoggingConfig10production
FN:398,_RNvMs4_CseymUlnl0dXB_12smith_configNtB5_17NatsLoggingConfig11development
FN:442,_RNvMs4_CseymUlnl0dXB_12smith_configNtB5_17NatsLoggingConfig7testing
FN:772,_RNvMs7_CseymUlnl0dXB_12smith_configNtB5_6Config10production
FN:767,_RNvMs7_CseymUlnl0dXB_12smith_configNtB5_6Config11development
FN:666,_RNvMs7_CseymUlnl0dXB_12smith_configNtB5_6Config13validate_port
FN:644,_RNvMs7_CseymUlnl0dXB_12smith_configNtB5_6Config16apply_env_string
FN:683,_RNvMs7_CseymUlnl0dXB_12smith_configNtB5_6Config20production_bind_addr
FN:678,_RNvMs7_CseymUlnl0dXB_12smith_configNtB5_6Config21development_bind_addr
FN:632,_RNvMs7_CseymUlnl0dXB_12smith_configNtB5_6Config21parse_redaction_level
FN:708,_RNvMs7_CseymUlnl0dXB_12smith_configNtB5_6Config22validate_core_services
FN:521,_RNvMs7_CseymUlnl0dXB_12smith_configNtB5_6Config23apply_all_env_overrides
FN:750,_RNvMs7_CseymUlnl0dXB_12smith_configNtB5_6Config23validate_system_configs
FN:544,_RNvMs7_CseymUlnl0dXB_12smith_configNtB5_6Config24apply_http_env_overrides
FN:533,_RNvMs7_CseymUlnl0dXB_12smith_configNtB5_6Config24apply_nats_env_overrides
FN:782,_RNvMs7_CseymUlnl0dXB_12smith_configNtB5_6Config25create_environment_config
FN:729,_RNvMs7_CseymUlnl0dXB_12smith_configNtB5_6Config26validate_platform_services
FN:562,_RNvMs7_CseymUlnl0dXB_12smith_configNtB5_6Config27apply_logging_env_overrides
FN:596,_RNvMs7_CseymUlnl0dXB_12smith_configNtB5_6Config27apply_metrics_env_overrides
FN:552,_RNvMs7_CseymUlnl0dXB_12smith_configNtB5_6Config28apply_executor_env_overrides
FN:609,_RNvMs7_CseymUlnl0dXB_12smith_configNtB5_6Config33apply_observability_env_overrides
FN:488,_RNvMs7_CseymUlnl0dXB_12smith_configNtB5_6Config7builder
FN:777,_RNvMs7_CseymUlnl0dXB_12smith_configNtB5_6Config7testing
FN:496,_RNvMs7_CseymUlnl0dXB_12smith_configNtB5_6Config8from_env
FN:700,_RNvMs7_CseymUlnl0dXB_12smith_configNtB5_6Config8validate
FN:869,_RNvMs8_CseymUlnl0dXB_12smith_configNtB5_13LoggingConfig10production
FN:858,_RNvMs8_CseymUlnl0dXB_12smith_configNtB5_13LoggingConfig11development
FN:880,_RNvMs8_CseymUlnl0dXB_12smith_configNtB5_13LoggingConfig7testing
FN:834,_RNvMs8_CseymUlnl0dXB_12smith_configNtB5_13LoggingConfig8validate
FN:925,_RNvMs9_CseymUlnl0dXB_12smith_configNtB5_13MetricsConfig10production
FN:913,_RNvMs9_CseymUlnl0dXB_12smith_configNtB5_13MetricsConfig11development
FN:937,_RNvMs9_CseymUlnl0dXB_12smith_configNtB5_13MetricsConfig7testing
FN:893,_RNvMs9_CseymUlnl0dXB_12smith_configNtB5_13MetricsConfig8validate
FN:988,_RNvMsa_CseymUlnl0dXB_12smith_configNtB5_14BehaviorConfig10production
FN:978,_RNvMsa_CseymUlnl0dXB_12smith_configNtB5_14BehaviorConfig11development
FN:998,_RNvMsa_CseymUlnl0dXB_12smith_configNtB5_14BehaviorConfig7testing
FN:949,_RNvMsa_CseymUlnl0dXB_12smith_configNtB5_14BehaviorConfig8validate
FN:1037,_RNvMsb_CseymUlnl0dXB_12smith_configNtB5_16MonitoringConfig10production
FN:1026,_RNvMsb_CseymUlnl0dXB_12smith_configNtB5_16MonitoringConfig11development
FN:1048,_RNvMsb_CseymUlnl0dXB_12smith_configNtB5_16MonitoringConfig7testing
FN:1010,_RNvMsb_CseymUlnl0dXB_12smith_configNtB5_16MonitoringConfig8validate
FN:1073,_RNvMsc_CseymUlnl0dXB_12smith_configNtB5_10CoreConfig10production
FN:1066,_RNvMsc_CseymUlnl0dXB_12smith_configNtB5_10CoreConfig11development
FN:1080,_RNvMsc_CseymUlnl0dXB_12smith_configNtB5_10CoreConfig7testing
FN:1061,_RNvMsc_CseymUlnl0dXB_12smith_configNtB5_10CoreConfig8validate
FN:1101,_RNvMsd_CseymUlnl0dXB_12smith_configNtB5_15AdmissionConfig10production
FN:1094,_RNvMsd_CseymUlnl0dXB_12smith_configNtB5_15AdmissionConfig11development
FN:1108,_RNvMsd_CseymUlnl0dXB_12smith_configNtB5_15AdmissionConfig7testing
FN:1089,_RNvMsd_CseymUlnl0dXB_12smith_configNtB5_15AdmissionConfig8validate
FN:1128,_RNvMse_CseymUlnl0dXB_12smith_configNtB5_17AttestationConfig10production
FN:1122,_RNvMse_CseymUlnl0dXB_12smith_configNtB5_17AttestationConfig11development
FN:1134,_RNvMse_CseymUlnl0dXB_12smith_configNtB5_17AttestationConfig7testing
FN:1117,_RNvMse_CseymUlnl0dXB_12smith_configNtB5_17AttestationConfig8validate
FN:327,_RNvXs0_CseymUlnl0dXB_12smith_configNtB5_16MonitoringConfigNtNtCs66KPHxksi63_4core7default7Default7default
FN:340,_RNvXs1_CseymUlnl0dXB_12smith_configNtB5_10CoreConfigNtNtCs66KPHxksi63_4core7default7Default7default
FN:349,_RNvXs2_CseymUlnl0dXB_12smith_configNtB5_15AdmissionConfigNtNtCs66KPHxksi63_4core7default7Default7default
FN:378,_RNvXs3_CseymUlnl0dXB_12smith_configNtB5_17NatsLoggingConfigNtNtCs66KPHxksi63_4core7default7Default7default
FN:462,_RNvXs5_CseymUlnl0dXB_12smith_configNtB5_13LoggingConfigNtNtCs66KPHxksi63_4core7default7Default7default
FN:475,_RNvXs6_CseymUlnl0dXB_12smith_configNtB5_13MetricsConfigNtNtCs66KPHxksi63_4core7default7Default7default
FN:315,_RNvXs_CseymUlnl0dXB_12smith_configNtB4_14BehaviorConfigNtNtCs66KPHxksi63_4core7default7Default7default
FNDA:1,_RNvNtCseymUlnl0dXB_12smith_config5testss_19test_config_builder
FNDA:1,_RNvNtCseymUlnl0dXB_12smith_config5testss_19test_default_config
FNDA:1,_RNvNtCseymUlnl0dXB_12smith_config5testss_20test_port_validation
FNDA:1,_RNvNtCseymUlnl0dXB_12smith_config5testss_23test_logging_validation
FNDA:1,_RNvNtCseymUlnl0dXB_12smith_config5testss_23test_metrics_validation
FNDA:1,_RNvNtCseymUlnl0dXB_12smith_config5testss_24test_config_debug_format
FNDA:1,_RNvNtCseymUlnl0dXB_12smith_config5testss_25test_bind_address_helpers
FNDA:1,_RNvNtCseymUlnl0dXB_12smith_config5testss_25test_config_serialization
FNDA:1,_RNvNtCseymUlnl0dXB_12smith_config5testss_25test_environment_profiles
FNDA:1,_RNvNtCseymUlnl0dXB_12smith_config5testss_26test_structured_validation
FNDA:1,_RNvNtCseymUlnl0dXB_12smith_config5testss_28test_redaction_level_parsing
FNDA:0,_RNvNtCseymUlnl0dXB_12smith_config5testss_29test_complex_config_scenarios
FNDA:1,_RNvNtCseymUlnl0dXB_12smith_config5testss_29test_config_clone_and_default
FNDA:1,_RNvNtCseymUlnl0dXB_12smith_config5testss_29test_config_from_file_success
FNDA:1,_RNvNtCseymUlnl0dXB_12smith_config5testss_30test_config_builder_edge_cases
FNDA:1,_RNvNtCseymUlnl0dXB_12smith_config5testss_30test_config_toml_serialization
FNDA:1,_RNvNtCseymUlnl0dXB_12smith_config5testss_30test_core_config_comprehensive
FNDA:1,_RNvNtCseymUlnl0dXB_12smith_config5testss_33test_config_builder_comprehensive
FNDA:1,_RNvNtCseymUlnl0dXB_12smith_config5testss_33test_logging_config_comprehensive
FNDA:1,_RNvNtCseymUlnl0dXB_12smith_config5testss_33test_metrics_config_comprehensive
FNDA:1,_RNvNtCseymUlnl0dXB_12smith_config5testss_34test_behavior_config_comprehensive
FNDA:1,_RNvNtCseymUlnl0dXB_12smith_config5testss_34test_config_environment_variations
FNDA:1,_RNvNtCseymUlnl0dXB_12smith_config5testss_34test_port_validation_comprehensive
FNDA:1,_RNvNtCseymUlnl0dXB_12smith_config5testss_35test_admission_config_comprehensive
FNDA:1,_RNvNtCseymUlnl0dXB_12smith_config5testss_35test_environment_config_consistency
FNDA:1,_RNvNtCseymUlnl0dXB_12smith_config5testss_36test_config_from_file_error_handling
FNDA:1,_RNvNtCseymUlnl0dXB_12smith_config5testss_36test_monitoring_config_comprehensive
FNDA:1,_RNvNtCseymUlnl0dXB_12smith_config5testss_37test_attestation_config_comprehensive
FNDA:1,_RNvNtCseymUlnl0dXB_12smith_config5testss_37test_logging_validation_comprehensive
FNDA:1,_RNvNtCseymUlnl0dXB_12smith_config5testss_37test_metrics_validation_comprehensive
FNDA:1,_RNvNtCseymUlnl0dXB_12smith_config5testss_38test_behavior_validation_comprehensive
FNDA:1,_RNvNtCseymUlnl0dXB_12smith_config5testss_38test_config_validation_failure_cascade
FNDA:1,_RNvNtCseymUlnl0dXB_12smith_config5testss_38test_nats_logging_config_comprehensive
FNDA:1,_RNvNtCseymUlnl0dXB_12smith_config5testss_40test_monitoring_validation_comprehensive
FNDA:1,_RNvNtCseymUlnl0dXB_12smith_config5testss_42test_redaction_level_parsing_comprehensive
FNDA:6,_RINvMCseymUlnl0dXB_12smith_configNtB3_13ConfigBuilder13with_nats_urlReEB3_
FNDA:5,_RINvMCseymUlnl0dXB_12smith_configNtB3_13ConfigBuilder14with_log_levelReEB3_
FNDA:1,_RINvMCseymUlnl0dXB_12smith_configNtB3_13ConfigBuilder23with_executor_work_rootNtNtCsiKSG5X70Gj7_3std4path7PathBufEB3_
FNDA:1,_RINvMCseymUlnl0dXB_12smith_configNtB3_13ConfigBuilder23with_executor_work_rootReEB3_
FNDA:35,_RINvMs7_CseymUlnl0dXB_12smith_configNtB6_6Config15apply_env_parsebEB6_
FNDA:10,_RINvMs7_CseymUlnl0dXB_12smith_configNtB6_6Config15apply_env_parsejEB6_
FNDA:5,_RINvMs7_CseymUlnl0dXB_12smith_configNtB6_6Config15apply_env_parsemEB6_
FNDA:5,_RINvMs7_CseymUlnl0dXB_12smith_configNtB6_6Config15apply_env_parsetEB6_
FNDA:10,_RINvMs7_CseymUlnl0dXB_12smith_configNtB6_6Config15apply_env_parseyEB6_
FNDA:2,_RINvMs7_CseymUlnl0dXB_12smith_configNtB6_6Config9from_fileRNtNtCsiKSG5X70Gj7_3std4path4PathEB6_
FNDA:3,_RINvMs7_CseymUlnl0dXB_12smith_configNtB6_6Config9from_fileRNtNtCsiKSG5X70Gj7_3std4path7PathBufEB6_
FNDA:2,_RINvMs7_CseymUlnl0dXB_12smith_configNtB6_6Config9from_fileReEB6_
FNDA:1,_RNCINvMs7_CseymUlnl0dXB_12smith_configNtB8_6Config15apply_env_parsebE0B8_
FNDA:0,_RNCINvMs7_CseymUlnl0dXB_12smith_configNtB8_6Config15apply_env_parsejE0B8_
FNDA:0,_RNCINvMs7_CseymUlnl0dXB_12smith_configNtB8_6Config15apply_env_parsemE0B8_
FNDA:2,_RNCINvMs7_CseymUlnl0dXB_12smith_configNtB8_6Config15apply_env_parsetE0B8_
FNDA:0,_RNCINvMs7_CseymUlnl0dXB_12smith_configNtB8_6Config15apply_env_parseyE0B8_
FNDA:0,_RNCINvMs7_CseymUlnl0dXB_12smith_configNtB8_6Config9from_fileRNtNtCsiKSG5X70Gj7_3std4path4PathE0B8_
FNDA:2,_RNCINvMs7_CseymUlnl0dXB_12smith_configNtB8_6Config9from_fileRNtNtCsiKSG5X70Gj7_3std4path4PathEs_0B8_
FNDA:1,_RNCINvMs7_CseymUlnl0dXB_12smith_configNtB8_6Config9from_fileRNtNtCsiKSG5X70Gj7_3std4path7PathBufE0B8_
FNDA:2,_RNCINvMs7_CseymUlnl0dXB_12smith_configNtB8_6Config9from_fileRNtNtCsiKSG5X70Gj7_3std4path7PathBufEs_0B8_
FNDA:2,_RNCINvMs7_CseymUlnl0dXB_12smith_configNtB8_6Config9from_fileReE0B8_
FNDA:0,_RNCINvMs7_CseymUlnl0dXB_12smith_configNtB8_6Config9from_fileReEs_0B8_
FNDA:4,_RNCNvMs7_CseymUlnl0dXB_12smith_configNtB7_6Config27apply_logging_env_overrides0B7_
FNDA:4,_RNCNvMs7_CseymUlnl0dXB_12smith_configNtB7_6Config27apply_logging_env_overridess_0B7_
FNDA:6,_RNvMCseymUlnl0dXB_12smith_configNtB2_13ConfigBuilder14with_http_port
FNDA:7,_RNvMCseymUlnl0dXB_12smith_configNtB2_13ConfigBuilder15for_environment
FNDA:15,_RNvMCseymUlnl0dXB_12smith_configNtB2_13ConfigBuilder3new
FNDA:10,_RNvMCseymUlnl0dXB_12smith_configNtB2_13ConfigBuilder5build
FNDA:12,_RNvMs4_CseymUlnl0dXB_12smith_configNtB5_17NatsLoggingConfig10production
FNDA:21,_RNvMs4_CseymUlnl0dXB_12smith_configNtB5_17NatsLoggingConfig11development
FNDA:13,_RNvMs4_CseymUlnl0dXB_12smith_configNtB5_17NatsLoggingConfig7testing
FNDA:8,_RNvMs7_CseymUlnl0dXB_12smith_configNtB5_6Config10production
FNDA:17,_RNvMs7_CseymUlnl0dXB_12smith_configNtB5_6Config11development
FNDA:57,_RNvMs7_CseymUlnl0dXB_12smith_configNtB5_6Config13validate_port
FNDA:15,_RNvMs7_CseymUlnl0dXB_12smith_configNtB5_6Config16apply_env_string
FNDA:34,_RNvMs7_CseymUlnl0dXB_12smith_configNtB5_6Config20production_bind_addr
FNDA:96,_RNvMs7_CseymUlnl0dXB_12smith_configNtB5_6Config21development_bind_addr
FNDA:23,_RNvMs7_CseymUlnl0dXB_12smith_configNtB5_6Config21parse_redaction_level
FNDA:8,_RNvMs7_CseymUlnl0dXB_12smith_configNtB5_6Config22validate_core_services
FNDA:1,_RNvMs7_CseymUlnl0dXB_12smith_configNtB5_6Config23apply_all_env_overrides
FNDA:0,_RNvMs7_CseymUlnl0dXB_12smith_configNtB5_6Config23validate_system_configs
FNDA:3,_RNvMs7_CseymUlnl0dXB_12smith_configNtB5_6Config24apply_http_env_overrides
FNDA:2,_RNvMs7_CseymUlnl0dXB_12smith_configNtB5_6Config24apply_nats_env_overrides
FNDA:37,_RNvMs7_CseymUlnl0dXB_12smith_configNtB5_6Config25create_environment_config
FNDA:0,_RNvMs7_CseymUlnl0dXB_12smith_configNtB5_6Config26validate_platform_services
FNDA:6,_RNvMs7_CseymUlnl0dXB_12smith_configNtB5_6Config27apply_logging_env_overrides
FNDA:2,_RNvMs7_CseymUlnl0dXB_12smith_configNtB5_6Config27apply_metrics_env_overrides
FNDA:2,_RNvMs7_CseymUlnl0dXB_12smith_configNtB5_6Config28apply_executor_env_overrides
FNDA:5,_RNvMs7_CseymUlnl0dXB_12smith_configNtB5_6Config33apply_observability_env_overrides
FNDA:1,_RNvMs7_CseymUlnl0dXB_12smith_configNtB5_6Config7builder
FNDA:9,_RNvMs7_CseymUlnl0dXB_12smith_configNtB5_6Config7testing
FNDA:1,_RNvMs7_CseymUlnl0dXB_12smith_configNtB5_6Config8from_env
FNDA:8,_RNvMs7_CseymUlnl0dXB_12smith_configNtB5_6Config8validate
FNDA:10,_RNvMs8_CseymUlnl0dXB_12smith_configNtB5_13LoggingConfig10production
FNDA:19,_RNvMs8_CseymUlnl0dXB_12smith_configNtB5_13LoggingConfig11development
FNDA:11,_RNvMs8_CseymUlnl0dXB_12smith_configNtB5_13LoggingConfig7testing
FNDA:22,_RNvMs8_CseymUlnl0dXB_12smith_configNtB5_13LoggingConfig8validate
FNDA:10,_RNvMs9_CseymUlnl0dXB_12smith_configNtB5_13MetricsConfig10production
FNDA:19,_RNvMs9_CseymUlnl0dXB_12smith_configNtB5_13MetricsConfig11development
FNDA:11,_RNvMs9_CseymUlnl0dXB_12smith_configNtB5_13MetricsConfig7testing
FNDA:19,_RNvMs9_CseymUlnl0dXB_12smith_configNtB5_13MetricsConfig8validate
FNDA:10,_RNvMsa_CseymUlnl0dXB_12smith_configNtB5_14BehaviorConfig10production
FNDA:19,_RNvMsa_CseymUlnl0dXB_12smith_configNtB5_14BehaviorConfig11development
FNDA:11,_RNvMsa_CseymUlnl0dXB_12smith_configNtB5_14BehaviorConfig7testing
FNDA:15,_RNvMsa_CseymUlnl0dXB_12smith_configNtB5_14BehaviorConfig8validate
FNDA:10,_RNvMsb_CseymUlnl0dXB_12smith_configNtB5_16MonitoringConfig10production
FNDA:19,_RNvMsb_CseymUlnl0dXB_12smith_configNtB5_16MonitoringConfig11development
FNDA:11,_RNvMsb_CseymUlnl0dXB_12smith_configNtB5_16MonitoringConfig7testing
FNDA:10,_RNvMsb_CseymUlnl0dXB_12smith_configNtB5_16MonitoringConfig8validate
FNDA:11,_RNvMsc_CseymUlnl0dXB_12smith_configNtB5_10CoreConfig10production
FNDA:20,_RNvMsc_CseymUlnl0dXB_12smith_configNtB5_10CoreConfig11development
FNDA:12,_RNvMsc_CseymUlnl0dXB_12smith_configNtB5_10CoreConfig7testing
FNDA:7,_RNvMsc_CseymUlnl0dXB_12smith_configNtB5_10CoreConfig8validate
FNDA:11,_RNvMsd_CseymUlnl0dXB_12smith_configNtB5_15AdmissionConfig10production
FNDA:20,_RNvMsd_CseymUlnl0dXB_12smith_configNtB5_15AdmissionConfig11development
FNDA:12,_RNvMsd_CseymUlnl0dXB_12smith_configNtB5_15AdmissionConfig7testing
FNDA:7,_RNvMsd_CseymUlnl0dXB_12smith_configNtB5_15AdmissionConfig8validate
FNDA:11,_RNvMse_CseymUlnl0dXB_12smith_configNtB5_17AttestationConfig10production
FNDA:20,_RNvMse_CseymUlnl0dXB_12smith_configNtB5_17AttestationConfig11development
FNDA:12,_RNvMse_CseymUlnl0dXB_12smith_configNtB5_17AttestationConfig7testing
FNDA:8,_RNvMse_CseymUlnl0dXB_12smith_configNtB5_17AttestationConfig8validate
FNDA:24,_RNvXs0_CseymUlnl0dXB_12smith_configNtB5_16MonitoringConfigNtNtCs66KPHxksi63_4core7default7Default7default
FNDA:23,_RNvXs1_CseymUlnl0dXB_12smith_configNtB5_10CoreConfigNtNtCs66KPHxksi63_4core7default7Default7default
FNDA:23,_RNvXs2_CseymUlnl0dXB_12smith_configNtB5_15AdmissionConfigNtNtCs66KPHxksi63_4core7default7Default7default
FNDA:26,_RNvXs3_CseymUlnl0dXB_12smith_configNtB5_17NatsLoggingConfigNtNtCs66KPHxksi63_4core7default7Default7default
FNDA:25,_RNvXs5_CseymUlnl0dXB_12smith_configNtB5_13LoggingConfigNtNtCs66KPHxksi63_4core7default7Default7default
FNDA:25,_RNvXs6_CseymUlnl0dXB_12smith_configNtB5_13MetricsConfigNtNtCs66KPHxksi63_4core7default7Default7default
FNDA:25,_RNvXs_CseymUlnl0dXB_12smith_configNtB4_14BehaviorConfigNtNtCs66KPHxksi63_4core7default7Default7default
FNF:109
FNH:106
DA:54,15
DA:55,15
DA:56,15
DA:59,6
DA:60,6
DA:61,6
DA:62,6
DA:65,6
DA:66,6
DA:67,6
DA:68,6
DA:71,2
DA:72,2
DA:73,2
DA:74,2
DA:77,5
DA:78,5
DA:79,5
DA:80,5
DA:83,7
DA:84,7
DA:85,7
DA:86,7
DA:89,10
DA:90,10
DA:91,6
DA:92,2
DA:93,2
DA:97,10
DA:98,5
DA:99,5
DA:100,10
DA:101,5
DA:102,5
DA:103,10
DA:104,2
DA:105,8
DA:106,10
DA:107,4
DA:108,6
DA:110,10
DA:111,10
DA:315,25
DA:316,25
DA:317,25
DA:318,25
DA:319,25
DA:320,25
DA:321,25
DA:322,25
DA:323,25
DA:327,24
DA:328,24
DA:329,24
DA:330,24
DA:331,24
DA:332,24
DA:333,24
DA:334,24
DA:335,24
DA:336,24
DA:340,23
DA:341,23
DA:342,23
DA:343,23
DA:344,23
DA:345,23
DA:349,23
DA:350,23
DA:351,23
DA:352,23
DA:353,23
DA:354,23
DA:378,26
DA:379,26
DA:380,26
DA:381,26
DA:382,26
DA:383,26
DA:384,26
DA:385,26
DA:386,26
DA:387,26
DA:388,26
DA:389,26
DA:390,26
DA:391,26
DA:392,26
DA:393,26
DA:394,26
DA:398,21
DA:399,21
DA:400,21
DA:401,21
DA:402,21
DA:403,21
DA:404,21
DA:405,21
DA:406,21
DA:407,21
DA:408,21
DA:409,21
DA:410,21
DA:411,21
DA:412,21
DA:413,21
DA:414,21
DA:415,21
DA:416,21
DA:417,21
DA:418,21
DA:420,12
DA:421,12
DA:422,12
DA:423,12
DA:424,12
DA:425,12
DA:426,12
DA:427,12
DA:428,12
DA:429,12
DA:430,12
DA:431,12
DA:432,12
DA:433,12
DA:434,12
DA:435,12
DA:436,12
DA:437,12
DA:438,12
DA:439,12
DA:440,12
DA:442,13
DA:443,13
DA:444,13
DA:445,13
DA:446,13
DA:447,13
DA:448,13
DA:449,13
DA:450,13
DA:451,13
DA:452,13
DA:453,13
DA:454,13
DA:455,13
DA:456,13
DA:457,13
DA:458,13
DA:462,25
DA:463,25
DA:464,25
DA:465,25
DA:466,25
DA:467,25
DA:468,25
DA:469,25
DA:470,25
DA:471,25
DA:475,25
DA:476,25
DA:477,25
DA:478,25
DA:479,25
DA:480,25
DA:481,25
DA:482,25
DA:483,25
DA:488,1
DA:489,1
DA:490,1
DA:496,1
DA:502,1
DA:503,1
DA:504,1
DA:506,1
DA:507,1
DA:508,1
DA:509,1
DA:521,1
DA:522,1
DA:523,1
DA:524,1
DA:525,1
DA:526,1
DA:527,1
DA:528,1
DA:529,1
DA:533,2
DA:534,2
DA:535,2
DA:536,2
DA:537,2
DA:539,2
DA:540,2
DA:544,3
DA:545,3
DA:546,2
DA:547,2
DA:548,3
DA:552,2
DA:553,2
DA:554,1
DA:555,1
DA:556,2
DA:557,2
DA:558,2
DA:562,6
DA:563,6
DA:564,6
DA:567,5
DA:568,5
DA:569,5
DA:570,5
DA:571,5
DA:572,5
DA:573,5
DA:574,5
DA:575,5
DA:576,5
DA:579,5
DA:580,1
DA:581,4
DA:584,5
DA:585,2
DA:586,4
DA:587,4
DA:588,2
DA:589,3
DA:591,5
DA:592,6
DA:596,2
DA:597,2
DA:598,2
DA:599,1
DA:600,1
DA:601,1
DA:602,1
DA:603,1
DA:604,2
DA:605,2
DA:609,5
DA:610,5
DA:611,1
DA:612,1
DA:613,1
DA:614,4
DA:615,5
DA:616,3
DA:617,2
DA:618,4
DA:619,1
DA:620,3
DA:621,4
DA:622,0
DA:623,4
DA:624,4
DA:625,0
DA:626,4
DA:627,4
DA:628,5
DA:632,23
DA:633,23
DA:634,23
DA:635,19
DA:636,15
DA:637,15
DA:638,15
DA:640,23
DA:644,15
DA:645,15
DA:646,7
DA:647,8
DA:648,15
DA:652,65
DA:653,65
DA:654,65
DA:655,65
DA:657,65
DA:658,21
DA:659,21
DA:660,21
DA:661,44
DA:662,62
DA:663,65
DA:666,57
DA:667,57
DA:668,15
DA:669,15
DA:670,15
DA:671,15
DA:672,15
DA:673,42
DA:674,42
DA:675,57
DA:678,96
DA:679,96
DA:680,96
DA:683,34
DA:684,34
DA:685,34
DA:688,7
DA:689,7
DA:690,7
DA:692,4
DA:693,4
DA:695,0
DA:696,0
DA:697,7
DA:700,8
DA:701,8
DA:702,0
DA:703,0
DA:704,0
DA:705,8
DA:708,8
DA:709,8
DA:710,8
DA:711,8
DA:712,8
DA:713,7
DA:714,7
DA:715,7
DA:716,7
DA:717,6
DA:718,6
DA:719,6
DA:720,6
DA:721,0
DA:722,0
DA:723,0
DA:724,0
DA:725,0
DA:726,8
DA:729,0
DA:730,0
DA:731,0
DA:732,0
DA:733,0
DA:734,0
DA:735,0
DA:736,0
DA:737,0
DA:738,0
DA:739,0
DA:740,0
DA:741,0
DA:742,0
DA:743,0
DA:744,0
DA:745,0
DA:746,0
DA:747,0
DA:750,0
DA:751,0
DA:752,0
DA:753,0
DA:754,0
DA:755,0
DA:756,0
DA:757,0
DA:758,0
DA:759,0
DA:760,0
DA:761,0
DA:762,0
DA:763,0
DA:764,0
DA:767,17
DA:768,17
DA:769,17
DA:772,8
DA:773,8
DA:774,8
DA:777,9
DA:778,9
DA:779,9
DA:782,37
DA:783,37
DA:784,18
DA:785,18
DA:786,18
DA:787,18
DA:788,18
DA:789,18
DA:790,18
DA:791,18
DA:792,18
DA:793,18
DA:794,18
DA:795,18
DA:796,18
DA:797,18
DA:798,18
DA:799,9
DA:800,9
DA:801,9
DA:802,9
DA:803,9
DA:804,9
DA:805,9
DA:806,9
DA:807,9
DA:808,9
DA:809,9
DA:810,9
DA:811,9
DA:812,9
DA:813,9
DA:814,10
DA:815,10
DA:816,10
DA:817,10
DA:818,10
DA:819,10
DA:820,10
DA:821,10
DA:822,10
DA:823,10
DA:824,10
DA:825,10
DA:826,10
DA:827,10
DA:828,10
DA:830,37
DA:834,22
DA:835,22
DA:836,22
DA:837,8
DA:838,8
DA:839,8
DA:840,8
DA:841,8
DA:842,14
DA:844,14
DA:845,2
DA:846,2
DA:847,1
DA:848,1
DA:849,1
DA:850,1
DA:851,1
DA:852,0
DA:853,12
DA:855,13
DA:856,22
DA:858,19
DA:859,19
DA:860,19
DA:861,19
DA:862,19
DA:863,19
DA:864,19
DA:865,19
DA:866,19
DA:867,19
DA:869,10
DA:870,10
DA:871,10
DA:872,10
DA:873,10
DA:874,10
DA:875,10
DA:876,10
DA:877,10
DA:878,10
DA:880,11
DA:881,11
DA:882,11
DA:883,11
DA:884,11
DA:885,11
DA:886,11
DA:887,11
DA:888,11
DA:889,11
DA:893,19
DA:894,19
DA:895,3
DA:896,16
DA:898,16
DA:899,11
DA:900,5
DA:902,12
DA:903,2
DA:904,10
DA:906,10
DA:907,1
DA:908,9
DA:910,10
DA:911,19
DA:913,19
DA:914,19
DA:915,19
DA:916,19
DA:917,19
DA:918,19
DA:919,19
DA:920,19
DA:921,19
DA:922,19
DA:923,19
DA:925,10
DA:926,10
DA:927,10
DA:928,10
DA:929,10
DA:930,10
DA:931,10
DA:932,10
DA:933,10
DA:934,10
DA:935,10
DA:937,11
DA:938,11
DA:939,11
DA:940,11
DA:941,11
DA:942,11
DA:943,11
DA:944,11
DA:945,11
DA:949,15
DA:950,15
DA:951,2
DA:952,2
DA:953,2
DA:954,13
DA:956,13
DA:957,2
DA:958,11
DA:960,11
DA:961,5
DA:962,6
DA:964,11
DA:965,2
DA:966,9
DA:968,9
DA:969,1
DA:970,0
DA:971,0
DA:973,8
DA:975,9
DA:976,15
DA:978,19
DA:979,19
DA:980,19
DA:981,19
DA:982,19
DA:983,19
DA:984,19
DA:985,19
DA:986,19
DA:988,10
DA:989,10
DA:990,10
DA:991,10
DA:992,10
DA:993,10
DA:994,10
DA:995,10
DA:996,10
DA:998,11
DA:999,11
DA:1000,11
DA:1001,11
DA:1002,11
DA:1003,11
DA:1004,11
DA:1005,11
DA:1006,11
DA:1010,10
DA:1011,10
DA:1013,9
DA:1014,2
DA:1015,7
DA:1017,7
DA:1018,2
DA:1019,2
DA:1020,2
DA:1021,5
DA:1023,5
DA:1024,10
DA:1026,19
DA:1027,19
DA:1028,19
DA:1029,19
DA:1030,19
DA:1031,19
DA:1032,19
DA:1033,19
DA:1034,19
DA:1035,19
DA:1037,10
DA:1038,10
DA:1039,10
DA:1040,10
DA:1041,10
DA:1042,10
DA:1043,10
DA:1044,10
DA:1045,10
DA:1046,10
DA:1048,11
DA:1049,11
DA:1050,11
DA:1051,11
DA:1052,11
DA:1053,11
DA:1054,11
DA:1055,11
DA:1056,11
DA:1057,11
DA:1061,7
DA:1062,7
DA:1063,7
DA:1064,7
DA:1066,20
DA:1067,20
DA:1068,20
DA:1069,20
DA:1070,20
DA:1071,20
DA:1073,11
DA:1074,11
DA:1075,11
DA:1076,11
DA:1077,11
DA:1078,11
DA:1080,12
DA:1081,12
DA:1082,12
DA:1083,12
DA:1084,12
DA:1085,12
DA:1089,7
DA:1090,7
DA:1091,7
DA:1092,7
DA:1094,20
DA:1095,20
DA:1096,20
DA:1097,20
DA:1098,20
DA:1099,20
DA:1101,11
DA:1102,11
DA:1103,11
DA:1104,11
DA:1105,11
DA:1106,11
DA:1108,12
DA:1109,12
DA:1110,12
DA:1111,12
DA:1112,12
DA:1113,12
DA:1117,8
DA:1119,8
DA:1120,8
DA:1122,20
DA:1123,20
DA:1124,20
DA:1125,20
DA:1126,20
DA:1128,11
DA:1129,11
DA:1130,11
DA:1131,11
DA:1132,11
DA:1134,12
DA:1135,12
DA:1136,12
DA:1137,12
DA:1138,12
DA:1149,1
DA:1150,1
DA:1154,1
DA:1157,1
DA:1158,1
DA:1159,1
DA:1160,1
DA:1167,1
DA:1168,1
DA:1169,1
DA:1170,1
DA:1173,1
DA:1174,1
DA:1177,1
DA:1180,1
DA:1181,1
DA:1182,1
DA:1185,1
DA:1186,1
DA:1189,1
DA:1192,1
DA:1193,1
DA:1196,1
DA:1197,1
DA:1198,1
DA:1199,1
DA:1202,1
DA:1203,1
DA:1204,1
DA:1205,1
DA:1206,1
DA:1207,1
DA:1208,1
DA:1210,1
DA:1211,1
DA:1212,1
DA:1213,1
DA:1216,1
DA:1218,1
DA:1221,1
DA:1222,1
DA:1223,1
DA:1226,1
DA:1227,1
DA:1228,1
DA:1229,1
DA:1232,1
DA:1233,1
DA:1234,1
DA:1237,1
DA:1238,1
DA:1241,1
DA:1242,1
DA:1245,1
DA:1246,1
DA:1248,1
DA:1249,1
DA:1254,1
DA:1256,1
DA:1257,1
DA:1260,1
DA:1261,1
DA:1262,1
DA:1263,1
DA:1264,1
DA:1265,1
DA:1266,1
DA:1268,1
DA:1269,1
DA:1270,1
DA:1271,1
DA:1274,1
DA:1275,1
DA:1276,1
DA:1277,1
DA:1279,1
DA:1280,1
DA:1281,1
DA:1282,1
DA:1284,1
DA:1285,1
DA:1286,1
DA:1287,1
DA:1288,1
DA:1291,1
DA:1292,1
DA:1293,1
DA:1294,1
DA:1295,1
DA:1296,1
DA:1298,4
DA:1299,3
DA:1302,3
DA:1304,3
DA:1306,1
DA:1309,2
DA:1312,3
DA:1315,3
DA:1317,1
DA:1318,1
DA:1319,1
DA:1320,1
DA:1323,1
DA:1324,1
DA:1325,1
DA:1326,1
DA:1329,1
DA:1330,1
DA:1331,1
DA:1332,1
DA:1336,1
DA:1339,1
DA:1341,1
DA:1342,1
DA:1343,1
DA:1344,1
DA:1345,1
DA:1346,1
DA:1348,1
DA:1349,1
DA:1350,1
DA:1351,1
DA:1352,1
DA:1353,1
DA:1355,1
DA:1356,1
DA:1357,1
DA:1358,1
DA:1359,1
DA:1360,1
DA:1361,1
DA:1364,1
DA:1365,1
DA:1368,1
DA:1369,6
DA:1370,5
DA:1371,5
DA:1375,1
DA:1376,7
DA:1377,6
DA:1378,6
DA:1382,1
DA:1383,1
DA:1384,1
DA:1387,1
DA:1388,1
DA:1389,1
DA:1390,1
DA:1391,1
DA:1394,1
DA:1396,1
DA:1397,1
DA:1398,1
DA:1399,1
DA:1400,1
DA:1401,1
DA:1404,1
DA:1405,1
DA:1406,1
DA:1407,1
DA:1408,1
DA:1409,1
DA:1410,1
DA:1413,1
DA:1414,1
DA:1415,1
DA:1416,1
DA:1417,1
DA:1418,1
DA:1421,1
DA:1422,1
DA:1423,1
DA:1424,1
DA:1425,1
DA:1426,1
DA:1427,1
DA:1428,1
DA:1429,1
DA:1430,1
DA:1431,1
DA:1432,1
DA:1433,1
DA:1434,1
DA:1435,1
DA:1438,1
DA:1440,1
DA:1441,1
DA:1442,1
DA:1443,1
DA:1444,1
DA:1445,1
DA:1448,1
DA:1449,1
DA:1450,1
DA:1451,1
DA:1452,1
DA:1453,1
DA:1456,1
DA:1457,1
DA:1458,1
DA:1459,1
DA:1460,1
DA:1461,1
DA:1462,1
DA:1465,1
DA:1466,1
DA:1469,1
DA:1472,1
DA:1473,1
DA:1476,1
DA:1477,1
DA:1480,1
DA:1481,1
DA:1483,1
DA:1484,1
DA:1486,1
DA:1487,1
DA:1489,1
DA:1490,1
DA:1493,1
DA:1494,1
DA:1497,1
DA:1498,1
DA:1501,1
DA:1502,1
DA:1504,1
DA:1505,1
DA:1508,1
DA:1509,1
DA:1510,1
DA:1513,1
DA:1515,1
DA:1516,1
DA:1517,1
DA:1518,1
DA:1519,1
DA:1522,1
DA:1523,1
DA:1524,1
DA:1525,1
DA:1526,1
DA:1529,1
DA:1530,1
DA:1531,1
DA:1532,1
DA:1533,1
DA:1536,1
DA:1537,1
DA:1538,1
DA:1539,1
DA:1540,1
DA:1541,1
DA:1544,1
DA:1545,1
DA:1548,1
DA:1551,1
DA:1552,1
DA:1555,1
DA:1556,1
DA:1559,1
DA:1560,1
DA:1563,1
DA:1564,1
DA:1566,1
DA:1567,1
DA:1570,1
DA:1571,1
DA:1574,1
DA:1575,1
DA:1578,1
DA:1579,1
DA:1581,1
DA:1582,1
DA:1585,1
DA:1586,1
DA:1587,1
DA:1590,1
DA:1592,1
DA:1593,1
DA:1594,1
DA:1595,1
DA:1596,1
DA:1597,1
DA:1598,1
DA:1601,1
DA:1602,1
DA:1603,1
DA:1604,1
DA:1605,1
DA:1606,1
DA:1607,1
DA:1610,1
DA:1611,1
DA:1612,1
DA:1613,1
DA:1614,1
DA:1615,1
DA:1616,1
DA:1617,1
DA:1620,1
DA:1621,1
DA:1624,1
DA:1627,1
DA:1628,1
DA:1630,1
DA:1631,1
DA:1634,1
DA:1635,1
DA:1637,1
DA:1638,1
DA:1641,1
DA:1642,1
DA:1644,1
DA:1645,1
DA:1646,1
DA:1649,1
DA:1651,1
DA:1652,1
DA:1653,1
DA:1655,1
DA:1656,1
DA:1657,1
DA:1659,1
DA:1660,1
DA:1661,1
DA:1664,1
DA:1665,1
DA:1666,1
DA:1667,1
DA:1670,1
DA:1672,1
DA:1673,1
DA:1674,1
DA:1676,1
DA:1677,1
DA:1678,1
DA:1680,1
DA:1681,1
DA:1682,1
DA:1685,1
DA:1686,1
DA:1687,1
DA:1688,1
DA:1691,1
DA:1693,1
DA:1694,1
DA:1696,1
DA:1697,1
DA:1699,1
DA:1700,1
DA:1703,1
DA:1704,1
DA:1705,1
DA:1708,1
DA:1709,1
DA:1710,1
DA:1711,1
DA:1714,1
DA:1716,1
DA:1717,1
DA:1720,1
DA:1721,1
DA:1722,1
DA:1723,1
DA:1724,1
DA:1727,1
DA:1728,7
DA:1729,6
DA:1731,1
DA:1734,1
DA:1736,1
DA:1737,1
DA:1740,1
DA:1741,1
DA:1746,1
DA:1747,1
DA:1748,1
DA:1749,1
DA:1752,1
DA:1753,7
DA:1754,6
DA:1756,1
DA:1759,1
DA:1760,1
DA:1763,1
DA:1764,1
DA:1767,1
DA:1768,1
DA:1769,1
DA:1770,1
DA:1771,1
DA:1774,1
DA:1775,1
DA:1778,1
DA:1779,1
DA:1782,1
DA:1783,1
DA:1784,1
DA:1785,1
DA:1788,1
DA:1790,1
DA:1791,1
DA:1792,1
DA:1793,1
DA:1796,1
DA:1797,1
DA:1799,1
DA:1800,1
DA:1801,1
DA:1802,1
DA:1803,1
DA:1806,1
DA:1808,1
DA:1809,1
DA:1810,1
DA:1811,1
DA:1812,1
DA:1813,1
DA:1814,1
DA:1815,1
DA:1816,1
DA:1817,1
DA:1821,1
DA:1824,1
DA:1825,1
DA:1826,1
DA:1827,0
DA:1830,1
DA:1833,1
DA:1834,1
DA:1836,1
DA:1837,1
DA:1838,1
DA:1841,1
DA:1842,1
DA:1845,1
DA:1846,1
DA:1847,1
DA:1850,1
DA:1851,1
DA:1854,1
DA:1855,1
DA:1856,1
DA:1859,1
DA:1861,1
DA:1862,1
DA:1863,1
DA:1866,1
DA:1867,1
DA:1868,1
DA:1870,1
DA:1871,1
DA:1872,1
DA:1874,1
DA:1875,1
DA:1876,1
DA:1879,1
DA:1880,1
DA:1881,1
DA:1884,1
DA:1885,1
DA:1886,1
DA:1889,1
DA:1890,1
DA:1891,1
DA:1894,1
DA:1895,1
DA:1896,1
DA:1897,1
DA:1900,1
DA:1901,1
DA:1902,1
DA:1905,1
DA:1906,1
DA:1907,1
DA:1908,1
DA:1909,1
DA:1912,1
DA:1914,1
DA:1915,1
DA:1918,1
DA:1919,1
DA:1920,1
DA:1921,1
DA:1922,1
DA:1925,1
DA:1926,1
DA:1927,1
DA:1930,1
DA:1931,1
DA:1935,0
DA:1937,0
DA:1938,0
DA:1939,0
DA:1941,0
DA:1942,0
DA:1945,0
DA:1946,0
DA:1947,0
DA:1948,0
DA:1949,0
DA:1951,0
DA:1953,0
DA:1954,0
BRF:0
BRH:0
LF:1184
LH:1120
end_of_record
SF:/home/nathan/Projects/smith/shared/smith-config/src/mcp.rs
FN:313,_RNvNtNtCseymUlnl0dXB_12smith_config3mcp5testss_19test_server_helpers
FN:239,_RNvNtNtCseymUlnl0dXB_12smith_config3mcp5testss_20test_config_defaults
FN:287,_RNvNtNtCseymUlnl0dXB_12smith_config3mcp5testss_22test_config_validation
FN:330,_RNvNtNtCseymUlnl0dXB_12smith_config3mcp5testss_26test_config_server_finding
FN:255,_RNvNtNtCseymUlnl0dXB_12smith_config3mcp5testss_29test_server_config_validation
FN:142,_RNvMs0_NtCseymUlnl0dXB_12smith_config3mcpNtB5_9McpConfig10production
FN:127,_RNvMs0_NtCseymUlnl0dXB_12smith_config3mcpNtB5_9McpConfig11development
FN:183,_RNvMs0_NtCseymUlnl0dXB_12smith_config3mcpNtB5_9McpConfig11find_server
FN:188,_RNvMs0_NtCseymUlnl0dXB_12smith_config3mcpNtB5_9McpConfig15enabled_servers
FN:157,_RNvMs0_NtCseymUlnl0dXB_12smith_config3mcpNtB5_9McpConfig8validate
FN:229,_RNvMs1_NtCseymUlnl0dXB_12smith_config3mcpNtB5_15McpServerConfig12display_name
FN:224,_RNvMs1_NtCseymUlnl0dXB_12smith_config3mcpNtB5_15McpServerConfig7has_tag
FN:195,_RNvMs1_NtCseymUlnl0dXB_12smith_config3mcpNtB5_15McpServerConfig8validate
FN:88,_RNvXNtCseymUlnl0dXB_12smith_config3mcpNtB2_9McpConfigNtNtCs66KPHxksi63_4core7default7Default7default
FN:104,_RNvXs_NtCseymUlnl0dXB_12smith_config3mcpNtB4_15McpServerConfigNtNtCs66KPHxksi63_4core7default7Default7default
FN:184,_RNCNvMs0_NtCseymUlnl0dXB_12smith_config3mcpNtB7_9McpConfig11find_server0B9_
FNDA:1,_RNvNtNtCseymUlnl0dXB_12smith_config3mcp5testss_19test_server_helpers
FNDA:1,_RNvNtNtCseymUlnl0dXB_12smith_config3mcp5testss_20test_config_defaults
FNDA:1,_RNvNtNtCseymUlnl0dXB_12smith_config3mcp5testss_22test_config_validation
FNDA:1,_RNvNtNtCseymUlnl0dXB_12smith_config3mcp5testss_26test_config_server_finding
FNDA:1,_RNvNtNtCseymUlnl0dXB_12smith_config3mcp5testss_29test_server_config_validation
FNDA:10,_RNvMs0_NtCseymUlnl0dXB_12smith_config3mcpNtB5_9McpConfig10production
FNDA:21,_RNvMs0_NtCseymUlnl0dXB_12smith_config3mcpNtB5_9McpConfig11development
FNDA:3,_RNvMs0_NtCseymUlnl0dXB_12smith_config3mcpNtB5_9McpConfig11find_server
FNDA:1,_RNvMs0_NtCseymUlnl0dXB_12smith_config3mcpNtB5_9McpConfig15enabled_servers
FNDA:3,_RNvMs0_NtCseymUlnl0dXB_12smith_config3mcpNtB5_9McpConfig8validate
FNDA:1,_RNvMs1_NtCseymUlnl0dXB_12smith_config3mcpNtB5_15McpServerConfig12display_name
FNDA:3,_RNvMs1_NtCseymUlnl0dXB_12smith_config3mcpNtB5_15McpServerConfig7has_tag
FNDA:8,_RNvMs1_NtCseymUlnl0dXB_12smith_config3mcpNtB5_15McpServerConfig8validate
FNDA:33,_RNvXNtCseymUlnl0dXB_12smith_config3mcpNtB2_9McpConfigNtNtCs66KPHxksi63_4core7default7Default7default
FNDA:6,_RNvXs_NtCseymUlnl0dXB_12smith_config3mcpNtB4_15McpServerConfigNtNtCs66KPHxksi63_4core7default7Default7default
FNDA:5,_RNCNvMs0_NtCseymUlnl0dXB_12smith_config3mcpNtB7_9McpConfig11find_server0B9_
FNF:16
FNH:16
DA:88,33
DA:89,33
DA:90,33
DA:91,33
DA:92,33
DA:93,33
DA:94,33
DA:95,33
DA:96,33
DA:97,33
DA:98,33
DA:99,33
DA:100,33
DA:104,6
DA:105,6
DA:106,6
DA:107,6
DA:108,6
DA:109,6
DA:110,6
DA:111,6
DA:112,6
DA:113,6
DA:114,6
DA:115,6
DA:116,6
DA:117,6
DA:118,6
DA:119,6
DA:120,6
DA:121,6
DA:122,6
DA:127,21
DA:128,21
DA:129,21
DA:130,21
DA:131,21
DA:132,21
DA:133,21
DA:134,21
DA:135,21
DA:136,21
DA:137,21
DA:138,21
DA:139,21
DA:142,10
DA:143,10
DA:144,10
DA:145,10
DA:146,10
DA:147,10
DA:148,10
DA:149,10
DA:150,10
DA:151,10
DA:152,10
DA:153,10
DA:154,10
DA:157,3
DA:158,3
DA:159,1
DA:160,2
DA:162,2
DA:163,0
DA:164,2
DA:167,4
DA:168,2
DA:172,2
DA:173,3
DA:174,2
DA:175,1
DA:176,1
DA:179,1
DA:180,3
DA:183,3
DA:184,5
DA:185,3
DA:188,1
DA:189,1
DA:190,1
DA:195,8
DA:196,8
DA:197,1
DA:198,7
DA:200,7
DA:201,1
DA:202,6
DA:204,6
DA:205,0
DA:206,0
DA:207,0
DA:208,0
DA:209,0
DA:210,0
DA:211,6
DA:213,6
DA:214,2
DA:215,2
DA:216,2
DA:217,2
DA:218,4
DA:220,4
DA:221,8
DA:224,3
DA:225,3
DA:226,3
DA:229,1
DA:230,1
DA:231,1
DA:239,1
DA:240,1
DA:241,1
DA:242,1
DA:244,1
DA:245,1
DA:246,1
DA:248,1
DA:249,1
DA:250,1
DA:251,1
DA:252,1
DA:255,1
DA:256,1
DA:257,1
DA:258,1
DA:259,1
DA:260,1
DA:261,1
DA:263,1
DA:266,1
DA:267,1
DA:270,1
DA:271,1
DA:272,1
DA:275,1
DA:276,1
DA:277,1
DA:279,1
DA:280,1
DA:282,1
DA:283,1
DA:284,1
DA:287,1
DA:288,1
DA:289,1
DA:292,1
DA:293,1
DA:296,1
DA:297,1
DA:298,1
DA:299,1
DA:300,1
DA:301,1
DA:302,1
DA:303,1
DA:304,1
DA:305,1
DA:306,1
DA:307,1
DA:309,1
DA:310,1
DA:313,1
DA:314,1
DA:315,1
DA:316,1
DA:317,1
DA:318,1
DA:319,1
DA:320,1
DA:321,1
DA:323,1
DA:324,1
DA:325,1
DA:326,1
DA:327,1
DA:330,1
DA:331,1
DA:332,1
DA:333,1
DA:334,1
DA:335,1
DA:336,1
DA:337,1
DA:338,1
DA:339,1
DA:340,1
DA:341,1
DA:342,1
DA:343,1
DA:344,1
DA:347,1
DA:348,1
DA:349,1
DA:351,1
DA:352,1
DA:353,1
DA:354,1
BRF:0
BRH:0
LF:198
LH:191
end_of_record
SF:/home/nathan/Projects/smith/shared/smith-config/src/nats.rs
FN:299,_RNCNvMs1_NtCseymUlnl0dXB_12smith_config4natsNtB7_10NatsConfig8validate0B9_
FN:338,_RNCNvMs1_NtCseymUlnl0dXB_12smith_config4natsNtB7_10NatsConfig8validates0_0B9_
FN:304,_RNCNvMs1_NtCseymUlnl0dXB_12smith_config4natsNtB7_10NatsConfig8validates_0B9_
FN:578,_RNCNvMs6_NtCseymUlnl0dXB_12smith_config4natsNtB7_12StreamConfig8validate0B9_
FN:355,_RNvMs1_NtCseymUlnl0dXB_12smith_config4natsNtB5_10NatsConfig10production
FN:344,_RNvMs1_NtCseymUlnl0dXB_12smith_config4natsNtB5_10NatsConfig11development
FN:411,_RNvMs1_NtCseymUlnl0dXB_12smith_config4natsNtB5_10NatsConfig7testing
FN:292,_RNvMs1_NtCseymUlnl0dXB_12smith_config4natsNtB5_10NatsConfig8validate
FN:427,_RNvMs2_NtCseymUlnl0dXB_12smith_config4natsNtB5_9TlsConfig8validate
FN:460,_RNvMs3_NtCseymUlnl0dXB_12smith_config4natsNtB5_10AuthConfig8validate
FN:499,_RNvMs4_NtCseymUlnl0dXB_12smith_config4natsNtB5_21NatsPerformanceConfig8validate
FN:527,_RNvMs5_NtCseymUlnl0dXB_12smith_config4natsNtB5_15ReconnectConfig8validate
FN:545,_RNvMs6_NtCseymUlnl0dXB_12smith_config4natsNtB5_12StreamConfig8validate
FN:586,_RNvMs7_NtCseymUlnl0dXB_12smith_config4natsNtB5_14ConsumerConfig8validate
FN:184,_RNvXNtCseymUlnl0dXB_12smith_config4natsNtB2_10NatsConfigNtNtCs66KPHxksi63_4core7default7Default7default
FN:281,_RNvXs0_NtCseymUlnl0dXB_12smith_config4natsNtB5_15ReconnectConfigNtNtCs66KPHxksi63_4core7default7Default7default
FN:266,_RNvXs_NtCseymUlnl0dXB_12smith_config4natsNtB4_21NatsPerformanceConfigNtNtCs66KPHxksi63_4core7default7Default7default
FN:637,_RINvNtNtCseymUlnl0dXB_12smith_config4nats14duration_serde11deserializeINtNtNtCsfeE7rITMw7V_5serde2de5value17UsizeDeserializerNtNtCsjRllk2iJBV1_9toml_edit2de5ErrorEEB6_
FN:637,_RINvNtNtCseymUlnl0dXB_12smith_config4nats14duration_serde11deserializeINtNtNtCsfeE7rITMw7V_5serde2de5value18StringDeserializerNtNtCsjRllk2iJBV1_9toml_edit2de5ErrorEEB6_
FN:637,_RINvNtNtCseymUlnl0dXB_12smith_config4nats14duration_serde11deserializeNtNtNtCshyg8yL2jKZb_7figment5value2de17ConfiguredValueDeEB6_
FN:637,_RINvNtNtCseymUlnl0dXB_12smith_config4nats14duration_serde11deserializeNtNtNtCsjRllk2iJBV1_9toml_edit2de5value17ValueDeserializerEB6_
FN:637,_RINvNtNtCseymUlnl0dXB_12smith_config4nats14duration_serde11deserializeQINtNtCsg5DFGjn1iJP_10serde_json2de12DeserializerNtNtB1c_4read7StrReadEEB6_
FN:630,_RINvNtNtCseymUlnl0dXB_12smith_config4nats14duration_serde9serializeNtNtNtCsjRllk2iJBV1_9toml_edit3ser3map23DatetimeFieldSerializerEB6_
FN:630,_RINvNtNtCseymUlnl0dXB_12smith_config4nats14duration_serde9serializeQINtNtCsg5DFGjn1iJP_10serde_json3ser10SerializerQINtNtCs8Ty2CzGA6U3_5alloc3vec3VechEEEB6_
FN:630,_RINvNtNtCseymUlnl0dXB_12smith_config4nats14duration_serde9serializeQNtNtNtCsjRllk2iJBV1_9toml_edit3ser3map18MapValueSerializerEB6_
FNDA:0,_RNCNvMs1_NtCseymUlnl0dXB_12smith_config4natsNtB7_10NatsConfig8validate0B9_
FNDA:0,_RNCNvMs1_NtCseymUlnl0dXB_12smith_config4natsNtB7_10NatsConfig8validates0_0B9_
FNDA:0,_RNCNvMs1_NtCseymUlnl0dXB_12smith_config4natsNtB7_10NatsConfig8validates_0B9_
FNDA:0,_RNCNvMs6_NtCseymUlnl0dXB_12smith_config4natsNtB7_12StreamConfig8validate0B9_
FNDA:9,_RNvMs1_NtCseymUlnl0dXB_12smith_config4natsNtB5_10NatsConfig10production
FNDA:18,_RNvMs1_NtCseymUlnl0dXB_12smith_config4natsNtB5_10NatsConfig11development
FNDA:10,_RNvMs1_NtCseymUlnl0dXB_12smith_config4natsNtB5_10NatsConfig7testing
FNDA:8,_RNvMs1_NtCseymUlnl0dXB_12smith_config4natsNtB5_10NatsConfig8validate
FNDA:0,_RNvMs2_NtCseymUlnl0dXB_12smith_config4natsNtB5_9TlsConfig8validate
FNDA:0,_RNvMs3_NtCseymUlnl0dXB_12smith_config4natsNtB5_10AuthConfig8validate
FNDA:7,_RNvMs4_NtCseymUlnl0dXB_12smith_config4natsNtB5_21NatsPerformanceConfig8validate
FNDA:7,_RNvMs5_NtCseymUlnl0dXB_12smith_config4natsNtB5_15ReconnectConfig8validate
FNDA:12,_RNvMs6_NtCseymUlnl0dXB_12smith_config4natsNtB5_12StreamConfig8validate
FNDA:10,_RNvMs7_NtCseymUlnl0dXB_12smith_config4natsNtB5_14ConsumerConfig8validate
FNDA:59,_RNvXNtCseymUlnl0dXB_12smith_config4natsNtB2_10NatsConfigNtNtCs66KPHxksi63_4core7default7Default7default
FNDA:96,_RNvXs0_NtCseymUlnl0dXB_12smith_config4natsNtB5_15ReconnectConfigNtNtCs66KPHxksi63_4core7default7Default7default
FNDA:96,_RNvXs_NtCseymUlnl0dXB_12smith_config4natsNtB4_21NatsPerformanceConfigNtNtCs66KPHxksi63_4core7default7Default7default
FNDA:0,_RINvNtNtCseymUlnl0dXB_12smith_config4nats14duration_serde11deserializeINtNtNtCsfeE7rITMw7V_5serde2de5value17UsizeDeserializerNtNtCsjRllk2iJBV1_9toml_edit2de5ErrorEEB6_
FNDA:0,_RINvNtNtCseymUlnl0dXB_12smith_config4nats14duration_serde11deserializeINtNtNtCsfeE7rITMw7V_5serde2de5value18StringDeserializerNtNtCsjRllk2iJBV1_9toml_edit2de5ErrorEEB6_
FNDA:0,_RINvNtNtCseymUlnl0dXB_12smith_config4nats14duration_serde11deserializeNtNtNtCshyg8yL2jKZb_7figment5value2de17ConfiguredValueDeEB6_
FNDA:10,_RINvNtNtCseymUlnl0dXB_12smith_config4nats14duration_serde11deserializeNtNtNtCsjRllk2iJBV1_9toml_edit2de5value17ValueDeserializerEB6_
FNDA:5,_RINvNtNtCseymUlnl0dXB_12smith_config4nats14duration_serde11deserializeQINtNtCsg5DFGjn1iJP_10serde_json2de12DeserializerNtNtB1c_4read7StrReadEEB6_
FNDA:0,_RINvNtNtCseymUlnl0dXB_12smith_config4nats14duration_serde9serializeNtNtNtCsjRllk2iJBV1_9toml_edit3ser3map23DatetimeFieldSerializerEB6_
FNDA:15,_RINvNtNtCseymUlnl0dXB_12smith_config4nats14duration_serde9serializeQINtNtCsg5DFGjn1iJP_10serde_json3ser10SerializerQINtNtCs8Ty2CzGA6U3_5alloc3vec3VechEEEB6_
FNDA:10,_RINvNtNtCseymUlnl0dXB_12smith_config4nats14duration_serde9serializeQNtNtNtCsjRllk2iJBV1_9toml_edit3ser3map18MapValueSerializerEB6_
FNF:19
FNH:13
DA:184,59
DA:185,59
DA:188,59
DA:189,59
DA:190,59
DA:191,59
DA:192,59
DA:193,59
DA:194,59
DA:195,59
DA:196,59
DA:197,59
DA:198,59
DA:199,59
DA:200,59
DA:201,59
DA:202,59
DA:203,59
DA:204,59
DA:205,59
DA:206,59
DA:207,59
DA:208,59
DA:209,59
DA:210,59
DA:211,59
DA:212,59
DA:213,59
DA:214,59
DA:215,59
DA:216,59
DA:220,59
DA:221,59
DA:222,59
DA:223,59
DA:224,59
DA:225,59
DA:226,59
DA:227,59
DA:228,59
DA:229,59
DA:230,59
DA:231,59
DA:232,59
DA:233,59
DA:234,59
DA:235,59
DA:236,59
DA:237,59
DA:238,59
DA:239,59
DA:240,59
DA:241,59
DA:242,59
DA:243,59
DA:244,59
DA:245,59
DA:246,59
DA:247,59
DA:248,59
DA:251,59
DA:252,59
DA:253,59
DA:254,59
DA:255,59
DA:256,59
DA:257,59
DA:258,59
DA:259,59
DA:260,59
DA:261,59
DA:262,59
DA:266,96
DA:267,96
DA:268,96
DA:269,96
DA:270,96
DA:271,96
DA:272,96
DA:273,96
DA:274,96
DA:275,96
DA:276,96
DA:277,96
DA:281,96
DA:282,96
DA:283,96
DA:284,96
DA:285,96
DA:286,96
DA:287,96
DA:288,96
DA:292,8
DA:294,8
DA:295,1
DA:296,7
DA:298,7
DA:299,7
DA:302,10
DA:303,3
DA:304,3
DA:308,7
DA:309,0
DA:310,7
DA:313,7
DA:314,0
DA:315,7
DA:317,7
DA:318,0
DA:319,7
DA:322,7
DA:323,0
DA:324,7
DA:327,7
DA:328,0
DA:329,7
DA:332,7
DA:335,19
DA:336,12
DA:337,12
DA:338,12
DA:341,7
DA:342,8
DA:344,18
DA:345,18
DA:346,18
DA:347,18
DA:348,18
DA:349,18
DA:350,18
DA:351,18
DA:352,18
DA:353,18
DA:355,9
DA:356,9
DA:357,9
DA:358,9
DA:359,9
DA:360,9
DA:361,9
DA:362,9
DA:363,9
DA:364,9
DA:365,9
DA:366,9
DA:367,9
DA:368,9
DA:369,9
DA:370,9
DA:371,9
DA:372,9
DA:373,9
DA:374,9
DA:375,9
DA:376,9
DA:377,9
DA:378,9
DA:379,9
DA:380,9
DA:381,9
DA:382,9
DA:383,9
DA:384,9
DA:385,9
DA:386,9
DA:387,9
DA:388,9
DA:389,9
DA:390,9
DA:391,9
DA:392,9
DA:393,9
DA:394,9
DA:395,9
DA:396,9
DA:397,9
DA:398,9
DA:399,9
DA:400,9
DA:401,9
DA:402,9
DA:403,9
DA:404,9
DA:405,9
DA:406,9
DA:407,9
DA:408,9
DA:409,9
DA:411,10
DA:412,10
DA:413,10
DA:414,10
DA:415,10
DA:416,10
DA:417,10
DA:418,10
DA:419,10
DA:420,10
DA:421,10
DA:422,10
DA:423,10
DA:427,0
DA:428,0
DA:429,0
DA:430,0
DA:431,0
DA:432,0
DA:433,0
DA:434,0
DA:435,0
DA:437,0
DA:438,0
DA:439,0
DA:440,0
DA:441,0
DA:442,0
DA:443,0
DA:444,0
DA:446,0
DA:447,0
DA:448,0
DA:449,0
DA:450,0
DA:451,0
DA:452,0
DA:453,0
DA:455,0
DA:456,0
DA:460,0
DA:462,0
DA:463,0
DA:464,0
DA:465,0
DA:466,0
DA:469,0
DA:470,0
DA:471,0
DA:472,0
DA:473,0
DA:474,0
DA:476,0
DA:477,0
DA:478,0
DA:479,0
DA:480,0
DA:481,0
DA:482,0
DA:483,0
DA:485,0
DA:486,0
DA:487,0
DA:488,0
DA:489,0
DA:490,0
DA:491,0
DA:492,0
DA:494,0
DA:495,0
DA:499,7
DA:500,7
DA:501,0
DA:502,7
DA:504,7
DA:505,0
DA:506,7
DA:508,7
DA:509,0
DA:510,7
DA:512,7
DA:513,0
DA:514,7
DA:516,7
DA:517,0
DA:518,7
DA:520,7
DA:522,7
DA:523,7
DA:527,7
DA:528,7
DA:529,0
DA:530,7
DA:532,7
DA:533,0
DA:534,7
DA:536,7
DA:537,0
DA:538,7
DA:540,7
DA:541,7
DA:545,12
DA:546,12
DA:547,0
DA:548,12
DA:550,12
DA:551,0
DA:552,12
DA:555,12
DA:556,0
DA:557,0
DA:558,0
DA:559,0
DA:560,12
DA:563,12
DA:564,0
DA:565,0
DA:566,0
DA:567,0
DA:568,12
DA:570,12
DA:571,0
DA:572,12
DA:575,22
DA:576,10
DA:577,10
DA:578,10
DA:581,12
DA:582,12
DA:586,10
DA:587,10
DA:588,0
DA:589,10
DA:592,10
DA:593,10
DA:594,0
DA:595,0
DA:596,0
DA:597,0
DA:598,0
DA:599,10
DA:602,10
DA:603,0
DA:604,0
DA:605,0
DA:606,0
DA:607,10
DA:610,10
DA:611,0
DA:612,0
DA:613,0
DA:614,0
DA:615,10
DA:617,10
DA:618,0
DA:619,10
DA:621,10
DA:622,10
DA:630,25
DA:631,25
DA:632,25
DA:634,25
DA:635,25
DA:637,15
DA:638,15
DA:639,15
DA:641,15
DA:642,15
DA:643,15
BRF:0
BRH:0
LF:361
LH:261
end_of_record
SF:/home/nathan/Projects/smith/shared/smith-config/src/observability.rs
FN:472,_RNvNtNtCseymUlnl0dXB_12smith_config13observability5testss_21test_redaction_levels
FN:450,_RNvNtNtCseymUlnl0dXB_12smith_config13observability5testss_24test_environment_configs
FN:481,_RNvNtNtCseymUlnl0dXB_12smith_config13observability5testss_24test_sampling_validation
FN:440,_RNvNtNtCseymUlnl0dXB_12smith_config13observability5testss_33test_default_observability_config
FN:498,_RNvNtNtCseymUlnl0dXB_12smith_config13observability5testss_38test_performance_thresholds_validation
FN:325,_RNvMs5_NtCseymUlnl0dXB_12smith_config13observabilityNtB5_19ObservabilityConfig10production
FN:314,_RNvMs5_NtCseymUlnl0dXB_12smith_config13observabilityNtB5_19ObservabilityConfig11development
FN:339,_RNvMs5_NtCseymUlnl0dXB_12smith_config13observabilityNtB5_19ObservabilityConfig7testing
FN:260,_RNvMs5_NtCseymUlnl0dXB_12smith_config13observabilityNtB5_19ObservabilityConfig8validate
FN:352,_RNvMs6_NtCseymUlnl0dXB_12smith_config13observabilityNtB5_15CollectorConfig8validate
FN:388,_RNvMs7_NtCseymUlnl0dXB_12smith_config13observabilityNtB5_16ClickHouseConfig8validate
FN:414,_RNvMs8_NtCseymUlnl0dXB_12smith_config13observabilityNtB5_21PerformanceThresholds8validate
FN:39,_RNvXNtCseymUlnl0dXB_12smith_config13observabilityNtB2_16SamplingStrategyNtNtCs66KPHxksi63_4core7default7Default7default
FN:193,_RNvXs0_NtCseymUlnl0dXB_12smith_config13observabilityNtB5_16ClickHouseConfigNtNtCs66KPHxksi63_4core7default7Default7default
FN:206,_RNvXs1_NtCseymUlnl0dXB_12smith_config13observabilityNtB5_13PhoenixConfigNtNtCs66KPHxksi63_4core7default7Default7default
FN:216,_RNvXs2_NtCseymUlnl0dXB_12smith_config13observabilityNtB5_13HyperDxConfigNtNtCs66KPHxksi63_4core7default7Default7default
FN:226,_RNvXs3_NtCseymUlnl0dXB_12smith_config13observabilityNtB5_21PerformanceThresholdsNtNtCs66KPHxksi63_4core7default7Default7default
FN:237,_RNvXs4_NtCseymUlnl0dXB_12smith_config13observabilityNtB5_19ObservabilityConfigNtNtCs66KPHxksi63_4core7default7Default7default
FN:178,_RNvXs_NtCseymUlnl0dXB_12smith_config13observabilityNtB4_15CollectorConfigNtNtCs66KPHxksi63_4core7default7Default7default
FNDA:1,_RNvNtNtCseymUlnl0dXB_12smith_config13observability5testss_21test_redaction_levels
FNDA:1,_RNvNtNtCseymUlnl0dXB_12smith_config13observability5testss_24test_environment_configs
FNDA:1,_RNvNtNtCseymUlnl0dXB_12smith_config13observability5testss_24test_sampling_validation
FNDA:1,_RNvNtNtCseymUlnl0dXB_12smith_config13observability5testss_33test_default_observability_config
FNDA:1,_RNvNtNtCseymUlnl0dXB_12smith_config13observability5testss_38test_performance_thresholds_validation
FNDA:10,_RNvMs5_NtCseymUlnl0dXB_12smith_config13observabilityNtB5_19ObservabilityConfig10production
FNDA:19,_RNvMs5_NtCseymUlnl0dXB_12smith_config13observabilityNtB5_19ObservabilityConfig11development
FNDA:11,_RNvMs5_NtCseymUlnl0dXB_12smith_config13observabilityNtB5_19ObservabilityConfig7testing
FNDA:7,_RNvMs5_NtCseymUlnl0dXB_12smith_config13observabilityNtB5_19ObservabilityConfig8validate
FNDA:5,_RNvMs6_NtCseymUlnl0dXB_12smith_config13observabilityNtB5_15CollectorConfig8validate
FNDA:5,_RNvMs7_NtCseymUlnl0dXB_12smith_config13observabilityNtB5_16ClickHouseConfig8validate
FNDA:9,_RNvMs8_NtCseymUlnl0dXB_12smith_config13observabilityNtB5_21PerformanceThresholds8validate
FNDA:64,_RNvXNtCseymUlnl0dXB_12smith_config13observabilityNtB2_16SamplingStrategyNtNtCs66KPHxksi63_4core7default7Default7default
FNDA:64,_RNvXs0_NtCseymUlnl0dXB_12smith_config13observabilityNtB5_16ClickHouseConfigNtNtCs66KPHxksi63_4core7default7Default7default
FNDA:64,_RNvXs1_NtCseymUlnl0dXB_12smith_config13observabilityNtB5_13PhoenixConfigNtNtCs66KPHxksi63_4core7default7Default7default
FNDA:64,_RNvXs2_NtCseymUlnl0dXB_12smith_config13observabilityNtB5_13HyperDxConfigNtNtCs66KPHxksi63_4core7default7Default7default
FNDA:65,_RNvXs3_NtCseymUlnl0dXB_12smith_config13observabilityNtB5_21PerformanceThresholdsNtNtCs66KPHxksi63_4core7default7Default7default
FNDA:64,_RNvXs4_NtCseymUlnl0dXB_12smith_config13observabilityNtB5_19ObservabilityConfigNtNtCs66KPHxksi63_4core7default7Default7default
FNDA:64,_RNvXs_NtCseymUlnl0dXB_12smith_config13observabilityNtB4_15CollectorConfigNtNtCs66KPHxksi63_4core7default7Default7default
FNF:19
FNH:19
DA:39,64
DA:40,64
DA:41,64
DA:42,64
DA:43,64
DA:178,64
DA:179,64
DA:180,64
DA:181,64
DA:182,64
DA:183,64
DA:184,64
DA:185,64
DA:186,64
DA:187,64
DA:188,64
DA:189,64
DA:193,64
DA:194,64
DA:195,64
DA:196,64
DA:197,64
DA:198,64
DA:199,64
DA:200,64
DA:201,64
DA:202,64
DA:206,64
DA:207,64
DA:208,64
DA:209,64
DA:210,64
DA:211,64
DA:212,64
DA:216,64
DA:217,64
DA:218,64
DA:219,64
DA:220,64
DA:221,64
DA:222,64
DA:226,65
DA:227,65
DA:228,65
DA:229,65
DA:230,65
DA:231,65
DA:232,65
DA:233,65
DA:237,64
DA:238,64
DA:239,64
DA:240,64
DA:241,64
DA:242,64
DA:243,64
DA:244,64
DA:245,64
DA:246,64
DA:247,64
DA:248,64
DA:249,64
DA:250,64
DA:251,64
DA:252,64
DA:253,64
DA:254,64
DA:255,64
DA:260,7
DA:261,7
DA:262,0
DA:263,7
DA:265,7
DA:266,0
DA:267,7
DA:269,7
DA:270,0
DA:271,7
DA:273,7
DA:274,0
DA:275,7
DA:277,7
DA:278,0
DA:279,7
DA:282,7
DA:283,3
DA:284,3
DA:285,2
DA:286,2
DA:287,2
DA:288,1
DA:290,2
DA:291,2
DA:292,0
DA:293,0
DA:294,0
DA:295,2
DA:297,2
DA:301,5
DA:302,5
DA:303,5
DA:306,5
DA:307,5
DA:308,5
DA:310,5
DA:311,7
DA:314,19
DA:315,19
DA:316,19
DA:317,19
DA:318,19
DA:319,19
DA:320,19
DA:321,19
DA:322,19
DA:325,10
DA:326,10
DA:327,10
DA:328,10
DA:329,10
DA:330,10
DA:331,10
DA:332,10
DA:333,10
DA:334,10
DA:335,10
DA:336,10
DA:339,11
DA:340,11
DA:341,11
DA:342,11
DA:343,11
DA:344,11
DA:345,11
DA:346,11
DA:347,11
DA:348,11
DA:352,5
DA:353,5
DA:354,0
DA:355,5
DA:357,5
DA:358,0
DA:359,5
DA:361,5
DA:362,0
DA:363,5
DA:365,5
DA:366,0
DA:367,0
DA:368,0
DA:369,5
DA:371,5
DA:372,0
DA:373,5
DA:375,5
DA:376,0
DA:377,5
DA:379,5
DA:380,5
DA:381,5
DA:383,5
DA:384,5
DA:388,5
DA:389,5
DA:390,0
DA:391,5
DA:393,5
DA:394,0
DA:395,5
DA:397,5
DA:398,0
DA:399,5
DA:401,5
DA:402,0
DA:403,5
DA:405,5
DA:406,0
DA:407,5
DA:409,5
DA:410,5
DA:414,9
DA:415,9
DA:416,0
DA:417,9
DA:419,9
DA:420,1
DA:421,8
DA:423,8
DA:424,0
DA:425,8
DA:427,8
DA:428,2
DA:429,6
DA:431,6
DA:432,9
DA:440,1
DA:441,1
DA:444,1
DA:445,1
DA:446,1
DA:447,1
DA:450,1
DA:451,1
DA:452,1
DA:453,1
DA:455,1
DA:456,1
DA:457,1
DA:460,1
DA:463,1
DA:466,1
DA:467,1
DA:468,1
DA:469,1
DA:472,1
DA:473,1
DA:474,1
DA:476,1
DA:477,1
DA:478,1
DA:481,1
DA:482,1
DA:485,1
DA:486,1
DA:489,1
DA:490,1
DA:493,1
DA:494,1
DA:495,1
DA:498,1
DA:499,1
DA:502,1
DA:505,1
DA:506,1
DA:508,1
DA:509,1
DA:512,1
DA:513,1
DA:514,1
DA:515,1
BRF:0
BRH:0
LF:241
LH:218
end_of_record
SF:/home/nathan/Projects/smith/shared/smith-config/src/shell.rs
FN:317,_RNCNvMs5_NtCseymUlnl0dXB_12smith_config5shellNtB7_11ShellConfig8validate0B9_
FN:348,_RNvMs5_NtCseymUlnl0dXB_12smith_config5shellNtB5_11ShellConfig10production
FN:329,_RNvMs5_NtCseymUlnl0dXB_12smith_config5shellNtB5_11ShellConfig11development
FN:419,_RNvMs5_NtCseymUlnl0dXB_12smith_config5shellNtB5_11ShellConfig7testing
FN:284,_RNvMs5_NtCseymUlnl0dXB_12smith_config5shellNtB5_11ShellConfig8validate
FN:507,_RNvMs6_NtCseymUlnl0dXB_12smith_config5shellNtB5_9PtyConfig8validate
FN:531,_RNvMs7_NtCseymUlnl0dXB_12smith_config5shellNtB5_17EnvironmentConfig8validate
FN:549,_RNvMs8_NtCseymUlnl0dXB_12smith_config5shellNtB5_19ShellSecurityConfig8validate
FN:563,_RNvMs9_NtCseymUlnl0dXB_12smith_config5shellNtB5_19ShellSpecificConfig8validate
FN:575,_RNvMsa_NtCseymUlnl0dXB_12smith_config5shellNtB5_22WorkingDirectoryConfig8validate
FN:597,_RNvMsb_NtCseymUlnl0dXB_12smith_config5shellNtB5_18ShellLoggingConfig8validate
FN:167,_RNvXNtCseymUlnl0dXB_12smith_config5shellNtB2_11ShellConfigNtNtCs66KPHxksi63_4core7default7Default7default
FN:194,_RNvXs0_NtCseymUlnl0dXB_12smith_config5shellNtB5_17EnvironmentConfigNtNtCs66KPHxksi63_4core7default7Default7default
FN:217,_RNvXs1_NtCseymUlnl0dXB_12smith_config5shellNtB5_19ShellSecurityConfigNtNtCs66KPHxksi63_4core7default7Default7default
FN:251,_RNvXs2_NtCseymUlnl0dXB_12smith_config5shellNtB5_13ShellFeaturesNtNtCs66KPHxksi63_4core7default7Default7default
FN:262,_RNvXs3_NtCseymUlnl0dXB_12smith_config5shellNtB5_22WorkingDirectoryConfigNtNtCs66KPHxksi63_4core7default7Default7default
FN:272,_RNvXs4_NtCseymUlnl0dXB_12smith_config5shellNtB5_18ShellLoggingConfigNtNtCs66KPHxksi63_4core7default7Default7default
FN:184,_RNvXs_NtCseymUlnl0dXB_12smith_config5shellNtB4_9PtyConfigNtNtCs66KPHxksi63_4core7default7Default7default
FN:645,_RINvNtNtCseymUlnl0dXB_12smith_config5shell18duration_serde_opt11deserializeINtNtNtCsfeE7rITMw7V_5serde2de5value17UsizeDeserializerNtNtCsjRllk2iJBV1_9toml_edit2de5ErrorEEB6_
FN:645,_RINvNtNtCseymUlnl0dXB_12smith_config5shell18duration_serde_opt11deserializeINtNtNtCsfeE7rITMw7V_5serde2de5value18StringDeserializerNtNtCsjRllk2iJBV1_9toml_edit2de5ErrorEEB6_
FN:645,_RINvNtNtCseymUlnl0dXB_12smith_config5shell18duration_serde_opt11deserializeNtNtNtCshyg8yL2jKZb_7figment5value2de17ConfiguredValueDeEB6_
FN:645,_RINvNtNtCseymUlnl0dXB_12smith_config5shell18duration_serde_opt11deserializeNtNtNtCsjRllk2iJBV1_9toml_edit2de5value17ValueDeserializerEB6_
FN:645,_RINvNtNtCseymUlnl0dXB_12smith_config5shell18duration_serde_opt11deserializeQINtNtCsg5DFGjn1iJP_10serde_json2de12DeserializerNtNtB1h_4read7StrReadEEB6_
FN:635,_RINvNtNtCseymUlnl0dXB_12smith_config5shell18duration_serde_opt9serializeNtNtNtCsjRllk2iJBV1_9toml_edit3ser3map23DatetimeFieldSerializerEB6_
FN:635,_RINvNtNtCseymUlnl0dXB_12smith_config5shell18duration_serde_opt9serializeQINtNtCsg5DFGjn1iJP_10serde_json3ser10SerializerQINtNtCs8Ty2CzGA6U3_5alloc3vec3VechEEEB6_
FN:635,_RINvNtNtCseymUlnl0dXB_12smith_config5shell18duration_serde_opt9serializeQNtNtNtCsjRllk2iJBV1_9toml_edit3ser3map18MapValueSerializerEB6_
FN:622,_RINvNtNtCseymUlnl0dXB_12smith_config5shell14duration_serde11deserializeINtNtNtCsfeE7rITMw7V_5serde2de5value17UsizeDeserializerNtNtCsjRllk2iJBV1_9toml_edit2de5ErrorEEB6_
FN:622,_RINvNtNtCseymUlnl0dXB_12smith_config5shell14duration_serde11deserializeINtNtNtCsfeE7rITMw7V_5serde2de5value18StringDeserializerNtNtCsjRllk2iJBV1_9toml_edit2de5ErrorEEB6_
FN:622,_RINvNtNtCseymUlnl0dXB_12smith_config5shell14duration_serde11deserializeNtNtNtCshyg8yL2jKZb_7figment5value2de17ConfiguredValueDeEB6_
FN:622,_RINvNtNtCseymUlnl0dXB_12smith_config5shell14duration_serde11deserializeNtNtNtCsjRllk2iJBV1_9toml_edit2de5value17ValueDeserializerEB6_
FN:622,_RINvNtNtCseymUlnl0dXB_12smith_config5shell14duration_serde11deserializeQINtNtCsg5DFGjn1iJP_10serde_json2de12DeserializerNtNtB1d_4read7StrReadEEB6_
FN:615,_RINvNtNtCseymUlnl0dXB_12smith_config5shell14duration_serde9serializeNtNtNtCsjRllk2iJBV1_9toml_edit3ser3map23DatetimeFieldSerializerEB6_
FN:615,_RINvNtNtCseymUlnl0dXB_12smith_config5shell14duration_serde9serializeQINtNtCsg5DFGjn1iJP_10serde_json3ser10SerializerQINtNtCs8Ty2CzGA6U3_5alloc3vec3VechEEEB6_
FN:615,_RINvNtNtCseymUlnl0dXB_12smith_config5shell14duration_serde9serializeQNtNtNtCsjRllk2iJBV1_9toml_edit3ser3map18MapValueSerializerEB6_
FN:466,_RNCNvMs5_NtCseymUlnl0dXB_12smith_config5shellNtB7_11ShellConfig18is_command_allowed0B9_
FN:502,_RNCNvMs5_NtCseymUlnl0dXB_12smith_config5shellNtB7_11ShellConfig26contains_dangerous_pattern0B9_
FN:446,_RNvMs5_NtCseymUlnl0dXB_12smith_config5shellNtB5_11ShellConfig18is_command_allowed
FN:474,_RNvMs5_NtCseymUlnl0dXB_12smith_config5shellNtB5_11ShellConfig26contains_dangerous_pattern
FN:711,_RNvNtNtCseymUlnl0dXB_12smith_config5shell5testss_15test_pty_config
FN:738,_RNvNtNtCseymUlnl0dXB_12smith_config5shell5testss_19test_shell_features
FN:862,_RNvNtNtCseymUlnl0dXB_12smith_config5shell5testss_22test_pty_config_custom
FN:719,_RNvNtNtCseymUlnl0dXB_12smith_config5shell5testss_23test_environment_config
FN:663,_RNvNtNtCseymUlnl0dXB_12smith_config5shell5testss_25test_shell_config_default
FN:765,_RNvNtNtCseymUlnl0dXB_12smith_config5shell5testss_25test_shell_logging_config
FN:687,_RNvNtNtCseymUlnl0dXB_12smith_config5shell5testss_26test_shell_security_config
FN:793,_RNvNtNtCseymUlnl0dXB_12smith_config5shell5testss_27test_duration_serialization
FN:674,_RNvNtNtCseymUlnl0dXB_12smith_config5shell5testss_28test_shell_config_validation
FN:730,_RNvNtNtCseymUlnl0dXB_12smith_config5shell5testss_29test_working_directory_config
FN:777,_RNvNtNtCseymUlnl0dXB_12smith_config5shell5testss_36test_shell_logging_config_validation
FN:699,_RNvNtNtCseymUlnl0dXB_12smith_config5shell5testss_37test_shell_security_config_validation
FN:747,_RNvNtNtCseymUlnl0dXB_12smith_config5shell5testss_37test_shell_specific_config_validation
FN:807,_RNvNtNtCseymUlnl0dXB_12smith_config5shell5testss_41test_shell_config_serialization_roundtrip
FN:820,_RNvNtNtCseymUlnl0dXB_12smith_config5shell5testss_42test_security_config_with_allowed_commands
FN:875,_RNvNtNtCseymUlnl0dXB_12smith_config5shell5testss_44test_environment_config_with_custom_settings
FN:844,_RNvNtNtCseymUlnl0dXB_12smith_config5shell5testss_47test_working_directory_config_with_restrictions
FNDA:0,_RNCNvMs5_NtCseymUlnl0dXB_12smith_config5shellNtB7_11ShellConfig8validate0B9_
FNDA:9,_RNvMs5_NtCseymUlnl0dXB_12smith_config5shellNtB5_11ShellConfig10production
FNDA:18,_RNvMs5_NtCseymUlnl0dXB_12smith_config5shellNtB5_11ShellConfig11development
FNDA:10,_RNvMs5_NtCseymUlnl0dXB_12smith_config5shellNtB5_11ShellConfig7testing
FNDA:3,_RNvMs5_NtCseymUlnl0dXB_12smith_config5shellNtB5_11ShellConfig8validate
FNDA:2,_RNvMs6_NtCseymUlnl0dXB_12smith_config5shellNtB5_9PtyConfig8validate
FNDA:2,_RNvMs7_NtCseymUlnl0dXB_12smith_config5shellNtB5_17EnvironmentConfig8validate
FNDA:6,_RNvMs8_NtCseymUlnl0dXB_12smith_config5shellNtB5_19ShellSecurityConfig8validate
FNDA:2,_RNvMs9_NtCseymUlnl0dXB_12smith_config5shellNtB5_19ShellSpecificConfig8validate
FNDA:2,_RNvMsa_NtCseymUlnl0dXB_12smith_config5shellNtB5_22WorkingDirectoryConfig8validate
FNDA:6,_RNvMsb_NtCseymUlnl0dXB_12smith_config5shellNtB5_18ShellLoggingConfig8validate
FNDA:63,_RNvXNtCseymUlnl0dXB_12smith_config5shellNtB2_11ShellConfigNtNtCs66KPHxksi63_4core7default7Default7default
FNDA:83,_RNvXs0_NtCseymUlnl0dXB_12smith_config5shellNtB5_17EnvironmentConfigNtNtCs66KPHxksi63_4core7default7Default7default
FNDA:102,_RNvXs1_NtCseymUlnl0dXB_12smith_config5shellNtB5_19ShellSecurityConfigNtNtCs66KPHxksi63_4core7default7Default7default
FNDA:2,_RNvXs2_NtCseymUlnl0dXB_12smith_config5shellNtB5_13ShellFeaturesNtNtCs66KPHxksi63_4core7default7Default7default
FNDA:64,_RNvXs3_NtCseymUlnl0dXB_12smith_config5shellNtB5_22WorkingDirectoryConfigNtNtCs66KPHxksi63_4core7default7Default7default
FNDA:83,_RNvXs4_NtCseymUlnl0dXB_12smith_config5shellNtB5_18ShellLoggingConfigNtNtCs66KPHxksi63_4core7default7Default7default
FNDA:64,_RNvXs_NtCseymUlnl0dXB_12smith_config5shellNtB4_9PtyConfigNtNtCs66KPHxksi63_4core7default7Default7default
FNDA:0,_RINvNtNtCseymUlnl0dXB_12smith_config5shell18duration_serde_opt11deserializeINtNtNtCsfeE7rITMw7V_5serde2de5value17UsizeDeserializerNtNtCsjRllk2iJBV1_9toml_edit2de5ErrorEEB6_
FNDA:0,_RINvNtNtCseymUlnl0dXB_12smith_config5shell18duration_serde_opt11deserializeINtNtNtCsfeE7rITMw7V_5serde2de5value18StringDeserializerNtNtCsjRllk2iJBV1_9toml_edit2de5ErrorEEB6_
FNDA:0,_RINvNtNtCseymUlnl0dXB_12smith_config5shell18duration_serde_opt11deserializeNtNtNtCshyg8yL2jKZb_7figment5value2de17ConfiguredValueDeEB6_
FNDA:0,_RINvNtNtCseymUlnl0dXB_12smith_config5shell18duration_serde_opt11deserializeNtNtNtCsjRllk2iJBV1_9toml_edit2de5value17ValueDeserializerEB6_
FNDA:0,_RINvNtNtCseymUlnl0dXB_12smith_config5shell18duration_serde_opt11deserializeQINtNtCsg5DFGjn1iJP_10serde_json2de12DeserializerNtNtB1h_4read7StrReadEEB6_
FNDA:0,_RINvNtNtCseymUlnl0dXB_12smith_config5shell18duration_serde_opt9serializeNtNtNtCsjRllk2iJBV1_9toml_edit3ser3map23DatetimeFieldSerializerEB6_
FNDA:0,_RINvNtNtCseymUlnl0dXB_12smith_config5shell18duration_serde_opt9serializeQINtNtCsg5DFGjn1iJP_10serde_json3ser10SerializerQINtNtCs8Ty2CzGA6U3_5alloc3vec3VechEEEB6_
FNDA:0,_RINvNtNtCseymUlnl0dXB_12smith_config5shell18duration_serde_opt9serializeQNtNtNtCsjRllk2iJBV1_9toml_edit3ser3map18MapValueSerializerEB6_
FNDA:0,_RINvNtNtCseymUlnl0dXB_12smith_config5shell14duration_serde11deserializeINtNtNtCsfeE7rITMw7V_5serde2de5value17UsizeDeserializerNtNtCsjRllk2iJBV1_9toml_edit2de5ErrorEEB6_
FNDA:0,_RINvNtNtCseymUlnl0dXB_12smith_config5shell14duration_serde11deserializeINtNtNtCsfeE7rITMw7V_5serde2de5value18StringDeserializerNtNtCsjRllk2iJBV1_9toml_edit2de5ErrorEEB6_
FNDA:0,_RINvNtNtCseymUlnl0dXB_12smith_config5shell14duration_serde11deserializeNtNtNtCshyg8yL2jKZb_7figment5value2de17ConfiguredValueDeEB6_
FNDA:2,_RINvNtNtCseymUlnl0dXB_12smith_config5shell14duration_serde11deserializeNtNtNtCsjRllk2iJBV1_9toml_edit2de5value17ValueDeserializerEB6_
FNDA:3,_RINvNtNtCseymUlnl0dXB_12smith_config5shell14duration_serde11deserializeQINtNtCsg5DFGjn1iJP_10serde_json2de12DeserializerNtNtB1d_4read7StrReadEEB6_
FNDA:0,_RINvNtNtCseymUlnl0dXB_12smith_config5shell14duration_serde9serializeNtNtNtCsjRllk2iJBV1_9toml_edit3ser3map23DatetimeFieldSerializerEB6_
FNDA:5,_RINvNtNtCseymUlnl0dXB_12smith_config5shell14duration_serde9serializeQINtNtCsg5DFGjn1iJP_10serde_json3ser10SerializerQINtNtCs8Ty2CzGA6U3_5alloc3vec3VechEEEB6_
FNDA:2,_RINvNtNtCseymUlnl0dXB_12smith_config5shell14duration_serde9serializeQNtNtNtCsjRllk2iJBV1_9toml_edit3ser3map18MapValueSerializerEB6_
FNDA:0,_RNCNvMs5_NtCseymUlnl0dXB_12smith_config5shellNtB7_11ShellConfig18is_command_allowed0B9_
FNDA:0,_RNCNvMs5_NtCseymUlnl0dXB_12smith_config5shellNtB7_11ShellConfig26contains_dangerous_pattern0B9_
FNDA:0,_RNvMs5_NtCseymUlnl0dXB_12smith_config5shellNtB5_11ShellConfig18is_command_allowed
FNDA:0,_RNvMs5_NtCseymUlnl0dXB_12smith_config5shellNtB5_11ShellConfig26contains_dangerous_pattern
FNDA:1,_RNvNtNtCseymUlnl0dXB_12smith_config5shell5testss_15test_pty_config
FNDA:1,_RNvNtNtCseymUlnl0dXB_12smith_config5shell5testss_19test_shell_features
FNDA:1,_RNvNtNtCseymUlnl0dXB_12smith_config5shell5testss_22test_pty_config_custom
FNDA:1,_RNvNtNtCseymUlnl0dXB_12smith_config5shell5testss_23test_environment_config
FNDA:1,_RNvNtNtCseymUlnl0dXB_12smith_config5shell5testss_25test_shell_config_default
FNDA:1,_RNvNtNtCseymUlnl0dXB_12smith_config5shell5testss_25test_shell_logging_config
FNDA:1,_RNvNtNtCseymUlnl0dXB_12smith_config5shell5testss_26test_shell_security_config
FNDA:1,_RNvNtNtCseymUlnl0dXB_12smith_config5shell5testss_27test_duration_serialization
FNDA:1,_RNvNtNtCseymUlnl0dXB_12smith_config5shell5testss_28test_shell_config_validation
FNDA:1,_RNvNtNtCseymUlnl0dXB_12smith_config5shell5testss_29test_working_directory_config
FNDA:1,_RNvNtNtCseymUlnl0dXB_12smith_config5shell5testss_36test_shell_logging_config_validation
FNDA:1,_RNvNtNtCseymUlnl0dXB_12smith_config5shell5testss_37test_shell_security_config_validation
FNDA:1,_RNvNtNtCseymUlnl0dXB_12smith_config5shell5testss_37test_shell_specific_config_validation
FNDA:1,_RNvNtNtCseymUlnl0dXB_12smith_config5shell5testss_41test_shell_config_serialization_roundtrip
FNDA:1,_RNvNtNtCseymUlnl0dXB_12smith_config5shell5testss_42test_security_config_with_allowed_commands
FNDA:1,_RNvNtNtCseymUlnl0dXB_12smith_config5shell5testss_44test_environment_config_with_custom_settings
FNDA:1,_RNvNtNtCseymUlnl0dXB_12smith_config5shell5testss_47test_working_directory_config_with_restrictions
FNF:43
FNH:36
DA:167,63
DA:168,63
DA:169,63
DA:170,63
DA:171,63
DA:172,63
DA:173,63
DA:174,63
DA:175,63
DA:176,63
DA:177,63
DA:178,63
DA:179,63
DA:180,63
DA:184,64
DA:185,64
DA:186,64
DA:187,64
DA:188,64
DA:189,64
DA:190,64
DA:194,83
DA:195,83
DA:196,83
DA:197,83
DA:198,83
DA:199,83
DA:200,83
DA:201,83
DA:202,83
DA:203,83
DA:204,83
DA:205,83
DA:206,83
DA:207,83
DA:208,83
DA:209,83
DA:210,83
DA:211,83
DA:212,83
DA:213,83
DA:217,102
DA:218,102
DA:219,102
DA:220,102
DA:221,102
DA:222,102
DA:223,102
DA:224,102
DA:225,102
DA:226,102
DA:227,102
DA:228,102
DA:229,102
DA:230,102
DA:231,102
DA:232,102
DA:233,102
DA:234,102
DA:235,102
DA:236,102
DA:237,102
DA:238,102
DA:239,102
DA:240,102
DA:241,102
DA:242,102
DA:243,102
DA:244,102
DA:245,102
DA:246,102
DA:247,102
DA:251,2
DA:252,2
DA:253,2
DA:254,2
DA:255,2
DA:256,2
DA:257,2
DA:258,2
DA:262,64
DA:263,64
DA:264,64
DA:265,64
DA:266,64
DA:267,64
DA:268,64
DA:272,83
DA:273,83
DA:274,83
DA:275,83
DA:276,83
DA:277,83
DA:278,83
DA:279,83
DA:280,83
DA:284,3
DA:286,3
DA:287,1
DA:288,2
DA:291,2
DA:292,0
DA:293,2
DA:295,2
DA:296,0
DA:297,2
DA:300,2
DA:301,0
DA:302,2
DA:304,2
DA:305,0
DA:306,2
DA:309,2
DA:310,2
DA:311,2
DA:312,2
DA:313,2
DA:316,2
DA:317,0
DA:318,0
DA:319,0
DA:323,0
DA:326,2
DA:327,3
DA:329,18
DA:330,18
DA:331,18
DA:332,18
DA:333,18
DA:334,18
DA:335,18
DA:336,18
DA:337,18
DA:338,18
DA:339,18
DA:340,18
DA:341,18
DA:342,18
DA:343,18
DA:344,18
DA:345,18
DA:346,18
DA:348,9
DA:349,9
DA:350,9
DA:351,9
DA:352,9
DA:353,9
DA:354,9
DA:355,9
DA:356,9
DA:357,9
DA:358,9
DA:359,9
DA:360,9
DA:361,9
DA:362,9
DA:363,9
DA:364,9
DA:365,9
DA:366,9
DA:367,9
DA:368,9
DA:369,9
DA:370,9
DA:371,9
DA:372,9
DA:373,9
DA:374,9
DA:375,9
DA:376,9
DA:377,9
DA:378,9
DA:379,9
DA:380,9
DA:381,9
DA:382,9
DA:383,9
DA:384,9
DA:385,9
DA:386,9
DA:387,9
DA:388,9
DA:389,9
DA:390,9
DA:391,9
DA:392,9
DA:393,9
DA:394,9
DA:395,9
DA:396,9
DA:397,9
DA:398,9
DA:399,9
DA:400,9
DA:401,9
DA:402,9
DA:403,9
DA:404,9
DA:405,9
DA:406,9
DA:407,9
DA:408,9
DA:409,9
DA:410,9
DA:411,9
DA:412,9
DA:413,9
DA:414,9
DA:415,9
DA:416,9
DA:417,9
DA:419,10
DA:420,10
DA:421,10
DA:422,10
DA:423,10
DA:424,10
DA:425,10
DA:426,10
DA:427,10
DA:428,10
DA:429,10
DA:430,10
DA:431,10
DA:432,10
DA:433,10
DA:434,10
DA:435,10
DA:436,10
DA:437,10
DA:438,10
DA:439,10
DA:440,10
DA:441,10
DA:442,10
DA:443,10
DA:446,0
DA:447,0
DA:448,0
DA:449,0
DA:452,0
DA:453,0
DA:454,0
DA:455,0
DA:459,0
DA:460,0
DA:461,0
DA:464,0
DA:465,0
DA:466,0
DA:467,0
DA:468,0
DA:469,0
DA:471,0
DA:472,0
DA:474,0
DA:475,0
DA:476,0
DA:477,0
DA:478,0
DA:479,0
DA:480,0
DA:481,0
DA:482,0
DA:483,0
DA:484,0
DA:485,0
DA:486,0
DA:487,0
DA:488,0
DA:489,0
DA:490,0
DA:491,0
DA:492,0
DA:493,0
DA:494,0
DA:495,0
DA:496,0
DA:497,0
DA:498,0
DA:500,0
DA:501,0
DA:502,0
DA:503,0
DA:507,2
DA:508,2
DA:509,2
DA:510,0
DA:511,0
DA:512,0
DA:513,0
DA:514,2
DA:515,0
DA:517,2
DA:518,2
DA:519,0
DA:520,0
DA:521,0
DA:522,0
DA:523,2
DA:524,0
DA:526,2
DA:527,2
DA:531,2
DA:532,2
DA:533,0
DA:534,0
DA:535,0
DA:536,2
DA:538,2
DA:539,0
DA:540,0
DA:541,0
DA:542,2
DA:544,2
DA:545,2
DA:549,6
DA:550,6
DA:551,1
DA:552,5
DA:554,5
DA:555,0
DA:556,5
DA:558,5
DA:559,6
DA:563,2
DA:564,2
DA:565,2
DA:566,1
DA:567,1
DA:568,0
DA:570,1
DA:571,2
DA:575,2
DA:576,2
DA:577,0
DA:578,0
DA:579,0
DA:580,2
DA:582,2
DA:583,0
DA:584,0
DA:585,0
DA:586,0
DA:587,0
DA:588,0
DA:590,2
DA:592,2
DA:593,2
DA:597,6
DA:598,6
DA:599,1
DA:600,5
DA:602,5
DA:603,1
DA:604,4
DA:606,4
DA:607,6
DA:615,7
DA:616,7
DA:617,7
DA:619,7
DA:620,7
DA:622,5
DA:623,5
DA:624,5
DA:626,5
DA:627,5
DA:628,5
DA:635,0
DA:636,0
DA:637,0
DA:639,0
DA:640,0
DA:641,0
DA:643,0
DA:645,0
DA:646,0
DA:647,0
DA:649,0
DA:650,0
DA:651,0
DA:653,0
DA:663,1
DA:664,1
DA:666,1
DA:667,1
DA:668,1
DA:669,1
DA:670,1
DA:671,1
DA:674,1
DA:675,1
DA:676,1
DA:679,1
DA:680,1
DA:682,1
DA:683,1
DA:684,1
DA:687,1
DA:688,1
DA:689,1
DA:690,1
DA:691,1
DA:692,1
DA:693,1
DA:695,1
DA:696,1
DA:699,1
DA:700,1
DA:703,1
DA:704,1
DA:706,1
DA:707,1
DA:708,1
DA:711,1
DA:712,1
DA:713,1
DA:714,1
DA:715,1
DA:716,1
DA:719,1
DA:720,1
DA:721,1
DA:722,1
DA:723,1
DA:724,1
DA:725,1
DA:726,1
DA:727,1
DA:730,1
DA:731,1
DA:732,1
DA:733,1
DA:734,1
DA:735,1
DA:738,1
DA:739,1
DA:740,1
DA:741,1
DA:742,1
DA:743,1
DA:744,1
DA:747,1
DA:748,1
DA:749,1
DA:750,1
DA:751,1
DA:752,1
DA:753,1
DA:754,1
DA:755,1
DA:757,1
DA:760,1
DA:761,1
DA:762,1
DA:765,1
DA:766,1
DA:767,1
DA:768,1
DA:769,1
DA:770,1
DA:771,1
DA:773,1
DA:774,1
DA:777,1
DA:778,1
DA:781,1
DA:782,1
DA:785,1
DA:786,1
DA:788,1
DA:789,1
DA:790,1
DA:793,1
DA:794,1
DA:795,1
DA:796,1
DA:797,1
DA:799,1
DA:800,1
DA:802,1
DA:803,1
DA:804,1
DA:807,1
DA:808,1
DA:810,1
DA:811,1
DA:813,1
DA:814,1
DA:815,1
DA:816,1
DA:817,1
DA:820,1
DA:821,1
DA:822,1
DA:823,1
DA:824,1
DA:825,1
DA:826,1
DA:827,1
DA:828,1
DA:829,1
DA:830,1
DA:831,1
DA:832,1
DA:833,1
DA:835,1
DA:836,1
DA:837,1
DA:838,1
DA:839,1
DA:840,1
DA:841,1
DA:844,1
DA:845,1
DA:846,1
DA:847,1
DA:848,1
DA:849,1
DA:850,1
DA:851,1
DA:852,1
DA:853,1
DA:855,1
DA:856,1
DA:857,1
DA:858,1
DA:859,1
DA:862,1
DA:863,1
DA:864,1
DA:865,1
DA:866,1
DA:867,1
DA:869,1
DA:870,1
DA:871,1
DA:872,1
DA:875,1
DA:876,1
DA:877,1
DA:878,1
DA:879,1
DA:880,1
DA:881,1
DA:882,1
DA:883,1
DA:884,1
DA:885,1
DA:886,1
DA:887,1
DA:888,1
DA:889,1
DA:891,1
DA:892,1
DA:893,1
DA:894,1
DA:895,1
DA:896,1
DA:897,1
BRF:0
BRH:0
LF:566
LH:465
end_of_record
SF:/home/nathan/Projects/smith/shared/smith-config/src/simple_coverage_tests.rs
FN:102,_RNvNtNtCseymUlnl0dXB_12smith_config21simple_coverage_tests5testss_17test_config_clone
FN:53,_RNvNtNtCseymUlnl0dXB_12smith_config21simple_coverage_tests5testss_19test_config_presets
FN:43,_RNvNtNtCseymUlnl0dXB_12smith_config21simple_coverage_tests5testss_20test_config_defaults
FN:111,_RNvNtNtCseymUlnl0dXB_12smith_config21simple_coverage_tests5testss_22test_config_validation
FN:11,_RNvNtNtCseymUlnl0dXB_12smith_config21simple_coverage_tests5testss_23test_config_builder_new
FN:93,_RNvNtNtCseymUlnl0dXB_12smith_config21simple_coverage_tests5testss_24test_config_debug_format
FN:32,_RNvNtNtCseymUlnl0dXB_12smith_config21simple_coverage_tests5testss_25test_config_builder_build
FN:160,_RNvNtNtCseymUlnl0dXB_12smith_config21simple_coverage_tests5testss_25test_config_fields_access
FN:80,_RNvNtNtCseymUlnl0dXB_12smith_config21simple_coverage_tests5testss_25test_config_serialization
FN:142,_RNvNtNtCseymUlnl0dXB_12smith_config21simple_coverage_tests5testss_27test_config_builder_default
FN:517,_RNvNtNtCseymUlnl0dXB_12smith_config21simple_coverage_tests5testss_27test_config_clone_and_debug
FN:380,_RNvNtNtCseymUlnl0dXB_12smith_config21simple_coverage_tests5testss_27test_config_port_validation
FN:312,_RNvNtNtCseymUlnl0dXB_12smith_config21simple_coverage_tests5testss_27test_core_config_validation
FN:502,_RNvNtNtCseymUlnl0dXB_12smith_config21simple_coverage_tests5testss_27test_defaults_comprehensive
FN:70,_RNvNtNtCseymUlnl0dXB_12smith_config21simple_coverage_tests5testss_28test_config_environment_copy
FN:399,_RNvNtNtCseymUlnl0dXB_12smith_config21simple_coverage_tests5testss_28test_redaction_level_parsing
FN:228,_RNvNtNtCseymUlnl0dXB_12smith_config21simple_coverage_tests5testss_30test_logging_config_validation
FN:247,_RNvNtNtCseymUlnl0dXB_12smith_config21simple_coverage_tests5testss_30test_metrics_config_validation
FN:271,_RNvNtNtCseymUlnl0dXB_12smith_config21simple_coverage_tests5testss_31test_behavior_config_validation
FN:330,_RNvNtNtCseymUlnl0dXB_12smith_config21simple_coverage_tests5testss_32test_admission_config_validation
FN:393,_RNvNtNtCseymUlnl0dXB_12smith_config21simple_coverage_tests5testss_32test_config_bind_address_helpers
FN:173,_RNvNtNtCseymUlnl0dXB_12smith_config21simple_coverage_tests5testss_32test_config_environment_variants
FN:127,_RNvNtNtCseymUlnl0dXB_12smith_config21simple_coverage_tests5testss_32test_environment_variable_access
FN:435,_RNvNtNtCseymUlnl0dXB_12smith_config21simple_coverage_tests5testss_33test_config_builder_comprehensive
FN:18,_RNvNtNtCseymUlnl0dXB_12smith_config21simple_coverage_tests5testss_33test_config_builder_with_nats_url
FN:121,_RNvNtNtCseymUlnl0dXB_12smith_config21simple_coverage_tests5testss_33test_config_from_file_nonexistent
FN:454,_RNvNtNtCseymUlnl0dXB_12smith_config21simple_coverage_tests5testss_33test_environment_specific_configs
FN:294,_RNvNtNtCseymUlnl0dXB_12smith_config21simple_coverage_tests5testss_33test_monitoring_config_validation
FN:348,_RNvNtNtCseymUlnl0dXB_12smith_config21simple_coverage_tests5testss_34test_attestation_config_validation
FN:25,_RNvNtNtCseymUlnl0dXB_12smith_config21simple_coverage_tests5testss_34test_config_builder_with_http_port
FN:154,_RNvNtNtCseymUlnl0dXB_12smith_config21simple_coverage_tests5testss_34test_config_builder_with_log_level
FN:148,_RNvNtNtCseymUlnl0dXB_12smith_config21simple_coverage_tests5testss_35test_config_builder_for_environment
FN:419,_RNvNtNtCseymUlnl0dXB_12smith_config21simple_coverage_tests5testss_36test_config_comprehensive_validation
FN:366,_RNvNtNtCseymUlnl0dXB_12smith_config21simple_coverage_tests5testss_37test_nats_logging_config_environments
FN:481,_RNvNtNtCseymUlnl0dXB_12smith_config21simple_coverage_tests5testss_39test_config_serialization_comprehensive
FN:204,_RNvNtNtCseymUlnl0dXB_12smith_config21simple_coverage_tests5testss_41test_config_environment_variable_handling
FN:186,_RNvNtNtCseymUlnl0dXB_12smith_config21simple_coverage_tests5testss_41test_config_with_different_logging_levels
FNDA:1,_RNvNtNtCseymUlnl0dXB_12smith_config21simple_coverage_tests5testss_17test_config_clone
FNDA:1,_RNvNtNtCseymUlnl0dXB_12smith_config21simple_coverage_tests5testss_19test_config_presets
FNDA:1,_RNvNtNtCseymUlnl0dXB_12smith_config21simple_coverage_tests5testss_20test_config_defaults
FNDA:1,_RNvNtNtCseymUlnl0dXB_12smith_config21simple_coverage_tests5testss_22test_config_validation
FNDA:1,_RNvNtNtCseymUlnl0dXB_12smith_config21simple_coverage_tests5testss_23test_config_builder_new
FNDA:1,_RNvNtNtCseymUlnl0dXB_12smith_config21simple_coverage_tests5testss_24test_config_debug_format
FNDA:1,_RNvNtNtCseymUlnl0dXB_12smith_config21simple_coverage_tests5testss_25test_config_builder_build
FNDA:1,_RNvNtNtCseymUlnl0dXB_12smith_config21simple_coverage_tests5testss_25test_config_fields_access
FNDA:1,_RNvNtNtCseymUlnl0dXB_12smith_config21simple_coverage_tests5testss_25test_config_serialization
FNDA:1,_RNvNtNtCseymUlnl0dXB_12smith_config21simple_coverage_tests5testss_27test_config_builder_default
FNDA:1,_RNvNtNtCseymUlnl0dXB_12smith_config21simple_coverage_tests5testss_27test_config_clone_and_debug
FNDA:1,_RNvNtNtCseymUlnl0dXB_12smith_config21simple_coverage_tests5testss_27test_config_port_validation
FNDA:1,_RNvNtNtCseymUlnl0dXB_12smith_config21simple_coverage_tests5testss_27test_core_config_validation
FNDA:1,_RNvNtNtCseymUlnl0dXB_12smith_config21simple_coverage_tests5testss_27test_defaults_comprehensive
FNDA:1,_RNvNtNtCseymUlnl0dXB_12smith_config21simple_coverage_tests5testss_28test_config_environment_copy
FNDA:1,_RNvNtNtCseymUlnl0dXB_12smith_config21simple_coverage_tests5testss_28test_redaction_level_parsing
FNDA:1,_RNvNtNtCseymUlnl0dXB_12smith_config21simple_coverage_tests5testss_30test_logging_config_validation
FNDA:1,_RNvNtNtCseymUlnl0dXB_12smith_config21simple_coverage_tests5testss_30test_metrics_config_validation
FNDA:1,_RNvNtNtCseymUlnl0dXB_12smith_config21simple_coverage_tests5testss_31test_behavior_config_validation
FNDA:1,_RNvNtNtCseymUlnl0dXB_12smith_config21simple_coverage_tests5testss_32test_admission_config_validation
FNDA:1,_RNvNtNtCseymUlnl0dXB_12smith_config21simple_coverage_tests5testss_32test_config_bind_address_helpers
FNDA:1,_RNvNtNtCseymUlnl0dXB_12smith_config21simple_coverage_tests5testss_32test_config_environment_variants
FNDA:1,_RNvNtNtCseymUlnl0dXB_12smith_config21simple_coverage_tests5testss_32test_environment_variable_access
FNDA:1,_RNvNtNtCseymUlnl0dXB_12smith_config21simple_coverage_tests5testss_33test_config_builder_comprehensive
FNDA:1,_RNvNtNtCseymUlnl0dXB_12smith_config21simple_coverage_tests5testss_33test_config_builder_with_nats_url
FNDA:1,_RNvNtNtCseymUlnl0dXB_12smith_config21simple_coverage_tests5testss_33test_config_from_file_nonexistent
FNDA:1,_RNvNtNtCseymUlnl0dXB_12smith_config21simple_coverage_tests5testss_33test_environment_specific_configs
FNDA:1,_RNvNtNtCseymUlnl0dXB_12smith_config21simple_coverage_tests5testss_33test_monitoring_config_validation
FNDA:1,_RNvNtNtCseymUlnl0dXB_12smith_config21simple_coverage_tests5testss_34test_attestation_config_validation
FNDA:1,_RNvNtNtCseymUlnl0dXB_12smith_config21simple_coverage_tests5testss_34test_config_builder_with_http_port
FNDA:1,_RNvNtNtCseymUlnl0dXB_12smith_config21simple_coverage_tests5testss_34test_config_builder_with_log_level
FNDA:1,_RNvNtNtCseymUlnl0dXB_12smith_config21simple_coverage_tests5testss_35test_config_builder_for_environment
FNDA:1,_RNvNtNtCseymUlnl0dXB_12smith_config21simple_coverage_tests5testss_36test_config_comprehensive_validation
FNDA:1,_RNvNtNtCseymUlnl0dXB_12smith_config21simple_coverage_tests5testss_37test_nats_logging_config_environments
FNDA:1,_RNvNtNtCseymUlnl0dXB_12smith_config21simple_coverage_tests5testss_39test_config_serialization_comprehensive
FNDA:1,_RNvNtNtCseymUlnl0dXB_12smith_config21simple_coverage_tests5testss_41test_config_environment_variable_handling
FNDA:1,_RNvNtNtCseymUlnl0dXB_12smith_config21simple_coverage_tests5testss_41test_config_with_different_logging_levels
FNF:37
FNH:37
DA:11,1
DA:12,1
DA:13,1
DA:14,1
DA:15,1
DA:18,1
DA:19,1
DA:20,1
DA:21,1
DA:22,1
DA:25,1
DA:26,1
DA:27,1
DA:28,1
DA:29,1
DA:32,1
DA:33,1
DA:34,1
DA:35,1
DA:36,1
DA:38,1
DA:39,1
DA:40,1
DA:43,1
DA:44,1
DA:47,1
DA:48,1
DA:49,1
DA:50,1
DA:53,1
DA:54,1
DA:55,1
DA:56,1
DA:59,1
DA:60,1
DA:61,1
DA:64,1
DA:65,1
DA:66,1
DA:67,1
DA:70,1
DA:71,1
DA:72,1
DA:75,1
DA:76,1
DA:77,1
DA:80,1
DA:81,1
DA:84,1
DA:85,1
DA:87,1
DA:88,1
DA:89,1
DA:90,1
DA:93,1
DA:94,1
DA:95,1
DA:97,1
DA:98,1
DA:99,1
DA:102,1
DA:103,1
DA:104,1
DA:106,1
DA:107,1
DA:108,1
DA:111,1
DA:112,1
DA:113,1
DA:117,1
DA:118,1
DA:121,1
DA:122,1
DA:123,1
DA:124,1
DA:127,1
DA:129,1
DA:131,1
DA:132,1
DA:135,1
DA:136,0
DA:137,1
DA:139,1
DA:142,1
DA:143,1
DA:144,1
DA:145,1
DA:148,1
DA:149,1
DA:150,1
DA:151,1
DA:154,1
DA:155,1
DA:156,1
DA:157,1
DA:160,1
DA:161,1
DA:164,1
DA:165,1
DA:166,1
DA:169,1
DA:170,1
DA:173,1
DA:175,1
DA:176,1
DA:177,1
DA:180,1
DA:181,1
DA:182,1
DA:183,1
DA:186,1
DA:187,1
DA:188,1
DA:191,1
DA:192,1
DA:195,1
DA:196,1
DA:199,1
DA:200,1
DA:201,1
DA:204,1
DA:205,1
DA:206,1
DA:209,1
DA:210,1
DA:213,1
DA:214,1
DA:217,1
DA:218,0
DA:219,1
DA:221,1
DA:222,0
DA:223,1
DA:225,1
DA:228,1
DA:232,1
DA:233,1
DA:236,1
DA:237,1
DA:240,5
DA:241,5
DA:242,5
DA:244,1
DA:247,1
DA:252,1
DA:253,1
DA:256,1
DA:257,1
DA:260,1
DA:261,1
DA:262,1
DA:265,1
DA:266,1
DA:267,1
DA:268,1
DA:271,1
DA:275,1
DA:276,1
DA:279,1
DA:280,1
DA:283,1
DA:284,1
DA:285,1
DA:288,1
DA:289,1
DA:290,1
DA:291,1
DA:294,1
DA:298,1
DA:299,1
DA:302,1
DA:303,1
DA:306,1
DA:307,1
DA:308,1
DA:309,1
DA:312,1
DA:316,1
DA:317,1
DA:320,1
DA:321,1
DA:322,1
DA:324,1
DA:325,1
DA:326,1
DA:327,1
DA:330,1
DA:334,1
DA:335,1
DA:338,1
DA:339,1
DA:340,1
DA:342,1
DA:343,1
DA:344,1
DA:345,1
DA:348,1
DA:352,1
DA:353,1
DA:356,1
DA:357,1
DA:358,1
DA:360,1
DA:361,1
DA:362,1
DA:363,1
DA:366,1
DA:369,1
DA:370,1
DA:371,1
DA:374,1
DA:375,1
DA:376,1
DA:377,1
DA:380,1
DA:382,1
DA:383,1
DA:384,1
DA:387,1
DA:388,1
DA:389,1
DA:390,1
DA:393,1
DA:394,1
DA:395,1
DA:396,1
DA:399,1
DA:403,1
DA:404,1
DA:407,1
DA:408,1
DA:413,1
DA:414,1
DA:415,1
DA:416,1
DA:419,1
DA:421,1
DA:422,1
DA:423,1
DA:426,1
DA:427,1
DA:428,1
DA:431,1
DA:432,1
DA:435,1
DA:439,1
DA:440,1
DA:441,1
DA:442,1
DA:443,1
DA:444,1
DA:445,1
DA:447,1
DA:448,1
DA:449,1
DA:450,1
DA:451,1
DA:454,1
DA:455,1
DA:456,1
DA:457,1
DA:460,1
DA:461,1
DA:462,1
DA:465,1
DA:466,1
DA:467,1
DA:470,1
DA:471,1
DA:472,1
DA:475,1
DA:476,1
DA:477,1
DA:478,1
DA:481,1
DA:482,1
DA:485,1
DA:486,1
DA:488,1
DA:489,1
DA:490,1
DA:491,1
DA:492,1
DA:493,1
DA:494,1
DA:495,1
DA:496,1
DA:497,1
DA:498,1
DA:499,1
DA:502,1
DA:503,1
DA:506,1
DA:507,1
DA:508,1
DA:509,1
DA:510,1
DA:511,1
DA:512,1
DA:513,1
DA:514,1
DA:517,1
DA:518,1
DA:519,1
DA:522,1
DA:523,1
DA:524,1
DA:527,1
DA:528,1
DA:529,1
DA:530,1
BRF:0
BRH:0
LF:311
LH:308
end_of_record