SF:/home/nathan/Projects/smith/shared/smith-bus/src/consumer.rs
FN:73,_RNCNvMNtCsgYTKrqAxmq7_9smith_bus8consumerNtB4_8Consumer32convert_start_sequence_to_policy0B6_
FNDA:0,_RNCNvMNtCsgYTKrqAxmq7_9smith_bus8consumerNtB4_8Consumer32convert_start_sequence_to_policy0B6_
FNF:1
FNH:0
DA:73,0
BRF:0
BRH:0
LF:1
LH:0
end_of_record
SF:/home/nathan/Projects/smith/shared/smith-bus/src/lib.rs
FN:198,_RNCNCNvMCsgYTKrqAxmq7_9smith_busNtB6_8SmithBus7connect00Cs6Icymx2u3fr_13smith_metrics
FN:193,_RNCNvMCsgYTKrqAxmq7_9smith_busNtB4_8SmithBus7connect0Cs6Icymx2u3fr_13smith_metrics
FN:545,_RNvCsgYTKrqAxmq7_9smith_bus23create_backoff_strategy
FN:226,_RNvMCsgYTKrqAxmq7_9smith_busNtB2_8SmithBus11nats_client
FN:236,_RNvMCsgYTKrqAxmq7_9smith_busNtB2_8SmithBus12health_check
FN:221,_RNvMCsgYTKrqAxmq7_9smith_busNtB2_8SmithBus14stream_manager
FN:247,_RNvMCsgYTKrqAxmq7_9smith_busNtB2_8SmithBus23check_nats_connectivity
FN:255,_RNvMCsgYTKrqAxmq7_9smith_busNtB2_8SmithBus28check_jetstream_availability
FN:193,_RNvMCsgYTKrqAxmq7_9smith_busNtB2_8SmithBus7connect
FN:216,_RNvMCsgYTKrqAxmq7_9smith_busNtB2_8SmithBus8consumer
FN:231,_RNvMCsgYTKrqAxmq7_9smith_busNtB2_8SmithBus9jetstream
FN:211,_RNvMCsgYTKrqAxmq7_9smith_busNtB2_8SmithBus9publisher
FN:417,_RNvMs2_CsgYTKrqAxmq7_9smith_busNtB5_9WorkQueue10pull_batch
FN:456,_RNvMs2_CsgYTKrqAxmq7_9smith_busNtB5_9WorkQueue16log_batch_result
FN:433,_RNvMs2_CsgYTKrqAxmq7_9smith_busNtB5_9WorkQueue18attempt_pull_batch
FN:481,_RNvMs2_CsgYTKrqAxmq7_9smith_busNtB5_9WorkQueue19attempt_pull_single
FN:426,_RNvMs2_CsgYTKrqAxmq7_9smith_busNtB5_9WorkQueue27create_batch_retry_strategy
FN:474,_RNvMs2_CsgYTKrqAxmq7_9smith_busNtB5_9WorkQueue28create_single_retry_strategy
FN:408,_RNvMs2_CsgYTKrqAxmq7_9smith_busNtB5_9WorkQueue3new
FN:465,_RNvMs2_CsgYTKrqAxmq7_9smith_busNtB5_9WorkQueue8pull_one
FN:305,_RNvMs_CsgYTKrqAxmq7_9smith_busNtB4_12HealthStatus10is_healthy
FN:330,_RNvXs0_CsgYTKrqAxmq7_9smith_busNtB5_14ConsumerConfigNtNtCs66KPHxksi63_4core7default7Default7default
FN:533,_RNvXs3_CsgYTKrqAxmq7_9smith_busNtB5_13BackoffConfigNtNtCs66KPHxksi63_4core7default7Default7default
FNDA:0,_RNCNCNvMCsgYTKrqAxmq7_9smith_busNtB6_8SmithBus7connect00Cs6Icymx2u3fr_13smith_metrics
FNDA:1,_RNCNvMCsgYTKrqAxmq7_9smith_busNtB4_8SmithBus7connect0Cs6Icymx2u3fr_13smith_metrics
FNDA:0,_RNvCsgYTKrqAxmq7_9smith_bus23create_backoff_strategy
FNDA:0,_RNvMCsgYTKrqAxmq7_9smith_busNtB2_8SmithBus11nats_client
FNDA:0,_RNvMCsgYTKrqAxmq7_9smith_busNtB2_8SmithBus12health_check
FNDA:0,_RNvMCsgYTKrqAxmq7_9smith_busNtB2_8SmithBus14stream_manager
FNDA:0,_RNvMCsgYTKrqAxmq7_9smith_busNtB2_8SmithBus23check_nats_connectivity
FNDA:0,_RNvMCsgYTKrqAxmq7_9smith_busNtB2_8SmithBus28check_jetstream_availability
FNDA:1,_RNvMCsgYTKrqAxmq7_9smith_busNtB2_8SmithBus7connect
FNDA:0,_RNvMCsgYTKrqAxmq7_9smith_busNtB2_8SmithBus8consumer
FNDA:0,_RNvMCsgYTKrqAxmq7_9smith_busNtB2_8SmithBus9jetstream
FNDA:0,_RNvMCsgYTKrqAxmq7_9smith_busNtB2_8SmithBus9publisher
FNDA:0,_RNvMs2_CsgYTKrqAxmq7_9smith_busNtB5_9WorkQueue10pull_batch
FNDA:0,_RNvMs2_CsgYTKrqAxmq7_9smith_busNtB5_9WorkQueue16log_batch_result
FNDA:0,_RNvMs2_CsgYTKrqAxmq7_9smith_busNtB5_9WorkQueue18attempt_pull_batch
FNDA:0,_RNvMs2_CsgYTKrqAxmq7_9smith_busNtB5_9WorkQueue19attempt_pull_single
FNDA:0,_RNvMs2_CsgYTKrqAxmq7_9smith_busNtB5_9WorkQueue27create_batch_retry_strategy
FNDA:0,_RNvMs2_CsgYTKrqAxmq7_9smith_busNtB5_9WorkQueue28create_single_retry_strategy
FNDA:0,_RNvMs2_CsgYTKrqAxmq7_9smith_busNtB5_9WorkQueue3new
FNDA:0,_RNvMs2_CsgYTKrqAxmq7_9smith_busNtB5_9WorkQueue8pull_one
FNDA:0,_RNvMs_CsgYTKrqAxmq7_9smith_busNtB4_12HealthStatus10is_healthy
FNDA:0,_RNvXs0_CsgYTKrqAxmq7_9smith_busNtB5_14ConsumerConfigNtNtCs66KPHxksi63_4core7default7Default7default
FNDA:0,_RNvXs3_CsgYTKrqAxmq7_9smith_busNtB5_13BackoffConfigNtNtCs66KPHxksi63_4core7default7Default7default
FNF:23
FNH:2
DA:193,1
DA:194,1
DA:196,1
DA:197,1
DA:198,1
DA:200,1
DA:202,1
DA:204,1
DA:205,1
DA:206,1
DA:207,1
DA:208,1
DA:211,0
DA:212,0
DA:213,0
DA:216,0
DA:221,0
DA:222,0
DA:223,0
DA:226,0
DA:227,0
DA:228,0
DA:231,0
DA:232,0
DA:233,0
DA:236,0
DA:247,0
DA:248,0
DA:249,0
DA:252,0
DA:255,0
DA:305,0
DA:306,0
DA:307,0
DA:330,0
DA:331,0
DA:332,0
DA:333,0
DA:334,0
DA:335,0
DA:336,0
DA:337,0
DA:338,0
DA:339,0
DA:340,0
DA:408,0
DA:409,0
DA:410,0
DA:411,0
DA:412,0
DA:413,0
DA:414,0
DA:417,0
DA:426,0
DA:427,0
DA:428,0
DA:429,0
DA:430,0
DA:433,0
DA:456,0
DA:457,0
DA:458,0
DA:460,0
DA:462,0
DA:465,0
DA:474,0
DA:475,0
DA:476,0
DA:477,0
DA:478,0
DA:481,0
DA:533,0
DA:534,0
DA:535,0
DA:536,0
DA:537,0
DA:538,0
DA:539,0
DA:540,0
DA:541,0
DA:545,0
DA:546,0
DA:547,0
DA:548,0
DA:549,0
DA:550,0
BRF:0
BRH:0
LF:88
LH:13
end_of_record
SF:/home/nathan/Projects/smith/shared/smith-bus/src/publisher.rs
FN:63,_RNvMNtCsgYTKrqAxmq7_9smith_bus9publisherNtB2_9Publisher11publish_raw
FN:13,_RNvMNtCsgYTKrqAxmq7_9smith_bus9publisherNtB2_9Publisher3new
FNDA:0,_RNvMNtCsgYTKrqAxmq7_9smith_bus9publisherNtB2_9Publisher11publish_raw
FNDA:0,_RNvMNtCsgYTKrqAxmq7_9smith_bus9publisherNtB2_9Publisher3new
FNF:2
FNH:0
DA:13,0
DA:14,0
DA:15,0
DA:63,0
BRF:0
BRH:0
LF:4
LH:0
end_of_record
SF:/home/nathan/Projects/smith/shared/smith-bus/src/sharding.rs
FN:24,_RNvMNtCsgYTKrqAxmq7_9smith_bus8shardingNtB2_9EpisodeId12with_project
FN:32,_RNvMNtCsgYTKrqAxmq7_9smith_bus8shardingNtB2_9EpisodeId17to_subject_suffix
FN:20,_RNvMNtCsgYTKrqAxmq7_9smith_bus8shardingNtB2_9EpisodeId3new
FN:130,_RNvMs1_NtCsgYTKrqAxmq7_9smith_bus8shardingNtB5_23OptimizedConsumerConfig11for_fs_read
FN:164,_RNvMs1_NtCsgYTKrqAxmq7_9smith_bus8shardingNtB5_23OptimizedConsumerConfig13for_admission
FN:147,_RNvMs1_NtCsgYTKrqAxmq7_9smith_bus8shardingNtB5_23OptimizedConsumerConfig14for_http_fetch
FN:225,_RNvMs3_NtCsgYTKrqAxmq7_9smith_bus8shardingNtB5_19BackpressureManager25should_apply_backpressure
FN:230,_RNvMs3_NtCsgYTKrqAxmq7_9smith_bus8shardingNtB5_19BackpressureManager30generate_backpressure_response
FN:260,_RNvMs4_NtCsgYTKrqAxmq7_9smith_bus8shardingNtB5_17ConsumerOptimizer20calculate_batch_size
FN:279,_RNvMs4_NtCsgYTKrqAxmq7_9smith_bus8shardingNtB5_17ConsumerOptimizer24optimize_consumer_config
FN:248,_RNvMs4_NtCsgYTKrqAxmq7_9smith_bus8shardingNtB5_17ConsumerOptimizer25calculate_max_ack_pending
FN:57,_RNvMs_NtCsgYTKrqAxmq7_9smith_bus8shardingNtB4_21ShardedSubjectBuilder12with_episode
FN:50,_RNvMs_NtCsgYTKrqAxmq7_9smith_bus8shardingNtB4_21ShardedSubjectBuilder3new
FN:63,_RNvMs_NtCsgYTKrqAxmq7_9smith_bus8shardingNtB4_21ShardedSubjectBuilder5build
FN:111,_RNvXs0_NtCsgYTKrqAxmq7_9smith_bus8shardingNtB5_23OptimizedConsumerConfigNtNtCs66KPHxksi63_4core7default7Default7default
FN:210,_RNvXs2_NtCsgYTKrqAxmq7_9smith_bus8shardingNtB5_19BackpressureManagerNtNtCs66KPHxksi63_4core7default7Default7default
FNDA:0,_RNvMNtCsgYTKrqAxmq7_9smith_bus8shardingNtB2_9EpisodeId12with_project
FNDA:0,_RNvMNtCsgYTKrqAxmq7_9smith_bus8shardingNtB2_9EpisodeId17to_subject_suffix
FNDA:0,_RNvMNtCsgYTKrqAxmq7_9smith_bus8shardingNtB2_9EpisodeId3new
FNDA:0,_RNvMs1_NtCsgYTKrqAxmq7_9smith_bus8shardingNtB5_23OptimizedConsumerConfig11for_fs_read
FNDA:0,_RNvMs1_NtCsgYTKrqAxmq7_9smith_bus8shardingNtB5_23OptimizedConsumerConfig13for_admission
FNDA:0,_RNvMs1_NtCsgYTKrqAxmq7_9smith_bus8shardingNtB5_23OptimizedConsumerConfig14for_http_fetch
FNDA:0,_RNvMs3_NtCsgYTKrqAxmq7_9smith_bus8shardingNtB5_19BackpressureManager25should_apply_backpressure
FNDA:0,_RNvMs3_NtCsgYTKrqAxmq7_9smith_bus8shardingNtB5_19BackpressureManager30generate_backpressure_response
FNDA:0,_RNvMs4_NtCsgYTKrqAxmq7_9smith_bus8shardingNtB5_17ConsumerOptimizer20calculate_batch_size
FNDA:0,_RNvMs4_NtCsgYTKrqAxmq7_9smith_bus8shardingNtB5_17ConsumerOptimizer24optimize_consumer_config
FNDA:0,_RNvMs4_NtCsgYTKrqAxmq7_9smith_bus8shardingNtB5_17ConsumerOptimizer25calculate_max_ack_pending
FNDA:0,_RNvMs_NtCsgYTKrqAxmq7_9smith_bus8shardingNtB4_21ShardedSubjectBuilder12with_episode
FNDA:0,_RNvMs_NtCsgYTKrqAxmq7_9smith_bus8shardingNtB4_21ShardedSubjectBuilder3new
FNDA:0,_RNvMs_NtCsgYTKrqAxmq7_9smith_bus8shardingNtB4_21ShardedSubjectBuilder5build
FNDA:0,_RNvXs0_NtCsgYTKrqAxmq7_9smith_bus8shardingNtB5_23OptimizedConsumerConfigNtNtCs66KPHxksi63_4core7default7Default7default
FNDA:0,_RNvXs2_NtCsgYTKrqAxmq7_9smith_bus8shardingNtB5_19BackpressureManagerNtNtCs66KPHxksi63_4core7default7Default7default
FNF:16
FNH:0
DA:20,0
DA:21,0
DA:22,0
DA:24,0
DA:25,0
DA:26,0
DA:27,0
DA:28,0
DA:29,0
DA:32,0
DA:33,0
DA:34,0
DA:35,0
DA:38,0
DA:39,0
DA:40,0
DA:50,0
DA:51,0
DA:52,0
DA:53,0
DA:54,0
DA:55,0
DA:57,0
DA:58,0
DA:59,0
DA:60,0
DA:63,0
DA:64,0
DA:65,0
DA:66,0
DA:68,0
DA:70,0
DA:111,0
DA:112,0
DA:113,0
DA:114,0
DA:115,0
DA:116,0
DA:117,0
DA:118,0
DA:119,0
DA:120,0
DA:121,0
DA:122,0
DA:123,0
DA:124,0
DA:125,0
DA:130,0
DA:131,0
DA:132,0
DA:133,0
DA:134,0
DA:135,0
DA:136,0
DA:137,0
DA:138,0
DA:139,0
DA:140,0
DA:141,0
DA:142,0
DA:143,0
DA:144,0
DA:147,0
DA:148,0
DA:149,0
DA:150,0
DA:151,0
DA:152,0
DA:153,0
DA:154,0
DA:155,0
DA:156,0
DA:157,0
DA:158,0
DA:159,0
DA:160,0
DA:161,0
DA:164,0
DA:165,0
DA:166,0
DA:167,0
DA:168,0
DA:169,0
DA:170,0
DA:171,0
DA:172,0
DA:173,0
DA:174,0
DA:175,0
DA:176,0
DA:177,0
DA:178,0
DA:210,0
DA:211,0
DA:212,0
DA:213,0
DA:214,0
DA:215,0
DA:216,0
DA:217,0
DA:218,0
DA:219,0
DA:220,0
DA:225,0
DA:226,0
DA:227,0
DA:230,0
DA:231,0
DA:232,0
DA:233,0
DA:234,0
DA:235,0
DA:236,0
DA:238,0
DA:240,0
DA:248,0
DA:249,0
DA:250,0
DA:251,0
DA:252,0
DA:253,0
DA:256,0
DA:257,0
DA:260,0
DA:261,0
DA:262,0
DA:263,0
DA:264,0
DA:265,0
DA:269,0
DA:270,0
DA:271,0
DA:272,0
DA:274,0
DA:276,0
DA:279,0
DA:280,0
DA:281,0
DA:282,0
DA:283,0
DA:284,0
DA:285,0
DA:286,0
DA:287,0
DA:288,0
DA:291,0
DA:292,0
DA:293,0
DA:294,0
DA:295,0
DA:296,0
BRF:0
BRH:0
LF:151
LH:0
end_of_record
SF:/home/nathan/Projects/smith/shared/smith-bus/src/streams.rs
FN:348,_RNvMNtCsgYTKrqAxmq7_9smith_bus7streamsNtB2_13StreamManager13delete_stream
FN:299,_RNvMNtCsgYTKrqAxmq7_9smith_bus7streamsNtB2_13StreamManager14configs_differ
FN:310,_RNvMNtCsgYTKrqAxmq7_9smith_bus7streamsNtB2_13StreamManager16get_streams_info
FN:17,_RNvMNtCsgYTKrqAxmq7_9smith_bus7streamsNtB2_13StreamManager17bootstrap_streams
FN:208,_RNvMNtCsgYTKrqAxmq7_9smith_bus7streamsNtB2_13StreamManager19ensure_audit_stream
FN:134,_RNvMNtCsgYTKrqAxmq7_9smith_bus7streamsNtB2_13StreamManager20ensure_audit_streams
FN:182,_RNvMNtCsgYTKrqAxmq7_9smith_bus7streamsNtB2_13StreamManager21ensure_results_stream
FN:46,_RNvMNtCsgYTKrqAxmq7_9smith_bus7streamsNtB2_13StreamManager22ensure_sdlc_raw_stream
FN:260,_RNvMNtCsgYTKrqAxmq7_9smith_bus7streamsNtB2_13StreamManager23create_or_update_stream
FN:76,_RNvMNtCsgYTKrqAxmq7_9smith_bus7streamsNtB2_13StreamManager26ensure_atoms_vetted_stream
FN:106,_RNvMNtCsgYTKrqAxmq7_9smith_bus7streamsNtB2_13StreamManager27ensure_atoms_results_stream
FN:158,_RNvMNtCsgYTKrqAxmq7_9smith_bus7streamsNtB2_13StreamManager27ensure_backpressure_streams
FN:234,_RNvMNtCsgYTKrqAxmq7_9smith_bus7streamsNtB2_13StreamManager27ensure_system_events_stream
FN:12,_RNvMNtCsgYTKrqAxmq7_9smith_bus7streamsNtB2_13StreamManager3new
FN:384,_RNvMs_NtCsgYTKrqAxmq7_9smith_bus7streamsNtB4_10StreamInfo10is_healthy
FN:389,_RNvMs_NtCsgYTKrqAxmq7_9smith_bus7streamsNtB4_10StreamInfo19utilization_percent
FNDA:0,_RNvMNtCsgYTKrqAxmq7_9smith_bus7streamsNtB2_13StreamManager13delete_stream
FNDA:0,_RNvMNtCsgYTKrqAxmq7_9smith_bus7streamsNtB2_13StreamManager14configs_differ
FNDA:0,_RNvMNtCsgYTKrqAxmq7_9smith_bus7streamsNtB2_13StreamManager16get_streams_info
FNDA:0,_RNvMNtCsgYTKrqAxmq7_9smith_bus7streamsNtB2_13StreamManager17bootstrap_streams
FNDA:0,_RNvMNtCsgYTKrqAxmq7_9smith_bus7streamsNtB2_13StreamManager19ensure_audit_stream
FNDA:0,_RNvMNtCsgYTKrqAxmq7_9smith_bus7streamsNtB2_13StreamManager20ensure_audit_streams
FNDA:0,_RNvMNtCsgYTKrqAxmq7_9smith_bus7streamsNtB2_13StreamManager21ensure_results_stream
FNDA:0,_RNvMNtCsgYTKrqAxmq7_9smith_bus7streamsNtB2_13StreamManager22ensure_sdlc_raw_stream
FNDA:0,_RNvMNtCsgYTKrqAxmq7_9smith_bus7streamsNtB2_13StreamManager23create_or_update_stream
FNDA:0,_RNvMNtCsgYTKrqAxmq7_9smith_bus7streamsNtB2_13StreamManager26ensure_atoms_vetted_stream
FNDA:0,_RNvMNtCsgYTKrqAxmq7_9smith_bus7streamsNtB2_13StreamManager27ensure_atoms_results_stream
FNDA:0,_RNvMNtCsgYTKrqAxmq7_9smith_bus7streamsNtB2_13StreamManager27ensure_backpressure_streams
FNDA:0,_RNvMNtCsgYTKrqAxmq7_9smith_bus7streamsNtB2_13StreamManager27ensure_system_events_stream
FNDA:0,_RNvMNtCsgYTKrqAxmq7_9smith_bus7streamsNtB2_13StreamManager3new
FNDA:0,_RNvMs_NtCsgYTKrqAxmq7_9smith_bus7streamsNtB4_10StreamInfo10is_healthy
FNDA:0,_RNvMs_NtCsgYTKrqAxmq7_9smith_bus7streamsNtB4_10StreamInfo19utilization_percent
FNF:16
FNH:0
DA:12,0
DA:13,0
DA:14,0
DA:17,0
DA:46,0
DA:76,0
DA:106,0
DA:134,0
DA:158,0
DA:182,0
DA:208,0
DA:234,0
DA:260,0
DA:299,0
DA:301,0
DA:302,0
DA:303,0
DA:304,0
DA:305,0
DA:306,0
DA:307,0
DA:310,0
DA:348,0
DA:384,0
DA:385,0
DA:386,0
DA:389,0
DA:390,0
DA:391,0
DA:392,0
DA:395,0
DA:396,0
DA:398,0
DA:399,0
BRF:0
BRH:0
LF:34
LH:0
end_of_record
SF:/home/nathan/Projects/smith/shared/smith-bus/src/subjects.rs
FN:285,_RINvMNtNtCsgYTKrqAxmq7_9smith_bus8subjects8buildersNtB3_13IntentSubject11with_domainRNtNtCs8Ty2CzGA6U3_5alloc6string6StringECsio95dFbZOmL_14smith_protocol
FN:307,_RINvMs_NtNtCsgYTKrqAxmq7_9smith_bus8subjects8buildersNtB5_13ResultSubject10for_intentRNtNtCs8Ty2CzGA6U3_5alloc6string6StringECsio95dFbZOmL_14smith_protocol
FN:222,_RINvMNtCsgYTKrqAxmq7_9smith_bus8subjectsNtB3_14SubjectBuilder10capabilityRNtNtCs8Ty2CzGA6U3_5alloc6string6StringECsio95dFbZOmL_14smith_protocol
FN:235,_RINvMNtCsgYTKrqAxmq7_9smith_bus8subjectsNtB3_14SubjectBuilder6domainRNtNtCs8Ty2CzGA6U3_5alloc6string6StringECsio95dFbZOmL_14smith_protocol
FN:216,_RINvMNtCsgYTKrqAxmq7_9smith_bus8subjectsNtB3_14SubjectBuilder4partReEB5_
FN:209,_RNvMNtCsgYTKrqAxmq7_9smith_bus8subjectsNtB2_14SubjectBuilder3new
FN:241,_RNvMNtCsgYTKrqAxmq7_9smith_bus8subjectsNtB2_14SubjectBuilder5build
FN:246,_RNvMNtCsgYTKrqAxmq7_9smith_bus8subjectsNtB2_14SubjectBuilder8wildcard
FN:253,_RNvXs_NtCsgYTKrqAxmq7_9smith_bus8subjectsNtB4_14SubjectBuilderNtNtCs66KPHxksi63_4core7default7Default7default
FNDA:0,_RINvMNtNtCsgYTKrqAxmq7_9smith_bus8subjects8buildersNtB3_13IntentSubject11with_domainRNtNtCs8Ty2CzGA6U3_5alloc6string6StringECsio95dFbZOmL_14smith_protocol
FNDA:0,_RINvMs_NtNtCsgYTKrqAxmq7_9smith_bus8subjects8buildersNtB5_13ResultSubject10for_intentRNtNtCs8Ty2CzGA6U3_5alloc6string6StringECsio95dFbZOmL_14smith_protocol
FNDA:0,_RINvMNtCsgYTKrqAxmq7_9smith_bus8subjectsNtB3_14SubjectBuilder10capabilityRNtNtCs8Ty2CzGA6U3_5alloc6string6StringECsio95dFbZOmL_14smith_protocol
FNDA:0,_RINvMNtCsgYTKrqAxmq7_9smith_bus8subjectsNtB3_14SubjectBuilder6domainRNtNtCs8Ty2CzGA6U3_5alloc6string6StringECsio95dFbZOmL_14smith_protocol
FNDA:0,_RINvMNtCsgYTKrqAxmq7_9smith_bus8subjectsNtB3_14SubjectBuilder4partReEB5_
FNDA:0,_RNvMNtCsgYTKrqAxmq7_9smith_bus8subjectsNtB2_14SubjectBuilder3new
FNDA:0,_RNvMNtCsgYTKrqAxmq7_9smith_bus8subjectsNtB2_14SubjectBuilder5build
FNDA:0,_RNvMNtCsgYTKrqAxmq7_9smith_bus8subjectsNtB2_14SubjectBuilder8wildcard
FNDA:0,_RNvXs_NtCsgYTKrqAxmq7_9smith_bus8subjectsNtB4_14SubjectBuilderNtNtCs66KPHxksi63_4core7default7Default7default
FNF:9
FNH:0
DA:209,0
DA:210,0
DA:211,0
DA:212,0
DA:213,0
DA:216,0
DA:217,0
DA:218,0
DA:219,0
DA:222,0
DA:223,0
DA:224,0
DA:225,0
DA:226,0
DA:227,0
DA:228,0
DA:229,0
DA:230,0
DA:231,0
DA:232,0
DA:235,0
DA:236,0
DA:237,0
DA:238,0
DA:241,0
DA:242,0
DA:243,0
DA:246,0
DA:247,0
DA:248,0
DA:249,0
DA:253,0
DA:254,0
DA:255,0
DA:285,0
DA:286,0
DA:287,0
DA:288,0
DA:289,0
DA:290,0
DA:291,0
DA:307,0
DA:308,0
DA:309,0
DA:310,0
DA:311,0
DA:312,0
BRF:0
BRH:0
LF:47
LH:0
end_of_record
SF:/home/nathan/Projects/smith/shared/smith-metrics/src/ab_testing.rs
FN:1049,_RNvMs0_NtCs6Icymx2u3fr_13smith_metrics10ab_testingNtB5_17ExperimentBuilder11add_variant
FN:1044,_RNvMs0_NtCs6Icymx2u3fr_13smith_metrics10ab_testingNtB5_17ExperimentBuilder11description
FN:1069,_RNvMs0_NtCs6Icymx2u3fr_13smith_metrics10ab_testingNtB5_17ExperimentBuilder11sample_size
FN:1064,_RNvMs0_NtCs6Icymx2u3fr_13smith_metrics10ab_testingNtB5_17ExperimentBuilder11task_filter
FN:1059,_RNvMs0_NtCs6Icymx2u3fr_13smith_metrics10ab_testingNtB5_17ExperimentBuilder18add_success_metric
FN:1054,_RNvMs0_NtCs6Icymx2u3fr_13smith_metrics10ab_testingNtB5_17ExperimentBuilder18traffic_allocation
FN:1074,_RNvMs0_NtCs6Icymx2u3fr_13smith_metrics10ab_testingNtB5_17ExperimentBuilder22significance_threshold
FN:1011,_RNvMs0_NtCs6Icymx2u3fr_13smith_metrics10ab_testingNtB5_17ExperimentBuilder3new
FN:1079,_RNvMs0_NtCs6Icymx2u3fr_13smith_metrics10ab_testingNtB5_17ExperimentBuilder5build
FN:583,_RNvMs_NtCs6Icymx2u3fr_13smith_metrics10ab_testingNtB4_16ABTestingManager14get_experiment
FN:427,_RNvMs_NtCs6Icymx2u3fr_13smith_metrics10ab_testingNtB4_16ABTestingManager15stop_experiment
FN:448,_RNvMs_NtCs6Icymx2u3fr_13smith_metrics10ab_testingNtB4_16ABTestingManager16allocate_variant
FN:589,_RNvMs_NtCs6Icymx2u3fr_13smith_metrics10ab_testingNtB4_16ABTestingManager16list_experiments
FN:402,_RNvMs_NtCs6Icymx2u3fr_13smith_metrics10ab_testingNtB4_16ABTestingManager16start_experiment
FN:717,_RNvMs_NtCs6Icymx2u3fr_13smith_metrics10ab_testingNtB4_16ABTestingManager16store_experiment
FN:365,_RNvMs_NtCs6Icymx2u3fr_13smith_metrics10ab_testingNtB4_16ABTestingManager17create_experiment
FN:487,_RNvMs_NtCs6Icymx2u3fr_13smith_metrics10ab_testingNtB4_16ABTestingManager18analyze_experiment
FN:975,_RNvMs_NtCs6Icymx2u3fr_13smith_metrics10ab_testingNtB4_16ABTestingManager19create_data_summary
FN:626,_RNvMs_NtCs6Icymx2u3fr_13smith_metrics10ab_testingNtB4_16ABTestingManager19matches_task_filter
FN:603,_RNvMs_NtCs6Icymx2u3fr_13smith_metrics10ab_testingNtB4_16ABTestingManager19validate_experiment
FN:924,_RNvMs_NtCs6Icymx2u3fr_13smith_metrics10ab_testingNtB4_16ABTestingManager20generate_conclusions
FN:724,_RNvMs_NtCs6Icymx2u3fr_13smith_metrics10ab_testingNtB4_16ABTestingManager21fetch_experiment_data
FN:573,_RNvMs_NtCs6Icymx2u3fr_13smith_metrics10ab_testingNtB4_16ABTestingManager22get_active_experiments
FN:733,_RNvMs_NtCs6Icymx2u3fr_13smith_metrics10ab_testingNtB4_16ABTestingManager23group_events_by_variant
FN:757,_RNvMs_NtCs6Icymx2u3fr_13smith_metrics10ab_testingNtB4_16ABTestingManager25calculate_variant_results
FN:664,_RNvMs_NtCs6Icymx2u3fr_13smith_metrics10ab_testingNtB4_16ABTestingManager31allocate_variant_for_experiment
FN:825,_RNvMs_NtCs6Icymx2u3fr_13smith_metrics10ab_testingNtB4_16ABTestingManager31perform_statistical_comparisons
FN:877,_RNvMs_NtCs6Icymx2u3fr_13smith_metrics10ab_testingNtB4_16ABTestingManager32calculate_statistical_comparison
FN:356,_RNvMs_NtCs6Icymx2u3fr_13smith_metrics10ab_testingNtB4_16ABTestingManager3new
FN:342,_RNvXNtCs6Icymx2u3fr_13smith_metrics10ab_testingNtB2_15ABTestingConfigNtNtCs66KPHxksi63_4core7default7Default7default
FN:457,_RNCNCNvMs_NtCs6Icymx2u3fr_13smith_metrics10ab_testingNtB8_16ABTestingManager16allocate_variant00Ba_
FN:475,_RNCNCNvMs_NtCs6Icymx2u3fr_13smith_metrics10ab_testingNtB8_16ABTestingManager16allocate_variant0s0_0Ba_
FN:458,_RNCNCNvMs_NtCs6Icymx2u3fr_13smith_metrics10ab_testingNtB8_16ABTestingManager16allocate_variant0s_0Ba_
FN:596,_RNCNCNvMs_NtCs6Icymx2u3fr_13smith_metrics10ab_testingNtB8_16ABTestingManager16list_experiments00Ba_
FN:495,_RNCNCNvMs_NtCs6Icymx2u3fr_13smith_metrics10ab_testingNtB8_16ABTestingManager18analyze_experiment00Ba_
FN:554,_RNCNCNvMs_NtCs6Icymx2u3fr_13smith_metrics10ab_testingNtB8_16ABTestingManager18analyze_experiment0s_0Ba_
FN:990,_RNCNCNvMs_NtCs6Icymx2u3fr_13smith_metrics10ab_testingNtB8_16ABTestingManager19create_data_summary0s0_0Ba_
FN:931,_RNCNCNvMs_NtCs6Icymx2u3fr_13smith_metrics10ab_testingNtB8_16ABTestingManager20generate_conclusions00Ba_
FN:934,_RNCNCNvMs_NtCs6Icymx2u3fr_13smith_metrics10ab_testingNtB8_16ABTestingManager20generate_conclusions0s_0Ba_
FN:577,_RNCNCNvMs_NtCs6Icymx2u3fr_13smith_metrics10ab_testingNtB8_16ABTestingManager22get_active_experiments00Ba_
FN:772,_RNCNCNvMs_NtCs6Icymx2u3fr_13smith_metrics10ab_testingNtB8_16ABTestingManager25calculate_variant_results00Ba_
FN:837,_RNCNCNvMs_NtCs6Icymx2u3fr_13smith_metrics10ab_testingNtB8_16ABTestingManager31perform_statistical_comparisons0s_0Ba_
FN:583,_RNCNvMs_NtCs6Icymx2u3fr_13smith_metrics10ab_testingNtB6_16ABTestingManager14get_experiment0B8_
FN:427,_RNCNvMs_NtCs6Icymx2u3fr_13smith_metrics10ab_testingNtB6_16ABTestingManager15stop_experiment0B8_
FN:451,_RNCNvMs_NtCs6Icymx2u3fr_13smith_metrics10ab_testingNtB6_16ABTestingManager16allocate_variant0B8_
FN:592,_RNCNvMs_NtCs6Icymx2u3fr_13smith_metrics10ab_testingNtB6_16ABTestingManager16list_experiments0B8_
FN:402,_RNCNvMs_NtCs6Icymx2u3fr_13smith_metrics10ab_testingNtB6_16ABTestingManager16start_experiment0B8_
FN:717,_RNCNvMs_NtCs6Icymx2u3fr_13smith_metrics10ab_testingNtB6_16ABTestingManager16store_experiment0B8_
FN:365,_RNCNvMs_NtCs6Icymx2u3fr_13smith_metrics10ab_testingNtB6_16ABTestingManager17create_experiment0B8_
FN:490,_RNCNvMs_NtCs6Icymx2u3fr_13smith_metrics10ab_testingNtB6_16ABTestingManager18analyze_experiment0B8_
FN:979,_RNCNvMs_NtCs6Icymx2u3fr_13smith_metrics10ab_testingNtB6_16ABTestingManager19create_data_summary0B8_
FN:643,_RNCNvMs_NtCs6Icymx2u3fr_13smith_metrics10ab_testingNtB6_16ABTestingManager19matches_task_filter0B8_
FN:928,_RNCNvMs_NtCs6Icymx2u3fr_13smith_metrics10ab_testingNtB6_16ABTestingManager20generate_conclusions0B8_
FN:727,_RNCNvMs_NtCs6Icymx2u3fr_13smith_metrics10ab_testingNtB6_16ABTestingManager21fetch_experiment_data0B8_
FN:573,_RNCNvMs_NtCs6Icymx2u3fr_13smith_metrics10ab_testingNtB6_16ABTestingManager22get_active_experiments0B8_
FN:745,_RNCNvMs_NtCs6Icymx2u3fr_13smith_metrics10ab_testingNtB6_16ABTestingManager23group_events_by_variant0B8_
FN:761,_RNCNvMs_NtCs6Icymx2u3fr_13smith_metrics10ab_testingNtB6_16ABTestingManager25calculate_variant_results0B8_
FN:668,_RNCNvMs_NtCs6Icymx2u3fr_13smith_metrics10ab_testingNtB6_16ABTestingManager31allocate_variant_for_experiment0B8_
FN:829,_RNCNvMs_NtCs6Icymx2u3fr_13smith_metrics10ab_testingNtB6_16ABTestingManager31perform_statistical_comparisons0B8_
FN:887,_RNCNvMs_NtCs6Icymx2u3fr_13smith_metrics10ab_testingNtB6_16ABTestingManager32calculate_statistical_comparison0B8_
FN:1097,_RNvNtNtCs6Icymx2u3fr_13smith_metrics10ab_testing5testss_23test_experiment_builder
FN:1464,_RNvNtNtCs6Icymx2u3fr_13smith_metrics10ab_testing5testss_23test_variant_comparison
FN:1451,_RNvNtNtCs6Icymx2u3fr_13smith_metrics10ab_testing5testss_24test_confidence_interval
FN:1248,_RNvNtNtCs6Icymx2u3fr_13smith_metrics10ab_testing5testss_25test_success_metric_types
FN:1487,_RNvNtNtCs6Icymx2u3fr_13smith_metrics10ab_testing5testss_27test_experiment_conclusions
FN:1431,_RNvNtNtCs6Icymx2u3fr_13smith_metrics10ab_testing5testss_27test_metric_result_creation
FN:1175,_RNvNtNtCs6Icymx2u3fr_13smith_metrics10ab_testing5testss_28test_policy_variant_creation
FN:1518,_RNvNtNtCs6Icymx2u3fr_13smith_metrics10ab_testing5testss_29test_analysis_status_variants
FN:1313,_RNvNtNtCs6Icymx2u3fr_13smith_metrics10ab_testing5testss_30test_task_filter_comprehensive
FN:1543,_RNvNtNtCs6Icymx2u3fr_13smith_metrics10ab_testing5testss_30test_variant_results_structure
FN:1130,_RNvNtNtCs6Icymx2u3fr_13smith_metrics10ab_testing5testss_31test_ab_testing_config_creation
FN:1146,_RNvNtNtCs6Icymx2u3fr_13smith_metrics10ab_testing5testss_31test_experiment_status_variants
FN:1577,_RNvNtNtCs6Icymx2u3fr_13smith_metrics10ab_testing5testss_32test_recommended_action_variants
FN:1594,_RNvNtNtCs6Icymx2u3fr_13smith_metrics10ab_testing5testss_33test_allocation_strategy_variants
FN:1200,_RNvNtNtCs6Icymx2u3fr_13smith_metrics10ab_testing5testss_34test_traffic_allocation_strategies
FN:1359,_RNvNtNtCs6Icymx2u3fr_13smith_metrics10ab_testing5testss_37test_experiment_builder_comprehensive
FN:1610,_RNvNtNtCs6Icymx2u3fr_13smith_metrics10ab_testing5testss_43test_improvement_direction_and_metric_types
FN:1637,_RNvNtNtCs6Icymx2u3fr_13smith_metrics10ab_testing5testss_44test_experiment_full_lifecycle_serialization
FNDA:3,_RNvMs0_NtCs6Icymx2u3fr_13smith_metrics10ab_testingNtB5_17ExperimentBuilder11add_variant
FNDA:2,_RNvMs0_NtCs6Icymx2u3fr_13smith_metrics10ab_testingNtB5_17ExperimentBuilder11description
FNDA:2,_RNvMs0_NtCs6Icymx2u3fr_13smith_metrics10ab_testingNtB5_17ExperimentBuilder11sample_size
FNDA:1,_RNvMs0_NtCs6Icymx2u3fr_13smith_metrics10ab_testingNtB5_17ExperimentBuilder11task_filter
FNDA:1,_RNvMs0_NtCs6Icymx2u3fr_13smith_metrics10ab_testingNtB5_17ExperimentBuilder18add_success_metric
FNDA:2,_RNvMs0_NtCs6Icymx2u3fr_13smith_metrics10ab_testingNtB5_17ExperimentBuilder18traffic_allocation
FNDA:1,_RNvMs0_NtCs6Icymx2u3fr_13smith_metrics10ab_testingNtB5_17ExperimentBuilder22significance_threshold
FNDA:2,_RNvMs0_NtCs6Icymx2u3fr_13smith_metrics10ab_testingNtB5_17ExperimentBuilder3new
FNDA:2,_RNvMs0_NtCs6Icymx2u3fr_13smith_metrics10ab_testingNtB5_17ExperimentBuilder5build
FNDA:8,_RNvMs_NtCs6Icymx2u3fr_13smith_metrics10ab_testingNtB4_16ABTestingManager14get_experiment
FNDA:2,_RNvMs_NtCs6Icymx2u3fr_13smith_metrics10ab_testingNtB4_16ABTestingManager15stop_experiment
FNDA:9,_RNvMs_NtCs6Icymx2u3fr_13smith_metrics10ab_testingNtB4_16ABTestingManager16allocate_variant
FNDA:3,_RNvMs_NtCs6Icymx2u3fr_13smith_metrics10ab_testingNtB4_16ABTestingManager16list_experiments
FNDA:5,_RNvMs_NtCs6Icymx2u3fr_13smith_metrics10ab_testingNtB4_16ABTestingManager16start_experiment
FNDA:28,_RNvMs_NtCs6Icymx2u3fr_13smith_metrics10ab_testingNtB4_16ABTestingManager16store_experiment
FNDA:28,_RNvMs_NtCs6Icymx2u3fr_13smith_metrics10ab_testingNtB4_16ABTestingManager17create_experiment
FNDA:2,_RNvMs_NtCs6Icymx2u3fr_13smith_metrics10ab_testingNtB4_16ABTestingManager18analyze_experiment
FNDA:2,_RNvMs_NtCs6Icymx2u3fr_13smith_metrics10ab_testingNtB4_16ABTestingManager19create_data_summary
FNDA:20,_RNvMs_NtCs6Icymx2u3fr_13smith_metrics10ab_testingNtB4_16ABTestingManager19matches_task_filter
FNDA:28,_RNvMs_NtCs6Icymx2u3fr_13smith_metrics10ab_testingNtB4_16ABTestingManager19validate_experiment
FNDA:2,_RNvMs_NtCs6Icymx2u3fr_13smith_metrics10ab_testingNtB4_16ABTestingManager20generate_conclusions
FNDA:1,_RNvMs_NtCs6Icymx2u3fr_13smith_metrics10ab_testingNtB4_16ABTestingManager21fetch_experiment_data
FNDA:1,_RNvMs_NtCs6Icymx2u3fr_13smith_metrics10ab_testingNtB4_16ABTestingManager22get_active_experiments
FNDA:1,_RNvMs_NtCs6Icymx2u3fr_13smith_metrics10ab_testingNtB4_16ABTestingManager23group_events_by_variant
FNDA:1,_RNvMs_NtCs6Icymx2u3fr_13smith_metrics10ab_testingNtB4_16ABTestingManager25calculate_variant_results
FNDA:7,_RNvMs_NtCs6Icymx2u3fr_13smith_metrics10ab_testingNtB4_16ABTestingManager31allocate_variant_for_experiment
FNDA:1,_RNvMs_NtCs6Icymx2u3fr_13smith_metrics10ab_testingNtB4_16ABTestingManager31perform_statistical_comparisons
FNDA:2,_RNvMs_NtCs6Icymx2u3fr_13smith_metrics10ab_testingNtB4_16ABTestingManager32calculate_statistical_comparison
FNDA:41,_RNvMs_NtCs6Icymx2u3fr_13smith_metrics10ab_testingNtB4_16ABTestingManager3new
FNDA:42,_RNvXNtCs6Icymx2u3fr_13smith_metrics10ab_testingNtB2_15ABTestingConfigNtNtCs66KPHxksi63_4core7default7Default7default
FNDA:8,_RNCNCNvMs_NtCs6Icymx2u3fr_13smith_metrics10ab_testingNtB8_16ABTestingManager16allocate_variant00Ba_
FNDA:10,_RNCNCNvMs_NtCs6Icymx2u3fr_13smith_metrics10ab_testingNtB8_16ABTestingManager16allocate_variant0s0_0Ba_
FNDA:7,_RNCNCNvMs_NtCs6Icymx2u3fr_13smith_metrics10ab_testingNtB8_16ABTestingManager16allocate_variant0s_0Ba_
FNDA:8,_RNCNCNvMs_NtCs6Icymx2u3fr_13smith_metrics10ab_testingNtB8_16ABTestingManager16list_experiments00Ba_
FNDA:1,_RNCNCNvMs_NtCs6Icymx2u3fr_13smith_metrics10ab_testingNtB8_16ABTestingManager18analyze_experiment00Ba_
FNDA:0,_RNCNCNvMs_NtCs6Icymx2u3fr_13smith_metrics10ab_testingNtB8_16ABTestingManager18analyze_experiment0s_0Ba_
FNDA:2,_RNCNCNvMs_NtCs6Icymx2u3fr_13smith_metrics10ab_testingNtB8_16ABTestingManager19create_data_summary0s0_0Ba_
FNDA:2,_RNCNCNvMs_NtCs6Icymx2u3fr_13smith_metrics10ab_testingNtB8_16ABTestingManager20generate_conclusions00Ba_
FNDA:0,_RNCNCNvMs_NtCs6Icymx2u3fr_13smith_metrics10ab_testingNtB8_16ABTestingManager20generate_conclusions0s_0Ba_
FNDA:3,_RNCNCNvMs_NtCs6Icymx2u3fr_13smith_metrics10ab_testingNtB8_16ABTestingManager22get_active_experiments00Ba_
FNDA:3,_RNCNCNvMs_NtCs6Icymx2u3fr_13smith_metrics10ab_testingNtB8_16ABTestingManager25calculate_variant_results00Ba_
FNDA:0,_RNCNCNvMs_NtCs6Icymx2u3fr_13smith_metrics10ab_testingNtB8_16ABTestingManager31perform_statistical_comparisons0s_0Ba_
FNDA:8,_RNCNvMs_NtCs6Icymx2u3fr_13smith_metrics10ab_testingNtB6_16ABTestingManager14get_experiment0B8_
FNDA:2,_RNCNvMs_NtCs6Icymx2u3fr_13smith_metrics10ab_testingNtB6_16ABTestingManager15stop_experiment0B8_
FNDA:9,_RNCNvMs_NtCs6Icymx2u3fr_13smith_metrics10ab_testingNtB6_16ABTestingManager16allocate_variant0B8_
FNDA:3,_RNCNvMs_NtCs6Icymx2u3fr_13smith_metrics10ab_testingNtB6_16ABTestingManager16list_experiments0B8_
FNDA:5,_RNCNvMs_NtCs6Icymx2u3fr_13smith_metrics10ab_testingNtB6_16ABTestingManager16start_experiment0B8_
FNDA:28,_RNCNvMs_NtCs6Icymx2u3fr_13smith_metrics10ab_testingNtB6_16ABTestingManager16store_experiment0B8_
FNDA:28,_RNCNvMs_NtCs6Icymx2u3fr_13smith_metrics10ab_testingNtB6_16ABTestingManager17create_experiment0B8_
FNDA:2,_RNCNvMs_NtCs6Icymx2u3fr_13smith_metrics10ab_testingNtB6_16ABTestingManager18analyze_experiment0B8_
FNDA:2,_RNCNvMs_NtCs6Icymx2u3fr_13smith_metrics10ab_testingNtB6_16ABTestingManager19create_data_summary0B8_
FNDA:3,_RNCNvMs_NtCs6Icymx2u3fr_13smith_metrics10ab_testingNtB6_16ABTestingManager19matches_task_filter0B8_
FNDA:2,_RNCNvMs_NtCs6Icymx2u3fr_13smith_metrics10ab_testingNtB6_16ABTestingManager20generate_conclusions0B8_
FNDA:1,_RNCNvMs_NtCs6Icymx2u3fr_13smith_metrics10ab_testingNtB6_16ABTestingManager21fetch_experiment_data0B8_
FNDA:1,_RNCNvMs_NtCs6Icymx2u3fr_13smith_metrics10ab_testingNtB6_16ABTestingManager22get_active_experiments0B8_
FNDA:6,_RNCNvMs_NtCs6Icymx2u3fr_13smith_metrics10ab_testingNtB6_16ABTestingManager23group_events_by_variant0B8_
FNDA:1,_RNCNvMs_NtCs6Icymx2u3fr_13smith_metrics10ab_testingNtB6_16ABTestingManager25calculate_variant_results0B8_
FNDA:7,_RNCNvMs_NtCs6Icymx2u3fr_13smith_metrics10ab_testingNtB6_16ABTestingManager31allocate_variant_for_experiment0B8_
FNDA:1,_RNCNvMs_NtCs6Icymx2u3fr_13smith_metrics10ab_testingNtB6_16ABTestingManager31perform_statistical_comparisons0B8_
FNDA:2,_RNCNvMs_NtCs6Icymx2u3fr_13smith_metrics10ab_testingNtB6_16ABTestingManager32calculate_statistical_comparison0B8_
FNDA:1,_RNvNtNtCs6Icymx2u3fr_13smith_metrics10ab_testing5testss_23test_experiment_builder
FNDA:1,_RNvNtNtCs6Icymx2u3fr_13smith_metrics10ab_testing5testss_23test_variant_comparison
FNDA:1,_RNvNtNtCs6Icymx2u3fr_13smith_metrics10ab_testing5testss_24test_confidence_interval
FNDA:1,_RNvNtNtCs6Icymx2u3fr_13smith_metrics10ab_testing5testss_25test_success_metric_types
FNDA:1,_RNvNtNtCs6Icymx2u3fr_13smith_metrics10ab_testing5testss_27test_experiment_conclusions
FNDA:1,_RNvNtNtCs6Icymx2u3fr_13smith_metrics10ab_testing5testss_27test_metric_result_creation
FNDA:1,_RNvNtNtCs6Icymx2u3fr_13smith_metrics10ab_testing5testss_28test_policy_variant_creation
FNDA:1,_RNvNtNtCs6Icymx2u3fr_13smith_metrics10ab_testing5testss_29test_analysis_status_variants
FNDA:1,_RNvNtNtCs6Icymx2u3fr_13smith_metrics10ab_testing5testss_30test_task_filter_comprehensive
FNDA:1,_RNvNtNtCs6Icymx2u3fr_13smith_metrics10ab_testing5testss_30test_variant_results_structure
FNDA:1,_RNvNtNtCs6Icymx2u3fr_13smith_metrics10ab_testing5testss_31test_ab_testing_config_creation
FNDA:1,_RNvNtNtCs6Icymx2u3fr_13smith_metrics10ab_testing5testss_31test_experiment_status_variants
FNDA:1,_RNvNtNtCs6Icymx2u3fr_13smith_metrics10ab_testing5testss_32test_recommended_action_variants
FNDA:1,_RNvNtNtCs6Icymx2u3fr_13smith_metrics10ab_testing5testss_33test_allocation_strategy_variants
FNDA:1,_RNvNtNtCs6Icymx2u3fr_13smith_metrics10ab_testing5testss_34test_traffic_allocation_strategies
FNDA:1,_RNvNtNtCs6Icymx2u3fr_13smith_metrics10ab_testing5testss_37test_experiment_builder_comprehensive
FNDA:1,_RNvNtNtCs6Icymx2u3fr_13smith_metrics10ab_testing5testss_43test_improvement_direction_and_metric_types
FNDA:1,_RNvNtNtCs6Icymx2u3fr_13smith_metrics10ab_testing5testss_44test_experiment_full_lifecycle_serialization
FNF:78
FNH:75
DA:342,42
DA:343,42
DA:344,42
DA:345,42
DA:346,42
DA:347,42
DA:348,42
DA:349,42
DA:350,42
DA:351,42
DA:356,41
DA:357,41
DA:358,41
DA:359,41
DA:360,41
DA:361,41
DA:362,41
DA:365,28
DA:367,28
DA:370,25
DA:371,1
DA:372,24
DA:373,25
DA:374,1
DA:375,24
DA:378,25
DA:379,1
DA:380,24
DA:384,25
DA:385,25
DA:386,1
DA:387,24
DA:388,24
DA:392,24
DA:394,24
DA:395,0
DA:398,24
DA:399,28
DA:402,5
DA:403,5
DA:405,5
DA:406,4
DA:407,2
DA:409,1
DA:410,3
DA:412,3
DA:413,3
DA:414,1
DA:415,2
DA:417,3
DA:418,3
DA:420,1
DA:423,3
DA:424,5
DA:427,2
DA:428,2
DA:430,2
DA:431,1
DA:432,1
DA:433,1
DA:434,1
DA:435,1
DA:438,1
DA:439,1
DA:441,1
DA:444,1
DA:445,2
DA:448,9
DA:449,9
DA:450,9
DA:451,9
DA:452,9
DA:455,9
DA:456,9
DA:457,9
DA:458,9
DA:459,9
DA:461,9
DA:462,2
DA:463,7
DA:467,7
DA:470,7
DA:471,7
DA:472,7
DA:475,10
DA:476,7
DA:477,0
DA:480,7
DA:482,0
DA:484,9
DA:487,2
DA:488,2
DA:489,2
DA:490,2
DA:491,1
DA:492,2
DA:493,2
DA:494,2
DA:495,2
DA:496,1
DA:500,1
DA:502,1
DA:503,1
DA:504,1
DA:505,1
DA:506,1
DA:507,1
DA:508,1
DA:509,1
DA:510,1
DA:511,1
DA:512,1
DA:513,1
DA:514,1
DA:515,1
DA:516,1
DA:517,1
DA:518,1
DA:519,1
DA:520,1
DA:521,1
DA:522,1
DA:523,1
DA:524,1
DA:525,1
DA:526,1
DA:527,0
DA:530,0
DA:533,0
DA:534,0
DA:535,0
DA:538,0
DA:539,0
DA:540,0
DA:543,0
DA:546,0
DA:547,0
DA:548,0
DA:550,0
DA:551,0
DA:552,0
DA:553,0
DA:554,0
DA:556,0
DA:558,0
DA:561,0
DA:562,0
DA:563,0
DA:564,0
DA:565,0
DA:566,0
DA:567,0
DA:568,0
DA:569,0
DA:570,2
DA:573,1
DA:574,1
DA:575,1
DA:576,1
DA:577,3
DA:578,1
DA:579,1
DA:580,1
DA:583,8
DA:584,8
DA:585,8
DA:586,8
DA:589,3
DA:590,3
DA:591,3
DA:592,3
DA:593,3
DA:594,3
DA:595,3
DA:596,8
DA:597,3
DA:598,3
DA:599,3
DA:603,28
DA:604,28
DA:605,1
DA:606,27
DA:608,27
DA:609,27
DA:610,1
DA:611,26
DA:614,78
DA:615,53
DA:616,1
DA:617,1
DA:618,1
DA:619,1
DA:620,52
DA:623,25
DA:624,28
DA:626,20
DA:627,20
DA:628,3
DA:629,2
DA:630,1
DA:631,17
DA:633,18
DA:634,3
DA:635,2
DA:636,1
DA:637,15
DA:639,16
DA:640,2
DA:641,2
DA:642,2
DA:643,3
DA:644,2
DA:645,1
DA:646,1
DA:647,14
DA:649,15
DA:650,2
DA:651,1
DA:652,1
DA:653,13
DA:655,14
DA:656,3
DA:657,2
DA:658,1
DA:659,11
DA:661,12
DA:662,20
DA:664,7
DA:665,7
DA:666,7
DA:667,7
DA:668,7
DA:669,7
DA:671,1
DA:672,1
DA:674,2
DA:675,2
DA:676,2
DA:677,1
DA:678,1
DA:682,0
DA:686,4
DA:687,4
DA:688,4
DA:690,4
DA:691,8
DA:692,8
DA:693,8
DA:694,4
DA:695,4
DA:698,0
DA:702,2
DA:703,2
DA:705,4
DA:706,4
DA:707,4
DA:708,2
DA:709,2
DA:712,0
DA:715,7
DA:717,28
DA:720,28
DA:721,28
DA:722,28
DA:724,1
DA:725,1
DA:726,1
DA:727,1
DA:730,1
DA:731,1
DA:733,1
DA:734,1
DA:735,1
DA:736,1
DA:737,1
DA:738,1
DA:740,4
DA:742,3
DA:743,3
DA:744,3
DA:745,6
DA:746,0
DA:747,0
DA:748,0
DA:749,0
DA:750,0
DA:751,3
DA:754,1
DA:755,1
DA:757,1
DA:758,1
DA:759,1
DA:760,1
DA:761,1
DA:762,1
DA:764,2
DA:765,1
DA:766,1
DA:767,1
DA:770,1
DA:771,1
DA:772,3
DA:773,3
DA:774,3
DA:776,0
DA:778,3
DA:779,1
DA:781,1
DA:782,1
DA:784,0
DA:787,1
DA:788,1
DA:789,1
DA:790,1
DA:791,1
DA:792,1
DA:793,1
DA:794,1
DA:795,1
DA:796,1
DA:800,1
DA:801,1
DA:802,1
DA:803,1
DA:804,1
DA:805,1
DA:806,1
DA:807,1
DA:808,1
DA:811,1
DA:812,1
DA:813,1
DA:814,1
DA:815,1
DA:816,1
DA:817,1
DA:818,1
DA:822,1
DA:823,1
DA:825,1
DA:826,1
DA:827,1
DA:828,1
DA:829,1
DA:830,1
DA:833,1
DA:834,1
DA:835,1
DA:836,1
DA:837,1
DA:839,1
DA:840,3
DA:841,2
DA:842,1
DA:843,1
DA:845,1
DA:846,1
DA:847,1
DA:849,1
DA:850,1
DA:851,1
DA:852,1
DA:854,1
DA:855,1
DA:856,1
DA:857,1
DA:858,1
DA:859,1
DA:860,1
DA:861,1
DA:862,1
DA:863,1
DA:864,1
DA:865,1
DA:867,1
DA:868,0
DA:870,0
DA:872,0
DA:874,1
DA:875,1
DA:877,2
DA:878,2
DA:879,2
DA:880,2
DA:881,2
DA:882,2
DA:883,2
DA:884,2
DA:885,2
DA:886,2
DA:887,2
DA:889,2
DA:890,2
DA:891,2
DA:893,2
DA:896,2
DA:898,2
DA:899,2
DA:901,0
DA:904,2
DA:905,2
DA:906,2
DA:909,2
DA:911,2
DA:912,2
DA:913,2
DA:914,2
DA:915,2
DA:916,2
DA:917,2
DA:918,2
DA:919,2
DA:920,2
DA:921,2
DA:922,2
DA:924,2
DA:925,2
DA:926,2
DA:927,2
DA:928,2
DA:929,2
DA:930,2
DA:931,2
DA:932,2
DA:934,2
DA:935,0
DA:936,0
DA:937,0
DA:938,0
DA:939,1
DA:941,1
DA:944,2
DA:946,2
DA:947,1
DA:948,1
DA:949,1
DA:950,1
DA:951,1
DA:952,1
DA:953,1
DA:955,0
DA:956,0
DA:957,0
DA:960,2
DA:961,1
DA:962,1
DA:965,2
DA:966,2
DA:967,2
DA:968,2
DA:969,2
DA:970,2
DA:971,2
DA:972,2
DA:973,2
DA:975,2
DA:976,2
DA:977,2
DA:978,2
DA:979,2
DA:980,2
DA:981,1
DA:983,1
DA:984,1
DA:985,1
DA:988,2
DA:989,2
DA:990,2
DA:991,2
DA:993,2
DA:994,2
DA:995,2
DA:996,2
DA:997,2
DA:998,2
DA:999,2
DA:1000,2
DA:1011,2
DA:1012,2
DA:1013,2
DA:1014,2
DA:1015,2
DA:1016,2
DA:1017,2
DA:1018,2
DA:1019,2
DA:1020,2
DA:1021,2
DA:1022,2
DA:1023,2
DA:1024,2
DA:1025,2
DA:1026,2
DA:1027,2
DA:1028,2
DA:1029,2
DA:1030,2
DA:1031,2
DA:1032,2
DA:1033,2
DA:1034,2
DA:1035,2
DA:1036,2
DA:1037,2
DA:1038,2
DA:1039,2
DA:1040,2
DA:1041,2
DA:1042,2
DA:1044,2
DA:1045,2
DA:1046,2
DA:1047,2
DA:1049,3
DA:1050,3
DA:1051,3
DA:1052,3
DA:1054,2
DA:1055,2
DA:1056,2
DA:1057,2
DA:1059,1
DA:1060,1
DA:1061,1
DA:1062,1
DA:1064,1
DA:1065,1
DA:1066,1
DA:1067,1
DA:1069,2
DA:1070,2
DA:1071,2
DA:1072,2
DA:1074,1
DA:1075,1
DA:1076,1
DA:1077,1
DA:1079,2
DA:1081,2
DA:1082,2
DA:1083,2
DA:1085,2
DA:1086,2
DA:1097,1
DA:1098,1
DA:1099,1
DA:1100,1
DA:1101,1
DA:1102,1
DA:1103,1
DA:1104,1
DA:1105,1
DA:1106,1
DA:1108,1
DA:1109,1
DA:1110,1
DA:1111,1
DA:1112,1
DA:1113,1
DA:1114,1
DA:1116,1
DA:1117,1
DA:1118,1
DA:1119,1
DA:1120,1
DA:1121,1
DA:1122,1
DA:1124,1
DA:1125,1
DA:1126,1
DA:1127,1
DA:1130,1
DA:1131,1
DA:1132,1
DA:1133,1
DA:1134,1
DA:1135,1
DA:1136,1
DA:1139,1
DA:1140,1
DA:1141,1
DA:1142,1
DA:1143,1
DA:1146,1
DA:1148,1
DA:1149,1
DA:1150,1
DA:1151,1
DA:1152,1
DA:1153,1
DA:1154,1
DA:1157,1
DA:1158,1
DA:1159,1
DA:1160,1
DA:1161,1
DA:1162,1
DA:1163,1
DA:1164,1
DA:1167,8
DA:1168,7
DA:1169,7
DA:1170,7
DA:1172,1
DA:1175,1
DA:1176,1
DA:1177,1
DA:1178,1
DA:1179,1
DA:1180,1
DA:1181,1
DA:1182,1
DA:1183,1
DA:1184,1
DA:1185,1
DA:1186,1
DA:1187,1
DA:1188,1
DA:1189,1
DA:1191,1
DA:1192,1
DA:1193,1
DA:1194,1
DA:1195,1
DA:1196,1
DA:1197,1
DA:1200,1
DA:1202,1
DA:1203,1
DA:1204,1
DA:1205,1
DA:1206,1
DA:1207,1
DA:1208,1
DA:1209,1
DA:1212,1
DA:1213,1
DA:1216,1
DA:1217,1
DA:1218,1
DA:1219,1
DA:1220,1
DA:1221,1
DA:1222,1
DA:1223,1
DA:1225,1
DA:1226,1
DA:1229,1
DA:1230,1
DA:1231,1
DA:1232,1
DA:1233,1
DA:1234,1
DA:1237,1
DA:1238,1
DA:1239,1
DA:1240,1
DA:1241,1
DA:1242,1
DA:1243,1
DA:1244,1
DA:1245,1
DA:1248,1
DA:1249,1
DA:1250,1
DA:1251,1
DA:1252,1
DA:1253,1
DA:1254,1
DA:1255,1
DA:1256,1
DA:1257,1
DA:1259,1
DA:1260,1
DA:1261,1
DA:1262,1
DA:1263,1
DA:1264,1
DA:1265,1
DA:1266,1
DA:1267,1
DA:1269,1
DA:1270,1
DA:1271,1
DA:1272,1
DA:1273,1
DA:1274,1
DA:1275,1
DA:1276,1
DA:1277,1
DA:1279,1
DA:1280,1
DA:1281,1
DA:1282,1
DA:1283,1
DA:1284,1
DA:1285,1
DA:1286,1
DA:1287,1
DA:1288,1
DA:1289,1
DA:1292,1
DA:1293,1
DA:1294,1
DA:1296,1
DA:1297,1
DA:1298,1
DA:1300,1
DA:1301,1
DA:1302,1
DA:1305,1
DA:1306,1
DA:1308,0
DA:1310,1
DA:1313,1
DA:1314,1
DA:1315,1
DA:1316,1
DA:1317,1
DA:1318,1
DA:1319,1
DA:1322,1
DA:1323,1
DA:1324,1
DA:1325,1
DA:1326,1
DA:1327,1
DA:1328,1
DA:1329,1
DA:1331,1
DA:1332,1
DA:1333,1
DA:1334,1
DA:1336,1
DA:1337,1
DA:1338,1
DA:1340,1
DA:1341,1
DA:1342,1
DA:1344,1
DA:1345,1
DA:1346,1
DA:1348,1
DA:1349,1
DA:1350,1
DA:1352,1
DA:1353,1
DA:1354,1
DA:1355,1
DA:1356,1
DA:1359,1
DA:1360,1
DA:1361,1
DA:1362,1
DA:1363,1
DA:1364,1
DA:1365,1
DA:1366,1
DA:1367,1
DA:1368,1
DA:1370,1
DA:1371,1
DA:1372,1
DA:1373,1
DA:1374,1
DA:1375,1
DA:1376,1
DA:1377,1
DA:1378,1
DA:1380,1
DA:1381,1
DA:1382,1
DA:1383,1
DA:1384,1
DA:1385,1
DA:1386,1
DA:1387,1
DA:1389,1
DA:1390,1
DA:1391,1
DA:1392,1
DA:1393,1
DA:1394,1
DA:1395,1
DA:1396,1
DA:1397,1
DA:1399,1
DA:1400,1
DA:1401,1
DA:1402,1
DA:1403,1
DA:1404,1
DA:1405,1
DA:1406,1
DA:1408,1
DA:1409,1
DA:1410,1
DA:1411,1
DA:1412,1
DA:1413,1
DA:1414,1
DA:1415,1
DA:1416,1
DA:1417,1
DA:1418,1
DA:1420,1
DA:1421,1
DA:1422,1
DA:1423,1
DA:1424,1
DA:1425,1
DA:1426,1
DA:1427,1
DA:1428,1
DA:1431,1
DA:1432,1
DA:1433,1
DA:1434,1
DA:1435,1
DA:1436,1
DA:1437,1
DA:1438,1
DA:1439,1
DA:1442,1
DA:1443,1
DA:1444,1
DA:1445,1
DA:1446,1
DA:1447,1
DA:1448,1
DA:1451,1
DA:1452,1
DA:1453,1
DA:1454,1
DA:1455,1
DA:1456,1
DA:1458,1
DA:1459,1
DA:1460,1
DA:1461,1
DA:1464,1
DA:1465,1
DA:1466,1
DA:1467,1
DA:1468,1
DA:1469,1
DA:1470,1
DA:1471,1
DA:1472,1
DA:1473,1
DA:1474,1
DA:1475,1
DA:1477,1
DA:1478,1
DA:1479,1
DA:1480,1
DA:1481,1
DA:1482,1
DA:1483,1
DA:1484,1
DA:1487,1
DA:1488,1
DA:1489,1
DA:1490,1
DA:1491,1
DA:1492,1
DA:1493,1
DA:1494,1
DA:1495,1
DA:1496,1
DA:1497,1
DA:1498,1
DA:1499,1
DA:1500,1
DA:1501,1
DA:1502,1
DA:1504,1
DA:1505,1
DA:1506,1
DA:1507,1
DA:1509,0
DA:1511,1
DA:1512,1
DA:1513,1
DA:1514,1
DA:1515,1
DA:1518,1
DA:1519,1
DA:1520,1
DA:1521,1
DA:1522,1
DA:1523,1
DA:1524,1
DA:1525,1
DA:1529,7
DA:1530,6
DA:1531,6
DA:1535,7
DA:1536,6
DA:1537,6
DA:1538,6
DA:1539,6
DA:1540,1
DA:1543,1
DA:1544,1
DA:1545,1
DA:1546,1
DA:1547,1
DA:1548,1
DA:1549,1
DA:1550,1
DA:1551,1
DA:1552,1
DA:1554,1
DA:1555,1
DA:1556,1
DA:1557,1
DA:1558,1
DA:1559,1
DA:1561,1
DA:1562,1
DA:1563,1
DA:1564,1
DA:1565,1
DA:1566,1
DA:1568,1
DA:1569,1
DA:1570,1
DA:1571,1
DA:1572,1
DA:1573,1
DA:1574,1
DA:1577,1
DA:1579,1
DA:1580,1
DA:1581,1
DA:1582,1
DA:1583,1
DA:1586,5
DA:1587,4
DA:1588,4
DA:1589,4
DA:1590,4
DA:1591,1
DA:1594,1
DA:1595,1
DA:1596,1
DA:1597,1
DA:1598,1
DA:1599,1
DA:1602,5
DA:1603,4
DA:1604,4
DA:1605,4
DA:1606,4
DA:1607,1
DA:1610,1
DA:1612,1
DA:1613,1
DA:1614,1
DA:1617,3
DA:1618,2
DA:1619,2
DA:1620,2
DA:1623,1
DA:1624,1
DA:1625,1
DA:1626,1
DA:1627,1
DA:1630,5
DA:1631,4
DA:1632,4
DA:1633,4
DA:1634,1
DA:1637,1
DA:1639,1
DA:1640,1
DA:1641,1
DA:1643,1
DA:1644,1
DA:1645,1
DA:1646,1
DA:1647,1
DA:1648,1
DA:1649,1
DA:1650,1
DA:1651,1
DA:1653,1
DA:1654,1
DA:1655,1
DA:1656,1
DA:1657,1
DA:1658,1
DA:1659,1
DA:1660,1
DA:1661,1
DA:1663,1
DA:1664,1
DA:1665,1
DA:1666,1
DA:1667,1
DA:1668,1
DA:1669,1
DA:1670,1
DA:1672,1
DA:1673,1
DA:1674,1
DA:1675,1
DA:1676,1
DA:1677,1
DA:1678,1
DA:1679,1
DA:1680,1
DA:1682,1
DA:1683,1
DA:1684,1
DA:1685,1
DA:1686,1
DA:1687,1
DA:1688,1
DA:1689,1
DA:1691,1
DA:1692,1
DA:1693,1
DA:1694,1
DA:1695,1
DA:1696,1
DA:1697,1
DA:1698,1
DA:1699,1
DA:1700,1
DA:1701,1
DA:1702,1
DA:1703,1
DA:1704,1
DA:1705,1
DA:1706,1
DA:1709,1
DA:1710,1
DA:1713,1
DA:1714,1
DA:1715,1
DA:1716,1
DA:1717,1
DA:1718,1
DA:1719,1
DA:1720,1
DA:1721,1
DA:1722,1
DA:1723,1
BRF:0
BRH:0
LF:1080
LH:1023
end_of_record
SF:/home/nathan/Projects/smith/shared/smith-metrics/src/ab_testing/comprehensive_tests.rs
FN:829,_RNCNvNtNtCs6Icymx2u3fr_13smith_metrics10ab_testing19comprehensive_tests19create_test_manager0B7_
FN:21,_RNCNvNtNtCs6Icymx2u3fr_13smith_metrics10ab_testing19comprehensive_tests22ensure_crypto_provider0B7_
FN:837,_RNCNvNtNtCs6Icymx2u3fr_13smith_metrics10ab_testing19comprehensive_tests24create_test_manager_sync0B7_
FN:821,_RNCNvNtNtCs6Icymx2u3fr_13smith_metrics10ab_testing19comprehensive_tests29create_mock_clickhouse_client0B7_
FN:777,_RNCNvNtNtCs6Icymx2u3fr_13smith_metrics10ab_testing19comprehensive_testss_24test_create_data_summary0B7_
FN:495,_RNCNvNtNtCs6Icymx2u3fr_13smith_metrics10ab_testing19comprehensive_testss_25test_get_experiment_found0B7_
FN:469,_RNCNvNtNtCs6Icymx2u3fr_13smith_metrics10ab_testing19comprehensive_testss_27test_get_active_experiments0B7_
FN:208,_RNCNvNtNtCs6Icymx2u3fr_13smith_metrics10ab_testing19comprehensive_testss_28test_stop_experiment_success0B7_
FN:508,_RNCNvNtNtCs6Icymx2u3fr_13smith_metrics10ab_testing19comprehensive_testss_29test_get_experiment_not_found0B7_
FN:140,_RNCNvNtNtCs6Icymx2u3fr_13smith_metrics10ab_testing19comprehensive_testss_29test_start_experiment_success0B7_
FN:580,_RNCNvNtNtCs6Icymx2u3fr_13smith_metrics10ab_testing19comprehensive_testss_30test_calculate_variant_results0B7_
FN:42,_RNCNvNtNtCs6Icymx2u3fr_13smith_metrics10ab_testing19comprehensive_testss_30test_create_experiment_success0B7_
FN:229,_RNCNvNtNtCs6Icymx2u3fr_13smith_metrics10ab_testing19comprehensive_testss_30test_stop_experiment_not_found0B7_
FN:515,_RNCNvNtNtCs6Icymx2u3fr_13smith_metrics10ab_testing19comprehensive_testss_31test_list_experiments_no_filter0B7_
FN:183,_RNCNvNtNtCs6Icymx2u3fr_13smith_metrics10ab_testing19comprehensive_testss_31test_start_experiment_not_found0B7_
FN:29,_RNCNvNtNtCs6Icymx2u3fr_13smith_metrics10ab_testing19comprehensive_testss_32test_ab_testing_manager_creation0B7_
FN:398,_RNCNvNtNtCs6Icymx2u3fr_13smith_metrics10ab_testing19comprehensive_testss_32test_matches_task_filter_domains0B7_
FN:460,_RNCNvNtNtCs6Icymx2u3fr_13smith_metrics10ab_testing19comprehensive_testss_33test_analyze_experiment_not_found0B7_
FN:155,_RNCNvNtNtCs6Icymx2u3fr_13smith_metrics10ab_testing19comprehensive_testss_33test_start_experiment_from_paused0B7_
FN:383,_RNCNvNtNtCs6Icymx2u3fr_13smith_metrics10ab_testing19comprehensive_testss_34test_matches_task_filter_languages0B7_
FN:349,_RNCNvNtNtCs6Icymx2u3fr_13smith_metrics10ab_testing19comprehensive_testss_34test_matches_task_filter_repo_size0B7_
FN:412,_RNCNvNtNtCs6Icymx2u3fr_13smith_metrics10ab_testing19comprehensive_testss_35test_matches_task_filter_complexity0B7_
FN:366,_RNCNvNtNtCs6Icymx2u3fr_13smith_metrics10ab_testing19comprehensive_testss_35test_matches_task_filter_file_count0B7_
FN:170,_RNCNvNtNtCs6Icymx2u3fr_13smith_metrics10ab_testing19comprehensive_testss_35test_start_experiment_not_startable0B7_
FN:238,_RNCNvNtNtCs6Icymx2u3fr_13smith_metrics10ab_testing19comprehensive_testss_36test_allocate_variant_no_experiments0B7_
FN:59,_RNCNvNtNtCs6Icymx2u3fr_13smith_metrics10ab_testing19comprehensive_testss_36test_create_experiment_with_defaults0B7_
FN:610,_RNCNvNtNtCs6Icymx2u3fr_13smith_metrics10ab_testing19comprehensive_testss_36test_perform_statistical_comparisons0B7_
FN:96,_RNCNvNtNtCs6Icymx2u3fr_13smith_metrics10ab_testing19comprehensive_testss_36test_validate_experiment_no_variants0B7_
FN:260,_RNCNvNtNtCs6Icymx2u3fr_13smith_metrics10ab_testing19comprehensive_testss_37test_allocate_variant_random_strategy0B7_
FN:668,_RNCNvNtNtCs6Icymx2u3fr_13smith_metrics10ab_testing19comprehensive_testss_37test_calculate_statistical_comparison0B7_
FN:802,_RNCNvNtNtCs6Icymx2u3fr_13smith_metrics10ab_testing19comprehensive_testss_37test_create_data_summary_empty_events0B7_
FN:711,_RNCNvNtNtCs6Icymx2u3fr_13smith_metrics10ab_testing19comprehensive_testss_37test_generate_conclusions_with_winner0B7_
FN:192,_RNCNvNtNtCs6Icymx2u3fr_13smith_metrics10ab_testing19comprehensive_testss_39test_start_experiment_future_start_time0B7_
FN:529,_RNCNvNtNtCs6Icymx2u3fr_13smith_metrics10ab_testing19comprehensive_testss_40test_list_experiments_with_status_filter0B7_
FN:332,_RNCNvNtNtCs6Icymx2u3fr_13smith_metrics10ab_testing19comprehensive_testss_41test_allocate_variant_contextual_strategy0B7_
FN:279,_RNCNvNtNtCs6Icymx2u3fr_13smith_metrics10ab_testing19comprehensive_testss_41test_allocate_variant_hash_based_strategy0B7_
FN:429,_RNCNvNtNtCs6Icymx2u3fr_13smith_metrics10ab_testing19comprehensive_testss_41test_analyze_experiment_insufficient_data0B7_
FN:317,_RNCNvNtNtCs6Icymx2u3fr_13smith_metrics10ab_testing19comprehensive_testss_42test_allocate_variant_round_robin_strategy0B7_
FN:78,_RNCNvNtNtCs6Icymx2u3fr_13smith_metrics10ab_testing19comprehensive_testss_45test_create_experiment_max_concurrent_reached0B7_
FN:297,_RNCNvNtNtCs6Icymx2u3fr_13smith_metrics10ab_testing19comprehensive_testss_46test_allocate_variant_hash_based_deterministic0B7_
FN:120,_RNCNvNtNtCs6Icymx2u3fr_13smith_metrics10ab_testing19comprehensive_testss_46test_validate_experiment_variant_no_allocation0B7_
FN:247,_RNCNvNtNtCs6Icymx2u3fr_13smith_metrics10ab_testing19comprehensive_testss_47test_allocate_variant_no_applicable_experiments0B7_
FN:107,_RNCNvNtNtCs6Icymx2u3fr_13smith_metrics10ab_testing19comprehensive_testss_47test_validate_experiment_allocation_sum_not_one0B7_
FN:745,_RNCNvNtNtCs6Icymx2u3fr_13smith_metrics10ab_testing19comprehensive_testss_52test_generate_conclusions_no_significant_improvement0B7_
FN:829,_RNvNtNtCs6Icymx2u3fr_13smith_metrics10ab_testing19comprehensive_tests19create_test_manager
FN:947,_RNvNtNtCs6Icymx2u3fr_13smith_metrics10ab_testing19comprehensive_tests22create_benchmark_event
FN:844,_RNvNtNtCs6Icymx2u3fr_13smith_metrics10ab_testing19comprehensive_tests22create_test_experiment
FN:20,_RNvNtNtCs6Icymx2u3fr_13smith_metrics10ab_testing19comprehensive_tests22ensure_crypto_provider
FN:918,_RNvNtNtCs6Icymx2u3fr_13smith_metrics10ab_testing19comprehensive_tests23create_test_task_filter
FN:835,_RNvNtNtCs6Icymx2u3fr_13smith_metrics10ab_testing19comprehensive_tests24create_test_manager_sync
FN:929,_RNvNtNtCs6Icymx2u3fr_13smith_metrics10ab_testing19comprehensive_tests25create_test_task_features
FN:906,_RNvNtNtCs6Icymx2u3fr_13smith_metrics10ab_testing19comprehensive_tests26create_test_success_metric
FN:1003,_RNvNtNtCs6Icymx2u3fr_13smith_metrics10ab_testing19comprehensive_tests29create_failed_benchmark_event
FN:821,_RNvNtNtCs6Icymx2u3fr_13smith_metrics10ab_testing19comprehensive_tests29create_mock_clickhouse_client
FN:848,_RNvNtNtCs6Icymx2u3fr_13smith_metrics10ab_testing19comprehensive_tests30create_test_experiment_with_id
FN:975,_RNvNtNtCs6Icymx2u3fr_13smith_metrics10ab_testing19comprehensive_tests33create_successful_benchmark_event
FN:896,_RNvNtNtCs6Icymx2u3fr_13smith_metrics10ab_testing19comprehensive_tests35create_test_experiment_with_control
FN:777,_RNvNtNtCs6Icymx2u3fr_13smith_metrics10ab_testing19comprehensive_testss_24test_create_data_summary
FN:495,_RNvNtNtCs6Icymx2u3fr_13smith_metrics10ab_testing19comprehensive_testss_25test_get_experiment_found
FN:469,_RNvNtNtCs6Icymx2u3fr_13smith_metrics10ab_testing19comprehensive_testss_27test_get_active_experiments
FN:558,_RNvNtNtCs6Icymx2u3fr_13smith_metrics10ab_testing19comprehensive_testss_28test_group_events_by_variant
FN:208,_RNvNtNtCs6Icymx2u3fr_13smith_metrics10ab_testing19comprehensive_testss_28test_stop_experiment_success
FN:508,_RNvNtNtCs6Icymx2u3fr_13smith_metrics10ab_testing19comprehensive_testss_29test_get_experiment_not_found
FN:140,_RNvNtNtCs6Icymx2u3fr_13smith_metrics10ab_testing19comprehensive_testss_29test_start_experiment_success
FN:580,_RNvNtNtCs6Icymx2u3fr_13smith_metrics10ab_testing19comprehensive_testss_30test_calculate_variant_results
FN:42,_RNvNtNtCs6Icymx2u3fr_13smith_metrics10ab_testing19comprehensive_testss_30test_create_experiment_success
FN:229,_RNvNtNtCs6Icymx2u3fr_13smith_metrics10ab_testing19comprehensive_testss_30test_stop_experiment_not_found
FN:515,_RNvNtNtCs6Icymx2u3fr_13smith_metrics10ab_testing19comprehensive_testss_31test_list_experiments_no_filter
FN:183,_RNvNtNtCs6Icymx2u3fr_13smith_metrics10ab_testing19comprehensive_testss_31test_start_experiment_not_found
FN:29,_RNvNtNtCs6Icymx2u3fr_13smith_metrics10ab_testing19comprehensive_testss_32test_ab_testing_manager_creation
FN:398,_RNvNtNtCs6Icymx2u3fr_13smith_metrics10ab_testing19comprehensive_testss_32test_matches_task_filter_domains
FN:460,_RNvNtNtCs6Icymx2u3fr_13smith_metrics10ab_testing19comprehensive_testss_33test_analyze_experiment_not_found
FN:155,_RNvNtNtCs6Icymx2u3fr_13smith_metrics10ab_testing19comprehensive_testss_33test_start_experiment_from_paused
FN:383,_RNvNtNtCs6Icymx2u3fr_13smith_metrics10ab_testing19comprehensive_testss_34test_matches_task_filter_languages
FN:349,_RNvNtNtCs6Icymx2u3fr_13smith_metrics10ab_testing19comprehensive_testss_34test_matches_task_filter_repo_size
FN:412,_RNvNtNtCs6Icymx2u3fr_13smith_metrics10ab_testing19comprehensive_testss_35test_matches_task_filter_complexity
FN:366,_RNvNtNtCs6Icymx2u3fr_13smith_metrics10ab_testing19comprehensive_testss_35test_matches_task_filter_file_count
FN:170,_RNvNtNtCs6Icymx2u3fr_13smith_metrics10ab_testing19comprehensive_testss_35test_start_experiment_not_startable
FN:238,_RNvNtNtCs6Icymx2u3fr_13smith_metrics10ab_testing19comprehensive_testss_36test_allocate_variant_no_experiments
FN:59,_RNvNtNtCs6Icymx2u3fr_13smith_metrics10ab_testing19comprehensive_testss_36test_create_experiment_with_defaults
FN:610,_RNvNtNtCs6Icymx2u3fr_13smith_metrics10ab_testing19comprehensive_testss_36test_perform_statistical_comparisons
FN:96,_RNvNtNtCs6Icymx2u3fr_13smith_metrics10ab_testing19comprehensive_testss_36test_validate_experiment_no_variants
FN:260,_RNvNtNtCs6Icymx2u3fr_13smith_metrics10ab_testing19comprehensive_testss_37test_allocate_variant_random_strategy
FN:668,_RNvNtNtCs6Icymx2u3fr_13smith_metrics10ab_testing19comprehensive_testss_37test_calculate_statistical_comparison
FN:802,_RNvNtNtCs6Icymx2u3fr_13smith_metrics10ab_testing19comprehensive_testss_37test_create_data_summary_empty_events
FN:711,_RNvNtNtCs6Icymx2u3fr_13smith_metrics10ab_testing19comprehensive_testss_37test_generate_conclusions_with_winner
FN:192,_RNvNtNtCs6Icymx2u3fr_13smith_metrics10ab_testing19comprehensive_testss_39test_start_experiment_future_start_time
FN:529,_RNvNtNtCs6Icymx2u3fr_13smith_metrics10ab_testing19comprehensive_testss_40test_list_experiments_with_status_filter
FN:332,_RNvNtNtCs6Icymx2u3fr_13smith_metrics10ab_testing19comprehensive_testss_41test_allocate_variant_contextual_strategy
FN:279,_RNvNtNtCs6Icymx2u3fr_13smith_metrics10ab_testing19comprehensive_testss_41test_allocate_variant_hash_based_strategy
FN:429,_RNvNtNtCs6Icymx2u3fr_13smith_metrics10ab_testing19comprehensive_testss_41test_analyze_experiment_insufficient_data
FN:317,_RNvNtNtCs6Icymx2u3fr_13smith_metrics10ab_testing19comprehensive_testss_42test_allocate_variant_round_robin_strategy
FN:78,_RNvNtNtCs6Icymx2u3fr_13smith_metrics10ab_testing19comprehensive_testss_45test_create_experiment_max_concurrent_reached
FN:297,_RNvNtNtCs6Icymx2u3fr_13smith_metrics10ab_testing19comprehensive_testss_46test_allocate_variant_hash_based_deterministic
FN:120,_RNvNtNtCs6Icymx2u3fr_13smith_metrics10ab_testing19comprehensive_testss_46test_validate_experiment_variant_no_allocation
FN:247,_RNvNtNtCs6Icymx2u3fr_13smith_metrics10ab_testing19comprehensive_testss_47test_allocate_variant_no_applicable_experiments
FN:107,_RNvNtNtCs6Icymx2u3fr_13smith_metrics10ab_testing19comprehensive_testss_47test_validate_experiment_allocation_sum_not_one
FN:745,_RNvNtNtCs6Icymx2u3fr_13smith_metrics10ab_testing19comprehensive_testss_52test_generate_conclusions_no_significant_improvement
FNDA:38,_RNCNvNtNtCs6Icymx2u3fr_13smith_metrics10ab_testing19comprehensive_tests19create_test_manager0B7_
FNDA:1,_RNCNvNtNtCs6Icymx2u3fr_13smith_metrics10ab_testing19comprehensive_tests22ensure_crypto_provider0B7_
FNDA:1,_RNCNvNtNtCs6Icymx2u3fr_13smith_metrics10ab_testing19comprehensive_tests24create_test_manager_sync0B7_
FNDA:41,_RNCNvNtNtCs6Icymx2u3fr_13smith_metrics10ab_testing19comprehensive_tests29create_mock_clickhouse_client0B7_
FNDA:1,_RNCNvNtNtCs6Icymx2u3fr_13smith_metrics10ab_testing19comprehensive_testss_24test_create_data_summary0B7_
FNDA:1,_RNCNvNtNtCs6Icymx2u3fr_13smith_metrics10ab_testing19comprehensive_testss_25test_get_experiment_found0B7_
FNDA:1,_RNCNvNtNtCs6Icymx2u3fr_13smith_metrics10ab_testing19comprehensive_testss_27test_get_active_experiments0B7_
FNDA:1,_RNCNvNtNtCs6Icymx2u3fr_13smith_metrics10ab_testing19comprehensive_testss_28test_stop_experiment_success0B7_
FNDA:1,_RNCNvNtNtCs6Icymx2u3fr_13smith_metrics10ab_testing19comprehensive_testss_29test_get_experiment_not_found0B7_
FNDA:1,_RNCNvNtNtCs6Icymx2u3fr_13smith_metrics10ab_testing19comprehensive_testss_29test_start_experiment_success0B7_
FNDA:1,_RNCNvNtNtCs6Icymx2u3fr_13smith_metrics10ab_testing19comprehensive_testss_30test_calculate_variant_results0B7_
FNDA:1,_RNCNvNtNtCs6Icymx2u3fr_13smith_metrics10ab_testing19comprehensive_testss_30test_create_experiment_success0B7_
FNDA:1,_RNCNvNtNtCs6Icymx2u3fr_13smith_metrics10ab_testing19comprehensive_testss_30test_stop_experiment_not_found0B7_
FNDA:1,_RNCNvNtNtCs6Icymx2u3fr_13smith_metrics10ab_testing19comprehensive_testss_31test_list_experiments_no_filter0B7_
FNDA:1,_RNCNvNtNtCs6Icymx2u3fr_13smith_metrics10ab_testing19comprehensive_testss_31test_start_experiment_not_found0B7_
FNDA:1,_RNCNvNtNtCs6Icymx2u3fr_13smith_metrics10ab_testing19comprehensive_testss_32test_ab_testing_manager_creation0B7_
FNDA:1,_RNCNvNtNtCs6Icymx2u3fr_13smith_metrics10ab_testing19comprehensive_testss_32test_matches_task_filter_domains0B7_
FNDA:1,_RNCNvNtNtCs6Icymx2u3fr_13smith_metrics10ab_testing19comprehensive_testss_33test_analyze_experiment_not_found0B7_
FNDA:1,_RNCNvNtNtCs6Icymx2u3fr_13smith_metrics10ab_testing19comprehensive_testss_33test_start_experiment_from_paused0B7_
FNDA:1,_RNCNvNtNtCs6Icymx2u3fr_13smith_metrics10ab_testing19comprehensive_testss_34test_matches_task_filter_languages0B7_
FNDA:1,_RNCNvNtNtCs6Icymx2u3fr_13smith_metrics10ab_testing19comprehensive_testss_34test_matches_task_filter_repo_size0B7_
FNDA:1,_RNCNvNtNtCs6Icymx2u3fr_13smith_metrics10ab_testing19comprehensive_testss_35test_matches_task_filter_complexity0B7_
FNDA:1,_RNCNvNtNtCs6Icymx2u3fr_13smith_metrics10ab_testing19comprehensive_testss_35test_matches_task_filter_file_count0B7_
FNDA:1,_RNCNvNtNtCs6Icymx2u3fr_13smith_metrics10ab_testing19comprehensive_testss_35test_start_experiment_not_startable0B7_
FNDA:1,_RNCNvNtNtCs6Icymx2u3fr_13smith_metrics10ab_testing19comprehensive_testss_36test_allocate_variant_no_experiments0B7_
FNDA:1,_RNCNvNtNtCs6Icymx2u3fr_13smith_metrics10ab_testing19comprehensive_testss_36test_create_experiment_with_defaults0B7_
FNDA:1,_RNCNvNtNtCs6Icymx2u3fr_13smith_metrics10ab_testing19comprehensive_testss_36test_perform_statistical_comparisons0B7_
FNDA:1,_RNCNvNtNtCs6Icymx2u3fr_13smith_metrics10ab_testing19comprehensive_testss_36test_validate_experiment_no_variants0B7_
FNDA:1,_RNCNvNtNtCs6Icymx2u3fr_13smith_metrics10ab_testing19comprehensive_testss_37test_allocate_variant_random_strategy0B7_
FNDA:1,_RNCNvNtNtCs6Icymx2u3fr_13smith_metrics10ab_testing19comprehensive_testss_37test_calculate_statistical_comparison0B7_
FNDA:1,_RNCNvNtNtCs6Icymx2u3fr_13smith_metrics10ab_testing19comprehensive_testss_37test_create_data_summary_empty_events0B7_
FNDA:1,_RNCNvNtNtCs6Icymx2u3fr_13smith_metrics10ab_testing19comprehensive_testss_37test_generate_conclusions_with_winner0B7_
FNDA:1,_RNCNvNtNtCs6Icymx2u3fr_13smith_metrics10ab_testing19comprehensive_testss_39test_start_experiment_future_start_time0B7_
FNDA:1,_RNCNvNtNtCs6Icymx2u3fr_13smith_metrics10ab_testing19comprehensive_testss_40test_list_experiments_with_status_filter0B7_
FNDA:1,_RNCNvNtNtCs6Icymx2u3fr_13smith_metrics10ab_testing19comprehensive_testss_41test_allocate_variant_contextual_strategy0B7_
FNDA:1,_RNCNvNtNtCs6Icymx2u3fr_13smith_metrics10ab_testing19comprehensive_testss_41test_allocate_variant_hash_based_strategy0B7_
FNDA:1,_RNCNvNtNtCs6Icymx2u3fr_13smith_metrics10ab_testing19comprehensive_testss_41test_analyze_experiment_insufficient_data0B7_
FNDA:1,_RNCNvNtNtCs6Icymx2u3fr_13smith_metrics10ab_testing19comprehensive_testss_42test_allocate_variant_round_robin_strategy0B7_
FNDA:1,_RNCNvNtNtCs6Icymx2u3fr_13smith_metrics10ab_testing19comprehensive_testss_45test_create_experiment_max_concurrent_reached0B7_
FNDA:1,_RNCNvNtNtCs6Icymx2u3fr_13smith_metrics10ab_testing19comprehensive_testss_46test_allocate_variant_hash_based_deterministic0B7_
FNDA:1,_RNCNvNtNtCs6Icymx2u3fr_13smith_metrics10ab_testing19comprehensive_testss_46test_validate_experiment_variant_no_allocation0B7_
FNDA:1,_RNCNvNtNtCs6Icymx2u3fr_13smith_metrics10ab_testing19comprehensive_testss_47test_allocate_variant_no_applicable_experiments0B7_
FNDA:1,_RNCNvNtNtCs6Icymx2u3fr_13smith_metrics10ab_testing19comprehensive_testss_47test_validate_experiment_allocation_sum_not_one0B7_
FNDA:1,_RNCNvNtNtCs6Icymx2u3fr_13smith_metrics10ab_testing19comprehensive_testss_52test_generate_conclusions_no_significant_improvement0B7_
FNDA:38,_RNvNtNtCs6Icymx2u3fr_13smith_metrics10ab_testing19comprehensive_tests19create_test_manager
FNDA:5,_RNvNtNtCs6Icymx2u3fr_13smith_metrics10ab_testing19comprehensive_tests22create_benchmark_event
FNDA:24,_RNvNtNtCs6Icymx2u3fr_13smith_metrics10ab_testing19comprehensive_tests22create_test_experiment
FNDA:41,_RNvNtNtCs6Icymx2u3fr_13smith_metrics10ab_testing19comprehensive_tests22ensure_crypto_provider
FNDA:38,_RNvNtNtCs6Icymx2u3fr_13smith_metrics10ab_testing19comprehensive_tests23create_test_task_filter
FNDA:1,_RNvNtNtCs6Icymx2u3fr_13smith_metrics10ab_testing19comprehensive_tests24create_test_manager_sync
FNDA:12,_RNvNtNtCs6Icymx2u3fr_13smith_metrics10ab_testing19comprehensive_tests25create_test_task_features
FNDA:33,_RNvNtNtCs6Icymx2u3fr_13smith_metrics10ab_testing19comprehensive_tests26create_test_success_metric
FNDA:1,_RNvNtNtCs6Icymx2u3fr_13smith_metrics10ab_testing19comprehensive_tests29create_failed_benchmark_event
FNDA:41,_RNvNtNtCs6Icymx2u3fr_13smith_metrics10ab_testing19comprehensive_tests29create_mock_clickhouse_client
FNDA:33,_RNvNtNtCs6Icymx2u3fr_13smith_metrics10ab_testing19comprehensive_tests30create_test_experiment_with_id
FNDA:2,_RNvNtNtCs6Icymx2u3fr_13smith_metrics10ab_testing19comprehensive_tests33create_successful_benchmark_event
FNDA:1,_RNvNtNtCs6Icymx2u3fr_13smith_metrics10ab_testing19comprehensive_tests35create_test_experiment_with_control
FNDA:1,_RNvNtNtCs6Icymx2u3fr_13smith_metrics10ab_testing19comprehensive_testss_24test_create_data_summary
FNDA:1,_RNvNtNtCs6Icymx2u3fr_13smith_metrics10ab_testing19comprehensive_testss_25test_get_experiment_found
FNDA:1,_RNvNtNtCs6Icymx2u3fr_13smith_metrics10ab_testing19comprehensive_testss_27test_get_active_experiments
FNDA:1,_RNvNtNtCs6Icymx2u3fr_13smith_metrics10ab_testing19comprehensive_testss_28test_group_events_by_variant
FNDA:1,_RNvNtNtCs6Icymx2u3fr_13smith_metrics10ab_testing19comprehensive_testss_28test_stop_experiment_success
FNDA:1,_RNvNtNtCs6Icymx2u3fr_13smith_metrics10ab_testing19comprehensive_testss_29test_get_experiment_not_found
FNDA:1,_RNvNtNtCs6Icymx2u3fr_13smith_metrics10ab_testing19comprehensive_testss_29test_start_experiment_success
FNDA:1,_RNvNtNtCs6Icymx2u3fr_13smith_metrics10ab_testing19comprehensive_testss_30test_calculate_variant_results
FNDA:1,_RNvNtNtCs6Icymx2u3fr_13smith_metrics10ab_testing19comprehensive_testss_30test_create_experiment_success
FNDA:1,_RNvNtNtCs6Icymx2u3fr_13smith_metrics10ab_testing19comprehensive_testss_30test_stop_experiment_not_found
FNDA:1,_RNvNtNtCs6Icymx2u3fr_13smith_metrics10ab_testing19comprehensive_testss_31test_list_experiments_no_filter
FNDA:1,_RNvNtNtCs6Icymx2u3fr_13smith_metrics10ab_testing19comprehensive_testss_31test_start_experiment_not_found
FNDA:1,_RNvNtNtCs6Icymx2u3fr_13smith_metrics10ab_testing19comprehensive_testss_32test_ab_testing_manager_creation
FNDA:1,_RNvNtNtCs6Icymx2u3fr_13smith_metrics10ab_testing19comprehensive_testss_32test_matches_task_filter_domains
FNDA:1,_RNvNtNtCs6Icymx2u3fr_13smith_metrics10ab_testing19comprehensive_testss_33test_analyze_experiment_not_found
FNDA:1,_RNvNtNtCs6Icymx2u3fr_13smith_metrics10ab_testing19comprehensive_testss_33test_start_experiment_from_paused
FNDA:1,_RNvNtNtCs6Icymx2u3fr_13smith_metrics10ab_testing19comprehensive_testss_34test_matches_task_filter_languages
FNDA:1,_RNvNtNtCs6Icymx2u3fr_13smith_metrics10ab_testing19comprehensive_testss_34test_matches_task_filter_repo_size
FNDA:1,_RNvNtNtCs6Icymx2u3fr_13smith_metrics10ab_testing19comprehensive_testss_35test_matches_task_filter_complexity
FNDA:1,_RNvNtNtCs6Icymx2u3fr_13smith_metrics10ab_testing19comprehensive_testss_35test_matches_task_filter_file_count
FNDA:1,_RNvNtNtCs6Icymx2u3fr_13smith_metrics10ab_testing19comprehensive_testss_35test_start_experiment_not_startable
FNDA:1,_RNvNtNtCs6Icymx2u3fr_13smith_metrics10ab_testing19comprehensive_testss_36test_allocate_variant_no_experiments
FNDA:1,_RNvNtNtCs6Icymx2u3fr_13smith_metrics10ab_testing19comprehensive_testss_36test_create_experiment_with_defaults
FNDA:1,_RNvNtNtCs6Icymx2u3fr_13smith_metrics10ab_testing19comprehensive_testss_36test_perform_statistical_comparisons
FNDA:1,_RNvNtNtCs6Icymx2u3fr_13smith_metrics10ab_testing19comprehensive_testss_36test_validate_experiment_no_variants
FNDA:1,_RNvNtNtCs6Icymx2u3fr_13smith_metrics10ab_testing19comprehensive_testss_37test_allocate_variant_random_strategy
FNDA:1,_RNvNtNtCs6Icymx2u3fr_13smith_metrics10ab_testing19comprehensive_testss_37test_calculate_statistical_comparison
FNDA:1,_RNvNtNtCs6Icymx2u3fr_13smith_metrics10ab_testing19comprehensive_testss_37test_create_data_summary_empty_events
FNDA:1,_RNvNtNtCs6Icymx2u3fr_13smith_metrics10ab_testing19comprehensive_testss_37test_generate_conclusions_with_winner
FNDA:1,_RNvNtNtCs6Icymx2u3fr_13smith_metrics10ab_testing19comprehensive_testss_39test_start_experiment_future_start_time
FNDA:1,_RNvNtNtCs6Icymx2u3fr_13smith_metrics10ab_testing19comprehensive_testss_40test_list_experiments_with_status_filter
FNDA:1,_RNvNtNtCs6Icymx2u3fr_13smith_metrics10ab_testing19comprehensive_testss_41test_allocate_variant_contextual_strategy
FNDA:1,_RNvNtNtCs6Icymx2u3fr_13smith_metrics10ab_testing19comprehensive_testss_41test_allocate_variant_hash_based_strategy
FNDA:1,_RNvNtNtCs6Icymx2u3fr_13smith_metrics10ab_testing19comprehensive_testss_41test_analyze_experiment_insufficient_data
FNDA:1,_RNvNtNtCs6Icymx2u3fr_13smith_metrics10ab_testing19comprehensive_testss_42test_allocate_variant_round_robin_strategy
FNDA:1,_RNvNtNtCs6Icymx2u3fr_13smith_metrics10ab_testing19comprehensive_testss_45test_create_experiment_max_concurrent_reached
FNDA:1,_RNvNtNtCs6Icymx2u3fr_13smith_metrics10ab_testing19comprehensive_testss_46test_allocate_variant_hash_based_deterministic
FNDA:1,_RNvNtNtCs6Icymx2u3fr_13smith_metrics10ab_testing19comprehensive_testss_46test_validate_experiment_variant_no_allocation
FNDA:1,_RNvNtNtCs6Icymx2u3fr_13smith_metrics10ab_testing19comprehensive_testss_47test_allocate_variant_no_applicable_experiments
FNDA:1,_RNvNtNtCs6Icymx2u3fr_13smith_metrics10ab_testing19comprehensive_testss_47test_validate_experiment_allocation_sum_not_one
FNDA:1,_RNvNtNtCs6Icymx2u3fr_13smith_metrics10ab_testing19comprehensive_testss_52test_generate_conclusions_no_significant_improvement
FNF:98
FNH:98
DA:20,41
DA:21,41
DA:22,1
DA:23,1
DA:24,41
DA:29,1
DA:30,1
DA:31,1
DA:32,1
DA:35,1
DA:36,1
DA:37,1
DA:38,1
DA:39,1
DA:42,1
DA:43,1
DA:44,1
DA:46,1
DA:47,1
DA:49,1
DA:50,1
DA:53,1
DA:54,1
DA:55,1
DA:56,1
DA:59,1
DA:60,1
DA:61,1
DA:62,1
DA:63,1
DA:64,1
DA:66,1
DA:67,1
DA:69,1
DA:70,1
DA:72,1
DA:73,1
DA:74,1
DA:75,1
DA:78,1
DA:79,1
DA:80,1
DA:81,1
DA:84,1
DA:85,1
DA:86,1
DA:89,1
DA:90,1
DA:91,1
DA:92,1
DA:93,1
DA:96,1
DA:97,1
DA:98,1
DA:99,1
DA:101,1
DA:102,1
DA:103,1
DA:104,1
DA:107,1
DA:108,1
DA:109,1
DA:110,1
DA:111,1
DA:114,1
DA:115,1
DA:116,1
DA:117,1
DA:120,1
DA:121,1
DA:122,1
DA:123,1
DA:124,1
DA:125,1
DA:126,1
DA:127,1
DA:128,1
DA:129,1
DA:130,1
DA:131,1
DA:134,1
DA:135,1
DA:136,1
DA:137,1
DA:140,1
DA:141,1
DA:142,1
DA:143,1
DA:145,1
DA:146,1
DA:148,1
DA:150,1
DA:151,1
DA:152,1
DA:155,1
DA:156,1
DA:157,1
DA:158,1
DA:160,1
DA:161,1
DA:163,1
DA:165,1
DA:166,1
DA:167,1
DA:170,1
DA:171,1
DA:172,1
DA:173,1
DA:175,1
DA:176,1
DA:178,1
DA:179,1
DA:180,1
DA:183,1
DA:184,1
DA:185,1
DA:187,1
DA:188,1
DA:189,1
DA:192,1
DA:193,1
DA:194,1
DA:195,1
DA:196,1
DA:198,1
DA:199,1
DA:201,1
DA:203,1
DA:204,1
DA:205,1
DA:208,1
DA:209,1
DA:210,1
DA:211,1
DA:213,1
DA:214,1
DA:216,1
DA:218,1
DA:219,1
DA:220,1
DA:221,1
DA:222,1
DA:223,1
DA:224,1
DA:225,1
DA:226,1
DA:229,1
DA:230,1
DA:231,1
DA:233,1
DA:234,1
DA:235,1
DA:238,1
DA:239,1
DA:240,1
DA:242,1
DA:243,1
DA:244,1
DA:247,1
DA:248,1
DA:249,1
DA:250,1
DA:252,1
DA:254,1
DA:255,1
DA:256,1
DA:257,1
DA:260,1
DA:261,1
DA:262,1
DA:263,1
DA:264,1
DA:266,1
DA:268,1
DA:269,1
DA:271,1
DA:272,1
DA:274,1
DA:275,1
DA:276,1
DA:279,1
DA:280,1
DA:281,1
DA:282,1
DA:283,1
DA:285,1
DA:287,1
DA:288,1
DA:290,1
DA:291,1
DA:292,1
DA:293,1
DA:294,1
DA:297,1
DA:298,1
DA:299,1
DA:300,1
DA:301,1
DA:303,1
DA:305,1
DA:308,1
DA:309,1
DA:310,1
DA:312,1
DA:313,1
DA:314,1
DA:317,1
DA:318,1
DA:319,1
DA:320,1
DA:321,1
DA:323,1
DA:325,1
DA:326,1
DA:328,1
DA:329,1
DA:332,1
DA:333,1
DA:334,1
DA:335,1
DA:336,1
DA:337,1
DA:338,1
DA:340,1
DA:342,1
DA:343,1
DA:345,1
DA:346,1
DA:349,1
DA:350,1
DA:351,1
DA:352,1
DA:354,1
DA:355,1
DA:356,1
DA:358,1
DA:359,1
DA:361,1
DA:362,1
DA:363,1
DA:366,1
DA:367,1
DA:368,1
DA:369,1
DA:371,1
DA:372,1
DA:373,1
DA:375,1
DA:376,1
DA:378,1
DA:379,1
DA:380,1
DA:383,1
DA:384,1
DA:385,1
DA:386,1
DA:388,1
DA:389,1
DA:390,1
DA:392,1
DA:393,1
DA:394,1
DA:395,1
DA:398,1
DA:399,1
DA:400,1
DA:401,1
DA:403,1
DA:404,1
DA:405,1
DA:407,1
DA:408,1
DA:409,1
DA:412,1
DA:413,1
DA:414,1
DA:415,1
DA:417,1
DA:418,1
DA:419,1
DA:421,1
DA:422,1
DA:424,1
DA:425,1
DA:426,1
DA:429,1
DA:430,1
DA:431,1
DA:432,1
DA:434,1
DA:435,1
DA:437,1
DA:438,1
DA:441,1
DA:442,1
DA:443,1
DA:444,0
DA:447,1
DA:448,1
DA:449,1
DA:450,1
DA:452,1
DA:453,1
DA:454,1
DA:455,1
DA:456,1
DA:457,1
DA:460,1
DA:461,1
DA:462,1
DA:464,1
DA:465,1
DA:466,1
DA:469,1
DA:470,1
DA:473,1
DA:474,1
DA:476,1
DA:477,1
DA:479,1
DA:480,1
DA:482,1
DA:483,1
DA:484,1
DA:486,1
DA:487,1
DA:489,3
DA:490,2
DA:491,1
DA:492,1
DA:495,1
DA:496,1
DA:497,1
DA:498,1
DA:500,1
DA:502,1
DA:503,1
DA:504,1
DA:505,1
DA:508,1
DA:509,1
DA:510,1
DA:511,1
DA:512,1
DA:515,1
DA:516,1
DA:518,1
DA:519,1
DA:521,1
DA:522,1
DA:524,1
DA:525,1
DA:526,1
DA:529,1
DA:530,1
DA:532,1
DA:533,1
DA:535,1
DA:536,1
DA:538,1
DA:539,1
DA:541,1
DA:542,1
DA:543,1
DA:545,1
DA:546,1
DA:548,3
DA:549,2
DA:552,1
DA:553,1
DA:554,1
DA:555,1
DA:558,1
DA:559,1
DA:560,1
DA:562,1
DA:563,1
DA:564,1
DA:565,1
DA:568,1
DA:571,1
DA:573,1
DA:574,0
DA:575,0
DA:577,1
DA:580,1
DA:581,1
DA:582,1
DA:584,1
DA:585,1
DA:586,1
DA:587,1
DA:590,1
DA:591,1
DA:593,1
DA:594,1
DA:596,1
DA:597,1
DA:599,1
DA:600,1
DA:601,1
DA:602,1
DA:604,1
DA:605,1
DA:606,1
DA:607,1
DA:610,1
DA:611,1
DA:612,1
DA:614,1
DA:617,1
DA:618,1
DA:619,1
DA:620,1
DA:621,1
DA:622,1
DA:623,1
DA:624,1
DA:625,1
DA:627,1
DA:628,1
DA:629,1
DA:630,1
DA:631,1
DA:632,1
DA:635,1
DA:636,1
DA:637,1
DA:638,1
DA:639,1
DA:640,1
DA:641,1
DA:642,1
DA:643,1
DA:645,1
DA:646,1
DA:647,1
DA:648,1
DA:649,1
DA:650,1
DA:652,1
DA:653,1
DA:655,1
DA:656,1
DA:658,1
DA:659,1
DA:660,1
DA:661,1
DA:662,1
DA:663,1
DA:664,1
DA:665,1
DA:668,1
DA:669,1
DA:671,1
DA:672,1
DA:673,1
DA:674,1
DA:675,1
DA:676,1
DA:677,1
DA:678,1
DA:680,1
DA:681,1
DA:682,1
DA:683,1
DA:684,1
DA:685,1
DA:686,1
DA:687,1
DA:689,1
DA:690,1
DA:691,1
DA:692,1
DA:693,1
DA:694,1
DA:695,1
DA:696,1
DA:697,1
DA:698,1
DA:700,1
DA:701,1
DA:702,1
DA:703,1
DA:704,1
DA:705,1
DA:706,1
DA:707,1
DA:708,1
DA:711,1
DA:712,1
DA:713,1
DA:715,1
DA:716,1
DA:717,1
DA:718,1
DA:719,1
DA:720,1
DA:721,1
DA:722,1
DA:723,1
DA:724,1
DA:725,1
DA:726,1
DA:729,1
DA:731,1
DA:732,1
DA:734,1
DA:735,1
DA:737,0
DA:740,1
DA:741,1
DA:742,1
DA:745,1
DA:746,1
DA:747,1
DA:749,1
DA:750,1
DA:751,1
DA:752,1
DA:753,1
DA:754,1
DA:755,1
DA:756,1
DA:757,1
DA:758,1
DA:759,1
DA:760,1
DA:763,1
DA:765,1
DA:767,1
DA:768,1
DA:769,1
DA:770,1
DA:771,1
DA:772,1
DA:773,1
DA:774,1
DA:777,1
DA:778,1
DA:780,1
DA:781,1
DA:782,1
DA:785,1
DA:786,1
DA:787,1
DA:789,1
DA:791,1
DA:792,1
DA:793,1
DA:794,1
DA:795,1
DA:797,1
DA:798,1
DA:799,1
DA:802,1
DA:803,1
DA:805,1
DA:806,1
DA:808,1
DA:810,1
DA:811,1
DA:813,1
DA:815,1
DA:816,1
DA:817,1
DA:821,41
DA:823,41
DA:826,41
DA:827,41
DA:829,38
DA:830,38
DA:831,38
DA:832,38
DA:833,38
DA:835,1
DA:836,1
DA:837,1
DA:838,1
DA:839,1
DA:840,1
DA:841,1
DA:842,1
DA:844,24
DA:845,24
DA:846,24
DA:848,33
DA:849,33
DA:850,33
DA:851,33
DA:852,33
DA:853,33
DA:854,33
DA:855,33
DA:856,33
DA:857,33
DA:859,33
DA:860,33
DA:861,33
DA:862,33
DA:863,33
DA:864,33
DA:865,33
DA:866,33
DA:867,33
DA:869,33
DA:870,33
DA:871,33
DA:872,33
DA:873,33
DA:874,33
DA:875,33
DA:876,33
DA:878,33
DA:879,33
DA:880,33
DA:881,33
DA:882,33
DA:883,33
DA:884,33
DA:885,33
DA:886,33
DA:887,33
DA:888,33
DA:889,33
DA:890,33
DA:891,33
DA:892,33
DA:893,33
DA:894,33
DA:896,1
DA:897,1
DA:900,1
DA:901,1
DA:903,1
DA:904,1
DA:906,33
DA:907,33
DA:908,33
DA:909,33
DA:910,33
DA:911,33
DA:912,33
DA:913,33
DA:914,33
DA:915,33
DA:916,33
DA:918,38
DA:919,38
DA:920,38
DA:921,38
DA:922,38
DA:923,38
DA:924,38
DA:925,38
DA:926,38
DA:927,38
DA:929,12
DA:930,12
DA:931,12
DA:932,12
DA:934,12
DA:935,12
DA:936,12
DA:937,12
DA:938,12
DA:939,12
DA:940,12
DA:941,12
DA:942,12
DA:943,12
DA:944,12
DA:945,12
DA:947,5
DA:948,5
DA:949,5
DA:950,5
DA:951,5
DA:952,5
DA:953,5
DA:954,5
DA:955,5
DA:956,5
DA:957,5
DA:958,5
DA:959,5
DA:960,5
DA:961,5
DA:962,5
DA:963,5
DA:964,5
DA:965,5
DA:966,5
DA:967,5
DA:968,5
DA:969,5
DA:970,5
DA:971,5
DA:972,5
DA:973,5
DA:975,2
DA:976,2
DA:977,2
DA:978,2
DA:979,2
DA:980,2
DA:981,2
DA:982,2
DA:983,2
DA:984,2
DA:985,2
DA:986,2
DA:987,2
DA:988,2
DA:989,2
DA:990,2
DA:991,2
DA:992,2
DA:993,2
DA:994,2
DA:995,2
DA:996,2
DA:997,2
DA:998,2
DA:999,2
DA:1000,2
DA:1001,2
DA:1003,1
DA:1004,1
DA:1005,1
DA:1006,1
DA:1007,1
DA:1008,1
DA:1009,1
DA:1010,1
DA:1011,1
DA:1012,1
DA:1013,1
DA:1014,1
DA:1015,1
DA:1016,1
DA:1017,1
DA:1018,1
DA:1019,1
DA:1020,1
DA:1021,1
DA:1022,1
DA:1023,1
DA:1024,1
DA:1025,1
DA:1026,1
DA:1027,1
DA:1028,1
DA:1029,1
BRF:0
BRH:0
LF:846
LH:840
end_of_record
SF:/home/nathan/Projects/smith/shared/smith-metrics/src/benchmark.rs
FN:212,_RNCNCNvMs_NtCs6Icymx2u3fr_13smith_metrics9benchmarkNtB8_18BenchmarkCollector15spawn_consumers00Ba_
FN:277,_RNCNvMs_NtCs6Icymx2u3fr_13smith_metrics9benchmarkNtB6_18BenchmarkCollector12flush_events0B8_
FN:256,_RNCNvMs_NtCs6Icymx2u3fr_13smith_metrics9benchmarkNtB6_18BenchmarkCollector13process_event0B8_
FN:331,_RNCNvMs_NtCs6Icymx2u3fr_13smith_metrics9benchmarkNtB6_18BenchmarkCollector13stats_summary0B8_
FN:332,_RNCNvMs_NtCs6Icymx2u3fr_13smith_metrics9benchmarkNtB6_18BenchmarkCollector13stats_summarys_0B8_
FN:229,_RNCNvMs_NtCs6Icymx2u3fr_13smith_metrics9benchmarkNtB6_18BenchmarkCollector14consume_events0B8_
FN:194,_RNCNvMs_NtCs6Icymx2u3fr_13smith_metrics9benchmarkNtB6_18BenchmarkCollector15spawn_consumers0B8_
FN:137,_RNCNvMs_NtCs6Icymx2u3fr_13smith_metrics9benchmarkNtB6_18BenchmarkCollector5start0B8_
FN:277,_RNvMs_NtCs6Icymx2u3fr_13smith_metrics9benchmarkNtB4_18BenchmarkCollector12flush_events
FN:256,_RNvMs_NtCs6Icymx2u3fr_13smith_metrics9benchmarkNtB4_18BenchmarkCollector13process_event
FN:322,_RNvMs_NtCs6Icymx2u3fr_13smith_metrics9benchmarkNtB4_18BenchmarkCollector13stats_summary
FN:225,_RNvMs_NtCs6Icymx2u3fr_13smith_metrics9benchmarkNtB4_18BenchmarkCollector14consume_events
FN:194,_RNvMs_NtCs6Icymx2u3fr_13smith_metrics9benchmarkNtB4_18BenchmarkCollector15spawn_consumers
FN:137,_RNvMs_NtCs6Icymx2u3fr_13smith_metrics9benchmarkNtB4_18BenchmarkCollector5start
FN:317,_RNvMs_NtCs6Icymx2u3fr_13smith_metrics9benchmarkNtB4_18BenchmarkCollector5stats
FN:407,_RNCNvNtNtCs6Icymx2u3fr_13smith_metrics9benchmark5testss_35test_collector_stats_summary_format0B7_
FN:408,_RNCNvNtNtCs6Icymx2u3fr_13smith_metrics9benchmark5testss_35test_collector_stats_summary_formats_0B7_
FN:776,_RNCNvNtNtCs6Icymx2u3fr_13smith_metrics9benchmark5testss_49test_benchmark_collector_stats_summary_formatting0B7_
FN:777,_RNCNvNtNtCs6Icymx2u3fr_13smith_metrics9benchmark5testss_49test_benchmark_collector_stats_summary_formattings_0B7_
FN:807,_RNCNvNtNtCs6Icymx2u3fr_13smith_metrics9benchmark5testss_52test_benchmark_collector_stats_summary_never_flushed0B7_
FN:808,_RNCNvNtNtCs6Icymx2u3fr_13smith_metrics9benchmark5testss_52test_benchmark_collector_stats_summary_never_flusheds_0B7_
FN:704,_RNCNvNtNtCs6Icymx2u3fr_13smith_metrics9benchmark5testss_53test_benchmark_collector_creation_with_minimal_config0B7_
FN:419,_RNvNtNtCs6Icymx2u3fr_13smith_metrics9benchmark5testss_21test_event_type_names
FN:641,_RNvNtNtCs6Icymx2u3fr_13smith_metrics9benchmark5testss_23test_run_result_metrics
FN:622,_RNvNtNtCs6Icymx2u3fr_13smith_metrics9benchmark5testss_24test_step_data_structure
FN:584,_RNvNtNtCs6Icymx2u3fr_13smith_metrics9benchmark5testss_26test_run_config_validation
FN:358,_RNvNtNtCs6Icymx2u3fr_13smith_metrics9benchmark5testss_28test_collector_config_custom
FN:470,_RNvNtNtCs6Icymx2u3fr_13smith_metrics9benchmark5testss_29test_benchmark_event_creation
FN:508,_RNvNtNtCs6Icymx2u3fr_13smith_metrics9benchmark5testss_30test_benchmark_event_step_data
FN:542,_RNvNtNtCs6Icymx2u3fr_13smith_metrics9benchmark5testss_30test_benchmark_event_tool_call
FN:347,_RNvNtNtCs6Icymx2u3fr_13smith_metrics9benchmark5testss_30test_collector_config_defaults
FN:684,_RNvNtNtCs6Icymx2u3fr_13smith_metrics9benchmark5testss_31test_retry_policy_configuration
FN:667,_RNvNtNtCs6Icymx2u3fr_13smith_metrics9benchmark5testss_33test_sandbox_limits_configuration
FN:380,_RNvNtNtCs6Icymx2u3fr_13smith_metrics9benchmark5testss_35test_collector_stats_initialization
FN:390,_RNvNtNtCs6Icymx2u3fr_13smith_metrics9benchmark5testss_35test_collector_stats_summary_format
FN:737,_RNvNtNtCs6Icymx2u3fr_13smith_metrics9benchmark5testss_37test_benchmark_collector_stats_access
FN:883,_RNvNtNtCs6Icymx2u3fr_13smith_metrics9benchmark5testss_39test_collector_stats_timestamp_handling
FN:866,_RNvNtNtCs6Icymx2u3fr_13smith_metrics9benchmark5testss_41test_collector_stats_buffer_size_tracking
FN:818,_RNvNtNtCs6Icymx2u3fr_13smith_metrics9benchmark5testss_42test_benchmark_collector_config_validation
FN:757,_RNvNtNtCs6Icymx2u3fr_13smith_metrics9benchmark5testss_49test_benchmark_collector_stats_summary_formatting
FN:840,_RNvNtNtCs6Icymx2u3fr_13smith_metrics9benchmark5testss_51test_benchmark_collector_config_clickhouse_optional
FN:917,_RNvNtNtCs6Icymx2u3fr_13smith_metrics9benchmark5testss_52test_benchmark_collector_configuration_serialization
FN:790,_RNvNtNtCs6Icymx2u3fr_13smith_metrics9benchmark5testss_52test_benchmark_collector_stats_summary_never_flushed
FN:704,_RNvNtNtCs6Icymx2u3fr_13smith_metrics9benchmark5testss_53test_benchmark_collector_creation_with_minimal_config
FN:899,_RNvNtNtCs6Icymx2u3fr_13smith_metrics9benchmark5testss_59test_benchmark_collector_default_configuration_completeness
FN:91,_RNvMs_NtCs6Icymx2u3fr_13smith_metrics9benchmarkNtB4_18BenchmarkCollector3new
FN:53,_RNvXNtCs6Icymx2u3fr_13smith_metrics9benchmarkNtB2_24BenchmarkCollectorConfigNtNtCs66KPHxksi63_4core7default7Default7default
FN:91,_RNCNvMs_NtCs6Icymx2u3fr_13smith_metrics9benchmarkNtB6_18BenchmarkCollector3new0B8_
FNDA:0,_RNCNCNvMs_NtCs6Icymx2u3fr_13smith_metrics9benchmarkNtB8_18BenchmarkCollector15spawn_consumers00Ba_
FNDA:0,_RNCNvMs_NtCs6Icymx2u3fr_13smith_metrics9benchmarkNtB6_18BenchmarkCollector12flush_events0B8_
FNDA:0,_RNCNvMs_NtCs6Icymx2u3fr_13smith_metrics9benchmarkNtB6_18BenchmarkCollector13process_event0B8_
FNDA:0,_RNCNvMs_NtCs6Icymx2u3fr_13smith_metrics9benchmarkNtB6_18BenchmarkCollector13stats_summary0B8_
FNDA:0,_RNCNvMs_NtCs6Icymx2u3fr_13smith_metrics9benchmarkNtB6_18BenchmarkCollector13stats_summarys_0B8_
FNDA:0,_RNCNvMs_NtCs6Icymx2u3fr_13smith_metrics9benchmarkNtB6_18BenchmarkCollector14consume_events0B8_
FNDA:0,_RNCNvMs_NtCs6Icymx2u3fr_13smith_metrics9benchmarkNtB6_18BenchmarkCollector15spawn_consumers0B8_
FNDA:0,_RNCNvMs_NtCs6Icymx2u3fr_13smith_metrics9benchmarkNtB6_18BenchmarkCollector5start0B8_
FNDA:0,_RNvMs_NtCs6Icymx2u3fr_13smith_metrics9benchmarkNtB4_18BenchmarkCollector12flush_events
FNDA:0,_RNvMs_NtCs6Icymx2u3fr_13smith_metrics9benchmarkNtB4_18BenchmarkCollector13process_event
FNDA:0,_RNvMs_NtCs6Icymx2u3fr_13smith_metrics9benchmarkNtB4_18BenchmarkCollector13stats_summary
FNDA:0,_RNvMs_NtCs6Icymx2u3fr_13smith_metrics9benchmarkNtB4_18BenchmarkCollector14consume_events
FNDA:0,_RNvMs_NtCs6Icymx2u3fr_13smith_metrics9benchmarkNtB4_18BenchmarkCollector15spawn_consumers
FNDA:0,_RNvMs_NtCs6Icymx2u3fr_13smith_metrics9benchmarkNtB4_18BenchmarkCollector5start
FNDA:0,_RNvMs_NtCs6Icymx2u3fr_13smith_metrics9benchmarkNtB4_18BenchmarkCollector5stats
FNDA:1,_RNCNvNtNtCs6Icymx2u3fr_13smith_metrics9benchmark5testss_35test_collector_stats_summary_format0B7_
FNDA:0,_RNCNvNtNtCs6Icymx2u3fr_13smith_metrics9benchmark5testss_35test_collector_stats_summary_formats_0B7_
FNDA:1,_RNCNvNtNtCs6Icymx2u3fr_13smith_metrics9benchmark5testss_49test_benchmark_collector_stats_summary_formatting0B7_
FNDA:0,_RNCNvNtNtCs6Icymx2u3fr_13smith_metrics9benchmark5testss_49test_benchmark_collector_stats_summary_formattings_0B7_
FNDA:0,_RNCNvNtNtCs6Icymx2u3fr_13smith_metrics9benchmark5testss_52test_benchmark_collector_stats_summary_never_flushed0B7_
FNDA:1,_RNCNvNtNtCs6Icymx2u3fr_13smith_metrics9benchmark5testss_52test_benchmark_collector_stats_summary_never_flusheds_0B7_
FNDA:1,_RNCNvNtNtCs6Icymx2u3fr_13smith_metrics9benchmark5testss_53test_benchmark_collector_creation_with_minimal_config0B7_
FNDA:1,_RNvNtNtCs6Icymx2u3fr_13smith_metrics9benchmark5testss_21test_event_type_names
FNDA:1,_RNvNtNtCs6Icymx2u3fr_13smith_metrics9benchmark5testss_23test_run_result_metrics
FNDA:1,_RNvNtNtCs6Icymx2u3fr_13smith_metrics9benchmark5testss_24test_step_data_structure
FNDA:1,_RNvNtNtCs6Icymx2u3fr_13smith_metrics9benchmark5testss_26test_run_config_validation
FNDA:1,_RNvNtNtCs6Icymx2u3fr_13smith_metrics9benchmark5testss_28test_collector_config_custom
FNDA:1,_RNvNtNtCs6Icymx2u3fr_13smith_metrics9benchmark5testss_29test_benchmark_event_creation
FNDA:1,_RNvNtNtCs6Icymx2u3fr_13smith_metrics9benchmark5testss_30test_benchmark_event_step_data
FNDA:1,_RNvNtNtCs6Icymx2u3fr_13smith_metrics9benchmark5testss_30test_benchmark_event_tool_call
FNDA:1,_RNvNtNtCs6Icymx2u3fr_13smith_metrics9benchmark5testss_30test_collector_config_defaults
FNDA:1,_RNvNtNtCs6Icymx2u3fr_13smith_metrics9benchmark5testss_31test_retry_policy_configuration
FNDA:1,_RNvNtNtCs6Icymx2u3fr_13smith_metrics9benchmark5testss_33test_sandbox_limits_configuration
FNDA:1,_RNvNtNtCs6Icymx2u3fr_13smith_metrics9benchmark5testss_35test_collector_stats_initialization
FNDA:1,_RNvNtNtCs6Icymx2u3fr_13smith_metrics9benchmark5testss_35test_collector_stats_summary_format
FNDA:1,_RNvNtNtCs6Icymx2u3fr_13smith_metrics9benchmark5testss_37test_benchmark_collector_stats_access
FNDA:1,_RNvNtNtCs6Icymx2u3fr_13smith_metrics9benchmark5testss_39test_collector_stats_timestamp_handling
FNDA:1,_RNvNtNtCs6Icymx2u3fr_13smith_metrics9benchmark5testss_41test_collector_stats_buffer_size_tracking
FNDA:1,_RNvNtNtCs6Icymx2u3fr_13smith_metrics9benchmark5testss_42test_benchmark_collector_config_validation
FNDA:1,_RNvNtNtCs6Icymx2u3fr_13smith_metrics9benchmark5testss_49test_benchmark_collector_stats_summary_formatting
FNDA:1,_RNvNtNtCs6Icymx2u3fr_13smith_metrics9benchmark5testss_51test_benchmark_collector_config_clickhouse_optional
FNDA:1,_RNvNtNtCs6Icymx2u3fr_13smith_metrics9benchmark5testss_52test_benchmark_collector_configuration_serialization
FNDA:1,_RNvNtNtCs6Icymx2u3fr_13smith_metrics9benchmark5testss_52test_benchmark_collector_stats_summary_never_flushed
FNDA:1,_RNvNtNtCs6Icymx2u3fr_13smith_metrics9benchmark5testss_53test_benchmark_collector_creation_with_minimal_config
FNDA:1,_RNvNtNtCs6Icymx2u3fr_13smith_metrics9benchmark5testss_59test_benchmark_collector_default_configuration_completeness
FNDA:1,_RNvMs_NtCs6Icymx2u3fr_13smith_metrics9benchmarkNtB4_18BenchmarkCollector3new
FNDA:5,_RNvXNtCs6Icymx2u3fr_13smith_metrics9benchmarkNtB2_24BenchmarkCollectorConfigNtNtCs66KPHxksi63_4core7default7Default7default
FNDA:1,_RNCNvMs_NtCs6Icymx2u3fr_13smith_metrics9benchmarkNtB6_18BenchmarkCollector3new0B8_
FNF:48
FNH:30
DA:53,5
DA:54,5
DA:55,5
DA:56,5
DA:57,5
DA:58,5
DA:59,5
DA:60,5
DA:61,5
DA:62,5
DA:63,5
DA:64,5
DA:65,5
DA:91,1
DA:92,1
DA:95,1
DA:96,1
DA:101,1
DA:102,0
DA:107,1
DA:108,0
DA:109,0
DA:110,0
DA:111,0
DA:112,0
DA:113,0
DA:114,0
DA:117,0
DA:118,0
DA:119,0
DA:121,1
DA:122,1
DA:125,1
DA:126,1
DA:127,1
DA:128,1
DA:129,1
DA:130,1
DA:131,1
DA:132,1
DA:133,1
DA:134,1
DA:137,0
DA:138,0
DA:141,0
DA:144,0
DA:147,0
DA:151,0
DA:153,0
DA:154,0
DA:155,0
DA:157,0
DA:158,0
DA:163,0
DA:164,0
DA:165,0
DA:166,0
DA:167,0
DA:172,0
DA:173,0
DA:174,0
DA:175,0
DA:177,0
DA:178,0
DA:182,0
DA:183,0
DA:184,0
DA:185,0
DA:187,0
DA:188,0
DA:190,0
DA:191,0
DA:194,0
DA:195,0
DA:197,0
DA:198,0
DA:199,0
DA:200,0
DA:201,0
DA:204,0
DA:205,0
DA:206,0
DA:207,0
DA:208,0
DA:209,0
DA:210,0
DA:212,0
DA:213,0
DA:214,0
DA:215,0
DA:216,0
DA:218,0
DA:221,0
DA:222,0
DA:225,0
DA:226,0
DA:227,0
DA:228,0
DA:229,0
DA:230,0
DA:233,0
DA:235,0
DA:236,0
DA:239,0
DA:240,0
DA:241,0
DA:242,0
DA:245,0
DA:248,0
DA:252,0
DA:253,0
DA:256,0
DA:257,0
DA:260,0
DA:261,0
DA:262,0
DA:265,0
DA:266,0
DA:267,0
DA:268,0
DA:270,0
DA:271,0
DA:273,0
DA:274,0
DA:277,0
DA:278,0
DA:279,0
DA:280,0
DA:282,0
DA:283,0
DA:295,0
DA:296,0
DA:297,0
DA:298,0
DA:300,0
DA:302,0
DA:305,0
DA:306,0
DA:307,0
DA:310,0
DA:312,0
DA:313,0
DA:314,0
DA:317,0
DA:318,0
DA:319,0
DA:322,0
DA:323,0
DA:324,0
DA:329,0
DA:330,0
DA:331,0
DA:332,0
DA:334,0
DA:347,1
DA:348,1
DA:349,1
DA:350,1
DA:351,1
DA:352,1
DA:353,1
DA:354,1
DA:355,1
DA:358,1
DA:359,1
DA:360,1
DA:361,1
DA:362,1
DA:363,1
DA:364,1
DA:365,1
DA:366,1
DA:367,1
DA:368,1
DA:369,1
DA:371,1
DA:372,1
DA:373,1
DA:374,1
DA:375,1
DA:376,1
DA:377,1
DA:380,1
DA:381,1
DA:382,1
DA:383,1
DA:384,1
DA:385,1
DA:386,1
DA:387,1
DA:390,1
DA:392,1
DA:393,1
DA:394,1
DA:395,1
DA:396,1
DA:397,1
DA:399,1
DA:400,1
DA:405,1
DA:406,1
DA:407,1
DA:408,1
DA:411,1
DA:412,1
DA:413,1
DA:414,1
DA:415,1
DA:416,1
DA:419,1
DA:420,1
DA:421,1
DA:422,1
DA:423,1
DA:424,1
DA:425,1
DA:426,1
DA:427,1
DA:428,1
DA:429,1
DA:430,1
DA:431,1
DA:432,1
DA:433,1
DA:434,1
DA:435,1
DA:436,1
DA:437,1
DA:438,1
DA:439,1
DA:440,1
DA:441,1
DA:442,1
DA:443,1
DA:444,1
DA:445,1
DA:446,1
DA:447,1
DA:448,1
DA:450,1
DA:451,1
DA:452,1
DA:453,1
DA:454,1
DA:455,1
DA:456,1
DA:458,1
DA:462,1
DA:463,1
DA:464,1
DA:465,1
DA:466,1
DA:467,1
DA:470,1
DA:471,1
DA:472,1
DA:474,1
DA:475,1
DA:476,1
DA:477,1
DA:478,1
DA:479,1
DA:480,1
DA:482,1
DA:483,1
DA:484,1
DA:485,1
DA:486,1
DA:487,1
DA:488,1
DA:489,1
DA:490,1
DA:491,1
DA:492,1
DA:493,1
DA:494,1
DA:495,1
DA:498,1
DA:499,1
DA:500,1
DA:501,1
DA:502,1
DA:503,1
DA:504,1
DA:505,1
DA:508,1
DA:509,1
DA:510,1
DA:511,1
DA:512,1
DA:513,1
DA:514,1
DA:515,1
DA:517,1
DA:518,1
DA:519,1
DA:520,1
DA:521,1
DA:522,1
DA:523,1
DA:524,1
DA:525,1
DA:528,1
DA:529,1
DA:530,1
DA:531,1
DA:532,1
DA:533,1
DA:534,1
DA:535,1
DA:537,0
DA:539,1
DA:542,1
DA:543,1
DA:544,1
DA:545,1
DA:546,1
DA:547,1
DA:548,1
DA:549,1
DA:551,1
DA:552,1
DA:553,1
DA:554,1
DA:555,1
DA:556,1
DA:557,1
DA:558,1
DA:559,1
DA:560,1
DA:561,1
DA:562,1
DA:563,1
DA:564,1
DA:565,1
DA:566,1
DA:567,1
DA:568,1
DA:571,1
DA:572,1
DA:573,1
DA:574,1
DA:575,1
DA:576,1
DA:577,1
DA:579,0
DA:581,1
DA:584,1
DA:585,1
DA:586,1
DA:587,1
DA:588,1
DA:589,1
DA:590,1
DA:591,1
DA:592,1
DA:593,1
DA:594,1
DA:595,1
DA:596,1
DA:597,1
DA:598,1
DA:599,1
DA:600,1
DA:601,1
DA:602,1
DA:603,1
DA:604,1
DA:605,1
DA:606,1
DA:607,1
DA:608,1
DA:609,1
DA:610,1
DA:611,1
DA:612,1
DA:613,1
DA:615,1
DA:616,1
DA:617,1
DA:618,1
DA:619,1
DA:622,1
DA:623,1
DA:624,1
DA:625,1
DA:626,1
DA:627,1
DA:628,1
DA:629,1
DA:630,1
DA:631,1
DA:633,1
DA:634,1
DA:635,1
DA:636,1
DA:637,1
DA:638,1
DA:641,1
DA:642,1
DA:643,1
DA:644,1
DA:645,1
DA:646,1
DA:647,1
DA:648,1
DA:649,1
DA:650,1
DA:651,1
DA:652,1
DA:653,1
DA:654,1
DA:655,1
DA:657,1
DA:658,1
DA:659,1
DA:660,1
DA:661,1
DA:662,1
DA:663,1
DA:664,1
DA:667,1
DA:668,1
DA:669,1
DA:670,1
DA:671,1
DA:672,1
DA:673,1
DA:674,1
DA:676,1
DA:677,1
DA:678,1
DA:679,1
DA:680,1
DA:681,1
DA:684,1
DA:685,1
DA:686,1
DA:687,1
DA:688,1
DA:689,1
DA:690,1
DA:691,1
DA:693,1
DA:694,1
DA:695,1
DA:696,1
DA:697,1
DA:698,1
DA:704,1
DA:705,1
DA:706,1
DA:707,1
DA:708,1
DA:709,1
DA:710,1
DA:711,1
DA:712,1
DA:713,1
DA:714,1
DA:715,1
DA:719,1
DA:723,1
DA:724,1
DA:725,1
DA:726,1
DA:727,1
DA:728,1
DA:729,1
DA:730,1
DA:731,1
DA:732,1
DA:733,1
DA:734,1
DA:737,1
DA:739,1
DA:740,1
DA:741,1
DA:742,1
DA:743,1
DA:744,1
DA:745,1
DA:746,1
DA:749,1
DA:750,1
DA:751,1
DA:752,1
DA:753,1
DA:754,1
DA:757,1
DA:758,1
DA:759,1
DA:760,1
DA:761,1
DA:762,1
DA:763,1
DA:764,1
DA:767,1
DA:768,1
DA:769,1
DA:774,1
DA:775,1
DA:776,1
DA:777,1
DA:781,1
DA:782,1
DA:783,1
DA:784,1
DA:785,1
DA:786,1
DA:787,1
DA:790,1
DA:791,1
DA:792,1
DA:793,1
DA:794,1
DA:795,1
DA:796,1
DA:797,1
DA:799,1
DA:800,1
DA:805,1
DA:806,1
DA:807,1
DA:808,1
DA:812,1
DA:813,1
DA:814,1
DA:815,1
DA:818,1
DA:820,1
DA:821,1
DA:822,1
DA:823,1
DA:824,1
DA:825,1
DA:826,1
DA:827,1
DA:828,1
DA:829,1
DA:830,1
DA:834,1
DA:835,1
DA:836,1
DA:837,1
DA:840,1
DA:841,1
DA:842,1
DA:843,1
DA:844,1
DA:845,1
DA:846,1
DA:848,1
DA:849,1
DA:850,1
DA:851,1
DA:852,1
DA:853,1
DA:856,1
DA:857,1
DA:858,1
DA:860,1
DA:861,1
DA:862,1
DA:863,1
DA:866,1
DA:867,1
DA:870,1
DA:871,1
DA:873,1
DA:874,1
DA:877,1
DA:878,1
DA:879,1
DA:880,1
DA:883,1
DA:884,1
DA:887,1
DA:890,1
DA:891,1
DA:894,1
DA:895,1
DA:896,1
DA:899,1
DA:900,1
DA:903,1
DA:904,1
DA:905,1
DA:906,1
DA:907,1
DA:908,1
DA:911,1
DA:912,1
DA:913,1
DA:914,1
DA:917,1
DA:920,1
DA:921,1
DA:922,1
DA:923,1
DA:924,1
DA:925,1
DA:926,1
DA:927,1
DA:928,1
DA:929,1
DA:930,1
DA:933,1
DA:934,1
DA:935,1
DA:936,1
DA:939,1
DA:940,1
DA:942,1
DA:943,1
DA:944,1
DA:945,1
DA:946,1
BRF:0
BRH:0
LF:642
LH:503
end_of_record
SF:/home/nathan/Projects/smith/shared/smith-metrics/src/clickhouse_client.rs
FN:735,_RNCNvNtNtCs6Icymx2u3fr_13smith_metrics17clickhouse_client5tests22ensure_crypto_provider0B7_
FN:1591,_RNCNvNtNtCs6Icymx2u3fr_13smith_metrics17clickhouse_client5testss_17test_health_check0B7_
FN:1441,_RNCNvNtNtCs6Icymx2u3fr_13smith_metrics17clickhouse_client5testss_24test_insert_events_empty0B7_
FN:1477,_RNCNvNtNtCs6Icymx2u3fr_13smith_metrics17clickhouse_client5testss_27test_get_policy_performance0B7_
FN:1451,_RNCNvNtNtCs6Icymx2u3fr_13smith_metrics17clickhouse_client5testss_28test_insert_events_with_data0B7_
FN:1621,_RNCNvNtNtCs6Icymx2u3fr_13smith_metrics17clickhouse_client5testss_29test_sql_injection_protection0B7_
FN:1540,_RNCNvNtNtCs6Icymx2u3fr_13smith_metrics17clickhouse_client5testss_33test_execute_query_select_allowed0B7_
FN:1573,_RNCNvNtNtCs6Icymx2u3fr_13smith_metrics17clickhouse_client5testss_35test_execute_query_case_insensitive0B7_
FN:1516,_RNCNvNtNtCs6Icymx2u3fr_13smith_metrics17clickhouse_client5testss_35test_get_tool_performance_no_filter0B7_
FN:1691,_RNCNvNtNtCs6Icymx2u3fr_13smith_metrics17clickhouse_client5testss_35test_nuclear_connection_invalid_url0B7_
FN:1528,_RNCNvNtNtCs6Icymx2u3fr_13smith_metrics17clickhouse_client5testss_37test_get_tool_performance_with_filter0B7_
FN:1553,_RNCNvNtNtCs6Icymx2u3fr_13smith_metrics17clickhouse_client5testss_38test_execute_query_non_select_rejected0B7_
FN:1492,_RNCNvNtNtCs6Icymx2u3fr_13smith_metrics17clickhouse_client5testss_38test_get_config_performance_no_context0B7_
FN:1719,_RNCNvNtNtCs6Icymx2u3fr_13smith_metrics17clickhouse_client5testss_39test_nuclear_health_check_failure_modes0B7_
FN:1709,_RNCNvNtNtCs6Icymx2u3fr_13smith_metrics17clickhouse_client5testss_39test_nuclear_schema_setup_no_connection0B7_
FN:1504,_RNCNvNtNtCs6Icymx2u3fr_13smith_metrics17clickhouse_client5testss_40test_get_config_performance_with_context0B7_
FN:1660,_RNCNvNtNtCs6Icymx2u3fr_13smith_metrics17clickhouse_client5testss_40test_nuclear_connection_creation_success0B7_
FN:1732,_RNCNvNtNtCs6Icymx2u3fr_13smith_metrics17clickhouse_client5testss_40test_nuclear_insert_events_massive_batch0B7_
FN:1801,_RNCNvNtNtCs6Icymx2u3fr_13smith_metrics17clickhouse_client5testss_40test_nuclear_tool_performance_edge_cases0B7_
FN:1750,_RNCNvNtNtCs6Icymx2u3fr_13smith_metrics17clickhouse_client5testss_42test_nuclear_policy_performance_edge_cases0B7_
FN:1766,_RNCNvNtNtCs6Icymx2u3fr_13smith_metrics17clickhouse_client5testss_50test_nuclear_config_performance_context_edge_cases0B7_
FN:1870,_RNCNvNtNtCs6Icymx2u3fr_13smith_metrics17clickhouse_client5testss_53test_nuclear_execute_query_whitespace_bypass_attempts0B7_
FN:1788,_RNCNvNtNtCs6Icymx2u3fr_13smith_metrics17clickhouse_client5testss_54test_nuclear_config_performance_min_samples_edge_cases0B7_
FN:1824,_RNCNvNtNtCs6Icymx2u3fr_13smith_metrics17clickhouse_client5testss_54test_nuclear_execute_query_sql_injection_comprehensive0B7_
FN:1912,_RNCNvNtNtCs6Icymx2u3fr_13smith_metrics17clickhouse_client5testss_55test_nuclear_event_to_row_all_event_types_comprehensive0B7_
FN:1946,_RNCNvNtNtCs6Icymx2u3fr_13smith_metrics17clickhouse_client5testss_55test_nuclear_event_to_row_json_serialization_edge_cases0B7_
FN:1889,_RNCNvNtNtCs6Icymx2u3fr_13smith_metrics17clickhouse_client5testss_57test_nuclear_execute_query_case_sensitivity_comprehensive0B7_
FN:2221,_RNvNtNtCs6Icymx2u3fr_13smith_metrics17clickhouse_client5tests22create_test_run_config
FN:734,_RNvNtNtCs6Icymx2u3fr_13smith_metrics17clickhouse_client5tests22ensure_crypto_provider
FN:2045,_RNvNtNtCs6Icymx2u3fr_13smith_metrics17clickhouse_client5tests25create_nuclear_step_event
FN:2123,_RNvNtNtCs6Icymx2u3fr_13smith_metrics17clickhouse_client5tests28create_nuclear_failure_event
FN:2212,_RNvNtNtCs6Icymx2u3fr_13smith_metrics17clickhouse_client5tests29create_mock_clickhouse_client
FN:2017,_RNvNtNtCs6Icymx2u3fr_13smith_metrics17clickhouse_client5tests29create_nuclear_run_stop_event
FN:2004,_RNvNtNtCs6Icymx2u3fr_13smith_metrics17clickhouse_client5tests30create_nuclear_run_start_event
FN:2068,_RNvNtNtCs6Icymx2u3fr_13smith_metrics17clickhouse_client5tests30create_nuclear_tool_call_event
FN:1991,_RNvNtNtCs6Icymx2u3fr_13smith_metrics17clickhouse_client5tests31create_comprehensive_test_event
FN:2100,_RNvNtNtCs6Icymx2u3fr_13smith_metrics17clickhouse_client5tests37create_nuclear_context_decision_event
FN:2152,_RNvNtNtCs6Icymx2u3fr_13smith_metrics17clickhouse_client5tests37create_nuclear_optimizer_update_event
FN:1591,_RNvNtNtCs6Icymx2u3fr_13smith_metrics17clickhouse_client5testss_17test_health_check
FN:1270,_RNvNtNtCs6Icymx2u3fr_13smith_metrics17clickhouse_client5testss_22test_event_to_row_step
FN:890,_RNvNtNtCs6Icymx2u3fr_13smith_metrics17clickhouse_client5testss_24test_event_row_step_data
FN:1441,_RNvNtNtCs6Icymx2u3fr_13smith_metrics17clickhouse_client5testss_24test_insert_events_empty
FN:1356,_RNvNtNtCs6Icymx2u3fr_13smith_metrics17clickhouse_client5testss_25test_event_to_row_failure
FN:741,_RNvNtNtCs6Icymx2u3fr_13smith_metrics17clickhouse_client5testss_26test_basic_event_structure
FN:1201,_RNvNtNtCs6Icymx2u3fr_13smith_metrics17clickhouse_client5testss_27test_event_to_row_run_start
FN:1477,_RNvNtNtCs6Icymx2u3fr_13smith_metrics17clickhouse_client5testss_27test_get_policy_performance
FN:1629,_RNvNtNtCs6Icymx2u3fr_13smith_metrics17clickhouse_client5testss_28test_data_json_serialization
FN:1451,_RNvNtNtCs6Icymx2u3fr_13smith_metrics17clickhouse_client5testss_28test_insert_events_with_data
FN:1603,_RNvNtNtCs6Icymx2u3fr_13smith_metrics17clickhouse_client5testss_29test_sql_injection_protection
FN:961,_RNvNtNtCs6Icymx2u3fr_13smith_metrics17clickhouse_client5testss_31test_event_row_tool_performance
FN:2174,_RNvNtNtCs6Icymx2u3fr_13smith_metrics17clickhouse_client5testss_32test_boolean_to_uint8_conversion
FN:1033,_RNvNtNtCs6Icymx2u3fr_13smith_metrics17clickhouse_client5testss_32test_config_performance_creation
FN:818,_RNvNtNtCs6Icymx2u3fr_13smith_metrics17clickhouse_client5testss_33test_benchmark_event_row_creation
FN:1540,_RNvNtNtCs6Icymx2u3fr_13smith_metrics17clickhouse_client5testss_33test_execute_query_select_allowed
FN:1313,_RNvNtNtCs6Icymx2u3fr_13smith_metrics17clickhouse_client5testss_34test_event_to_row_context_decision
FN:1403,_RNvNtNtCs6Icymx2u3fr_13smith_metrics17clickhouse_client5testss_34test_event_to_row_optimizer_update
FN:799,_RNvNtNtCs6Icymx2u3fr_13smith_metrics17clickhouse_client5testss_34test_optimization_insight_creation
FN:1124,_RNvNtNtCs6Icymx2u3fr_13smith_metrics17clickhouse_client5testss_35test_event_row_serialization_fields
FN:1573,_RNvNtNtCs6Icymx2u3fr_13smith_metrics17clickhouse_client5testss_35test_execute_query_case_insensitive
FN:1516,_RNvNtNtCs6Icymx2u3fr_13smith_metrics17clickhouse_client5testss_35test_get_tool_performance_no_filter
FN:1691,_RNvNtNtCs6Icymx2u3fr_13smith_metrics17clickhouse_client5testss_35test_nuclear_connection_invalid_url
FN:1528,_RNvNtNtCs6Icymx2u3fr_13smith_metrics17clickhouse_client5testss_37test_get_tool_performance_with_filter
FN:1553,_RNvNtNtCs6Icymx2u3fr_13smith_metrics17clickhouse_client5testss_38test_execute_query_non_select_rejected
FN:1492,_RNvNtNtCs6Icymx2u3fr_13smith_metrics17clickhouse_client5testss_38test_get_config_performance_no_context
FN:1719,_RNvNtNtCs6Icymx2u3fr_13smith_metrics17clickhouse_client5testss_39test_nuclear_health_check_failure_modes
FN:1709,_RNvNtNtCs6Icymx2u3fr_13smith_metrics17clickhouse_client5testss_39test_nuclear_schema_setup_no_connection
FN:1097,_RNvNtNtCs6Icymx2u3fr_13smith_metrics17clickhouse_client5testss_39test_optimization_insight_comprehensive
FN:1055,_RNvNtNtCs6Icymx2u3fr_13smith_metrics17clickhouse_client5testss_40test_benchmark_event_conversion_run_stop
FN:1504,_RNvNtNtCs6Icymx2u3fr_13smith_metrics17clickhouse_client5testss_40test_get_config_performance_with_context
FN:1660,_RNvNtNtCs6Icymx2u3fr_13smith_metrics17clickhouse_client5testss_40test_nuclear_connection_creation_success
FN:1732,_RNvNtNtCs6Icymx2u3fr_13smith_metrics17clickhouse_client5testss_40test_nuclear_insert_events_massive_batch
FN:1801,_RNvNtNtCs6Icymx2u3fr_13smith_metrics17clickhouse_client5testss_40test_nuclear_tool_performance_edge_cases
FN:1750,_RNvNtNtCs6Icymx2u3fr_13smith_metrics17clickhouse_client5testss_42test_nuclear_policy_performance_edge_cases
FN:1766,_RNvNtNtCs6Icymx2u3fr_13smith_metrics17clickhouse_client5testss_50test_nuclear_config_performance_context_edge_cases
FN:1870,_RNvNtNtCs6Icymx2u3fr_13smith_metrics17clickhouse_client5testss_53test_nuclear_execute_query_whitespace_bypass_attempts
FN:1788,_RNvNtNtCs6Icymx2u3fr_13smith_metrics17clickhouse_client5testss_54test_nuclear_config_performance_min_samples_edge_cases
FN:1824,_RNvNtNtCs6Icymx2u3fr_13smith_metrics17clickhouse_client5testss_54test_nuclear_execute_query_sql_injection_comprehensive
FN:1912,_RNvNtNtCs6Icymx2u3fr_13smith_metrics17clickhouse_client5testss_55test_nuclear_event_to_row_all_event_types_comprehensive
FN:1946,_RNvNtNtCs6Icymx2u3fr_13smith_metrics17clickhouse_client5testss_55test_nuclear_event_to_row_json_serialization_edge_cases
FN:1889,_RNvNtNtCs6Icymx2u3fr_13smith_metrics17clickhouse_client5testss_57test_nuclear_execute_query_case_sensitivity_comprehensive
FN:343,_RNCNCNvMs_NtCs6Icymx2u3fr_13smith_metrics17clickhouse_clientNtB8_16ClickHouseClient13insert_events00Ba_
FN:682,_RNCNCNvMs_NtCs6Icymx2u3fr_13smith_metrics17clickhouse_clientNtB8_16ClickHouseClient20get_tool_performance00Ba_
FN:624,_RNCNCNvMs_NtCs6Icymx2u3fr_13smith_metrics17clickhouse_clientNtB8_16ClickHouseClient22get_config_performance00Ba_
FN:545,_RNCNCNvMs_NtCs6Icymx2u3fr_13smith_metrics17clickhouse_clientNtB8_16ClickHouseClient22get_policy_performance00Ba_
FN:713,_RNCNvMs_NtCs6Icymx2u3fr_13smith_metrics17clickhouse_clientNtB6_16ClickHouseClient12health_check0B8_
FN:181,_RNCNvMs_NtCs6Icymx2u3fr_13smith_metrics17clickhouse_clientNtB6_16ClickHouseClient12setup_schema0B8_
FN:690,_RNCNvMs_NtCs6Icymx2u3fr_13smith_metrics17clickhouse_clientNtB6_16ClickHouseClient13execute_query0B8_
FN:335,_RNCNvMs_NtCs6Icymx2u3fr_13smith_metrics17clickhouse_clientNtB6_16ClickHouseClient13insert_events0B8_
FN:646,_RNCNvMs_NtCs6Icymx2u3fr_13smith_metrics17clickhouse_clientNtB6_16ClickHouseClient20get_tool_performance0B8_
FN:568,_RNCNvMs_NtCs6Icymx2u3fr_13smith_metrics17clickhouse_clientNtB6_16ClickHouseClient22get_config_performance0B8_
FN:505,_RNCNvMs_NtCs6Icymx2u3fr_13smith_metrics17clickhouse_clientNtB6_16ClickHouseClient22get_policy_performance0B8_
FN:151,_RNCNvMs_NtCs6Icymx2u3fr_13smith_metrics17clickhouse_clientNtB6_16ClickHouseClient3new0B8_
FN:360,_RNvMs_NtCs6Icymx2u3fr_13smith_metrics17clickhouse_clientNtB4_16ClickHouseClient12event_to_row
FN:713,_RNvMs_NtCs6Icymx2u3fr_13smith_metrics17clickhouse_clientNtB4_16ClickHouseClient12health_check
FN:181,_RNvMs_NtCs6Icymx2u3fr_13smith_metrics17clickhouse_clientNtB4_16ClickHouseClient12setup_schema
FN:690,_RNvMs_NtCs6Icymx2u3fr_13smith_metrics17clickhouse_clientNtB4_16ClickHouseClient13execute_query
FN:335,_RNvMs_NtCs6Icymx2u3fr_13smith_metrics17clickhouse_clientNtB4_16ClickHouseClient13insert_events
FN:643,_RNvMs_NtCs6Icymx2u3fr_13smith_metrics17clickhouse_clientNtB4_16ClickHouseClient20get_tool_performance
FN:564,_RNvMs_NtCs6Icymx2u3fr_13smith_metrics17clickhouse_clientNtB4_16ClickHouseClient22get_config_performance
FN:502,_RNvMs_NtCs6Icymx2u3fr_13smith_metrics17clickhouse_clientNtB4_16ClickHouseClient22get_policy_performance
FN:146,_RNvMs_NtCs6Icymx2u3fr_13smith_metrics17clickhouse_clientNtB4_16ClickHouseClient3new
FN:138,_RNvMs_NtCs6Icymx2u3fr_13smith_metrics17clickhouse_clientNtB4_16ClickHouseClient8new_test
FN:23,_RNvXNtCs6Icymx2u3fr_13smith_metrics17clickhouse_clientNtB2_16ClickHouseClientNtNtCs66KPHxksi63_4core3fmt5Debug3fmt
FNDA:1,_RNCNvNtNtCs6Icymx2u3fr_13smith_metrics17clickhouse_client5tests22ensure_crypto_provider0B7_
FNDA:1,_RNCNvNtNtCs6Icymx2u3fr_13smith_metrics17clickhouse_client5testss_17test_health_check0B7_
FNDA:1,_RNCNvNtNtCs6Icymx2u3fr_13smith_metrics17clickhouse_client5testss_24test_insert_events_empty0B7_
FNDA:1,_RNCNvNtNtCs6Icymx2u3fr_13smith_metrics17clickhouse_client5testss_27test_get_policy_performance0B7_
FNDA:1,_RNCNvNtNtCs6Icymx2u3fr_13smith_metrics17clickhouse_client5testss_28test_insert_events_with_data0B7_
FNDA:3,_RNCNvNtNtCs6Icymx2u3fr_13smith_metrics17clickhouse_client5testss_29test_sql_injection_protection0B7_
FNDA:1,_RNCNvNtNtCs6Icymx2u3fr_13smith_metrics17clickhouse_client5testss_33test_execute_query_select_allowed0B7_
FNDA:1,_RNCNvNtNtCs6Icymx2u3fr_13smith_metrics17clickhouse_client5testss_35test_execute_query_case_insensitive0B7_
FNDA:1,_RNCNvNtNtCs6Icymx2u3fr_13smith_metrics17clickhouse_client5testss_35test_get_tool_performance_no_filter0B7_
FNDA:1,_RNCNvNtNtCs6Icymx2u3fr_13smith_metrics17clickhouse_client5testss_35test_nuclear_connection_invalid_url0B7_
FNDA:1,_RNCNvNtNtCs6Icymx2u3fr_13smith_metrics17clickhouse_client5testss_37test_get_tool_performance_with_filter0B7_
FNDA:1,_RNCNvNtNtCs6Icymx2u3fr_13smith_metrics17clickhouse_client5testss_38test_execute_query_non_select_rejected0B7_
FNDA:1,_RNCNvNtNtCs6Icymx2u3fr_13smith_metrics17clickhouse_client5testss_38test_get_config_performance_no_context0B7_
FNDA:1,_RNCNvNtNtCs6Icymx2u3fr_13smith_metrics17clickhouse_client5testss_39test_nuclear_health_check_failure_modes0B7_
FNDA:1,_RNCNvNtNtCs6Icymx2u3fr_13smith_metrics17clickhouse_client5testss_39test_nuclear_schema_setup_no_connection0B7_
FNDA:1,_RNCNvNtNtCs6Icymx2u3fr_13smith_metrics17clickhouse_client5testss_40test_get_config_performance_with_context0B7_
FNDA:1,_RNCNvNtNtCs6Icymx2u3fr_13smith_metrics17clickhouse_client5testss_40test_nuclear_connection_creation_success0B7_
FNDA:1,_RNCNvNtNtCs6Icymx2u3fr_13smith_metrics17clickhouse_client5testss_40test_nuclear_insert_events_massive_batch0B7_
FNDA:1,_RNCNvNtNtCs6Icymx2u3fr_13smith_metrics17clickhouse_client5testss_40test_nuclear_tool_performance_edge_cases0B7_
FNDA:1,_RNCNvNtNtCs6Icymx2u3fr_13smith_metrics17clickhouse_client5testss_42test_nuclear_policy_performance_edge_cases0B7_
FNDA:1,_RNCNvNtNtCs6Icymx2u3fr_13smith_metrics17clickhouse_client5testss_50test_nuclear_config_performance_context_edge_cases0B7_
FNDA:1,_RNCNvNtNtCs6Icymx2u3fr_13smith_metrics17clickhouse_client5testss_53test_nuclear_execute_query_whitespace_bypass_attempts0B7_
FNDA:1,_RNCNvNtNtCs6Icymx2u3fr_13smith_metrics17clickhouse_client5testss_54test_nuclear_config_performance_min_samples_edge_cases0B7_
FNDA:1,_RNCNvNtNtCs6Icymx2u3fr_13smith_metrics17clickhouse_client5testss_54test_nuclear_execute_query_sql_injection_comprehensive0B7_
FNDA:1,_RNCNvNtNtCs6Icymx2u3fr_13smith_metrics17clickhouse_client5testss_55test_nuclear_event_to_row_all_event_types_comprehensive0B7_
FNDA:1,_RNCNvNtNtCs6Icymx2u3fr_13smith_metrics17clickhouse_client5testss_55test_nuclear_event_to_row_json_serialization_edge_cases0B7_
FNDA:1,_RNCNvNtNtCs6Icymx2u3fr_13smith_metrics17clickhouse_client5testss_57test_nuclear_execute_query_case_sensitivity_comprehensive0B7_
FNDA:105,_RNvNtNtCs6Icymx2u3fr_13smith_metrics17clickhouse_client5tests22create_test_run_config
FNDA:31,_RNvNtNtCs6Icymx2u3fr_13smith_metrics17clickhouse_client5tests22ensure_crypto_provider
FNDA:1,_RNvNtNtCs6Icymx2u3fr_13smith_metrics17clickhouse_client5tests25create_nuclear_step_event
FNDA:1,_RNvNtNtCs6Icymx2u3fr_13smith_metrics17clickhouse_client5tests28create_nuclear_failure_event
FNDA:31,_RNvNtNtCs6Icymx2u3fr_13smith_metrics17clickhouse_client5tests29create_mock_clickhouse_client
FNDA:1,_RNvNtNtCs6Icymx2u3fr_13smith_metrics17clickhouse_client5tests29create_nuclear_run_stop_event
FNDA:1,_RNvNtNtCs6Icymx2u3fr_13smith_metrics17clickhouse_client5tests30create_nuclear_run_start_event
FNDA:1,_RNvNtNtCs6Icymx2u3fr_13smith_metrics17clickhouse_client5tests30create_nuclear_tool_call_event
FNDA:100,_RNvNtNtCs6Icymx2u3fr_13smith_metrics17clickhouse_client5tests31create_comprehensive_test_event
FNDA:1,_RNvNtNtCs6Icymx2u3fr_13smith_metrics17clickhouse_client5tests37create_nuclear_context_decision_event
FNDA:1,_RNvNtNtCs6Icymx2u3fr_13smith_metrics17clickhouse_client5tests37create_nuclear_optimizer_update_event
FNDA:1,_RNvNtNtCs6Icymx2u3fr_13smith_metrics17clickhouse_client5testss_17test_health_check
FNDA:1,_RNvNtNtCs6Icymx2u3fr_13smith_metrics17clickhouse_client5testss_22test_event_to_row_step
FNDA:1,_RNvNtNtCs6Icymx2u3fr_13smith_metrics17clickhouse_client5testss_24test_event_row_step_data
FNDA:1,_RNvNtNtCs6Icymx2u3fr_13smith_metrics17clickhouse_client5testss_24test_insert_events_empty
FNDA:1,_RNvNtNtCs6Icymx2u3fr_13smith_metrics17clickhouse_client5testss_25test_event_to_row_failure
FNDA:1,_RNvNtNtCs6Icymx2u3fr_13smith_metrics17clickhouse_client5testss_26test_basic_event_structure
FNDA:1,_RNvNtNtCs6Icymx2u3fr_13smith_metrics17clickhouse_client5testss_27test_event_to_row_run_start
FNDA:1,_RNvNtNtCs6Icymx2u3fr_13smith_metrics17clickhouse_client5testss_27test_get_policy_performance
FNDA:1,_RNvNtNtCs6Icymx2u3fr_13smith_metrics17clickhouse_client5testss_28test_data_json_serialization
FNDA:1,_RNvNtNtCs6Icymx2u3fr_13smith_metrics17clickhouse_client5testss_28test_insert_events_with_data
FNDA:1,_RNvNtNtCs6Icymx2u3fr_13smith_metrics17clickhouse_client5testss_29test_sql_injection_protection
FNDA:1,_RNvNtNtCs6Icymx2u3fr_13smith_metrics17clickhouse_client5testss_31test_event_row_tool_performance
FNDA:1,_RNvNtNtCs6Icymx2u3fr_13smith_metrics17clickhouse_client5testss_32test_boolean_to_uint8_conversion
FNDA:1,_RNvNtNtCs6Icymx2u3fr_13smith_metrics17clickhouse_client5testss_32test_config_performance_creation
FNDA:1,_RNvNtNtCs6Icymx2u3fr_13smith_metrics17clickhouse_client5testss_33test_benchmark_event_row_creation
FNDA:1,_RNvNtNtCs6Icymx2u3fr_13smith_metrics17clickhouse_client5testss_33test_execute_query_select_allowed
FNDA:1,_RNvNtNtCs6Icymx2u3fr_13smith_metrics17clickhouse_client5testss_34test_event_to_row_context_decision
FNDA:1,_RNvNtNtCs6Icymx2u3fr_13smith_metrics17clickhouse_client5testss_34test_event_to_row_optimizer_update
FNDA:1,_RNvNtNtCs6Icymx2u3fr_13smith_metrics17clickhouse_client5testss_34test_optimization_insight_creation
FNDA:1,_RNvNtNtCs6Icymx2u3fr_13smith_metrics17clickhouse_client5testss_35test_event_row_serialization_fields
FNDA:1,_RNvNtNtCs6Icymx2u3fr_13smith_metrics17clickhouse_client5testss_35test_execute_query_case_insensitive
FNDA:1,_RNvNtNtCs6Icymx2u3fr_13smith_metrics17clickhouse_client5testss_35test_get_tool_performance_no_filter
FNDA:1,_RNvNtNtCs6Icymx2u3fr_13smith_metrics17clickhouse_client5testss_35test_nuclear_connection_invalid_url
FNDA:1,_RNvNtNtCs6Icymx2u3fr_13smith_metrics17clickhouse_client5testss_37test_get_tool_performance_with_filter
FNDA:1,_RNvNtNtCs6Icymx2u3fr_13smith_metrics17clickhouse_client5testss_38test_execute_query_non_select_rejected
FNDA:1,_RNvNtNtCs6Icymx2u3fr_13smith_metrics17clickhouse_client5testss_38test_get_config_performance_no_context
FNDA:1,_RNvNtNtCs6Icymx2u3fr_13smith_metrics17clickhouse_client5testss_39test_nuclear_health_check_failure_modes
FNDA:1,_RNvNtNtCs6Icymx2u3fr_13smith_metrics17clickhouse_client5testss_39test_nuclear_schema_setup_no_connection
FNDA:1,_RNvNtNtCs6Icymx2u3fr_13smith_metrics17clickhouse_client5testss_39test_optimization_insight_comprehensive
FNDA:1,_RNvNtNtCs6Icymx2u3fr_13smith_metrics17clickhouse_client5testss_40test_benchmark_event_conversion_run_stop
FNDA:1,_RNvNtNtCs6Icymx2u3fr_13smith_metrics17clickhouse_client5testss_40test_get_config_performance_with_context
FNDA:1,_RNvNtNtCs6Icymx2u3fr_13smith_metrics17clickhouse_client5testss_40test_nuclear_connection_creation_success
FNDA:1,_RNvNtNtCs6Icymx2u3fr_13smith_metrics17clickhouse_client5testss_40test_nuclear_insert_events_massive_batch
FNDA:1,_RNvNtNtCs6Icymx2u3fr_13smith_metrics17clickhouse_client5testss_40test_nuclear_tool_performance_edge_cases
FNDA:1,_RNvNtNtCs6Icymx2u3fr_13smith_metrics17clickhouse_client5testss_42test_nuclear_policy_performance_edge_cases
FNDA:1,_RNvNtNtCs6Icymx2u3fr_13smith_metrics17clickhouse_client5testss_50test_nuclear_config_performance_context_edge_cases
FNDA:1,_RNvNtNtCs6Icymx2u3fr_13smith_metrics17clickhouse_client5testss_53test_nuclear_execute_query_whitespace_bypass_attempts
FNDA:1,_RNvNtNtCs6Icymx2u3fr_13smith_metrics17clickhouse_client5testss_54test_nuclear_config_performance_min_samples_edge_cases
FNDA:1,_RNvNtNtCs6Icymx2u3fr_13smith_metrics17clickhouse_client5testss_54test_nuclear_execute_query_sql_injection_comprehensive
FNDA:1,_RNvNtNtCs6Icymx2u3fr_13smith_metrics17clickhouse_client5testss_55test_nuclear_event_to_row_all_event_types_comprehensive
FNDA:1,_RNvNtNtCs6Icymx2u3fr_13smith_metrics17clickhouse_client5testss_55test_nuclear_event_to_row_json_serialization_edge_cases
FNDA:1,_RNvNtNtCs6Icymx2u3fr_13smith_metrics17clickhouse_client5testss_57test_nuclear_execute_query_case_sensitivity_comprehensive
FNDA:101,_RNCNCNvMs_NtCs6Icymx2u3fr_13smith_metrics17clickhouse_clientNtB8_16ClickHouseClient13insert_events00Ba_
FNDA:0,_RNCNCNvMs_NtCs6Icymx2u3fr_13smith_metrics17clickhouse_clientNtB8_16ClickHouseClient20get_tool_performance00Ba_
FNDA:0,_RNCNCNvMs_NtCs6Icymx2u3fr_13smith_metrics17clickhouse_clientNtB8_16ClickHouseClient22get_config_performance00Ba_
FNDA:0,_RNCNCNvMs_NtCs6Icymx2u3fr_13smith_metrics17clickhouse_clientNtB8_16ClickHouseClient22get_policy_performance00Ba_
FNDA:2,_RNCNvMs_NtCs6Icymx2u3fr_13smith_metrics17clickhouse_clientNtB6_16ClickHouseClient12health_check0B8_
FNDA:1,_RNCNvMs_NtCs6Icymx2u3fr_13smith_metrics17clickhouse_clientNtB6_16ClickHouseClient12setup_schema0B8_
FNDA:36,_RNCNvMs_NtCs6Icymx2u3fr_13smith_metrics17clickhouse_clientNtB6_16ClickHouseClient13execute_query0B8_
FNDA:3,_RNCNvMs_NtCs6Icymx2u3fr_13smith_metrics17clickhouse_clientNtB6_16ClickHouseClient13insert_events0B8_
FNDA:10,_RNCNvMs_NtCs6Icymx2u3fr_13smith_metrics17clickhouse_clientNtB6_16ClickHouseClient20get_tool_performance0B8_
FNDA:16,_RNCNvMs_NtCs6Icymx2u3fr_13smith_metrics17clickhouse_clientNtB6_16ClickHouseClient22get_config_performance0B8_
FNDA:8,_RNCNvMs_NtCs6Icymx2u3fr_13smith_metrics17clickhouse_clientNtB6_16ClickHouseClient22get_policy_performance0B8_
FNDA:8,_RNCNvMs_NtCs6Icymx2u3fr_13smith_metrics17clickhouse_clientNtB6_16ClickHouseClient3new0B8_
FNDA:116,_RNvMs_NtCs6Icymx2u3fr_13smith_metrics17clickhouse_clientNtB4_16ClickHouseClient12event_to_row
FNDA:2,_RNvMs_NtCs6Icymx2u3fr_13smith_metrics17clickhouse_clientNtB4_16ClickHouseClient12health_check
FNDA:1,_RNvMs_NtCs6Icymx2u3fr_13smith_metrics17clickhouse_clientNtB4_16ClickHouseClient12setup_schema
FNDA:36,_RNvMs_NtCs6Icymx2u3fr_13smith_metrics17clickhouse_clientNtB4_16ClickHouseClient13execute_query
FNDA:3,_RNvMs_NtCs6Icymx2u3fr_13smith_metrics17clickhouse_clientNtB4_16ClickHouseClient13insert_events
FNDA:10,_RNvMs_NtCs6Icymx2u3fr_13smith_metrics17clickhouse_clientNtB4_16ClickHouseClient20get_tool_performance
FNDA:16,_RNvMs_NtCs6Icymx2u3fr_13smith_metrics17clickhouse_clientNtB4_16ClickHouseClient22get_config_performance
FNDA:8,_RNvMs_NtCs6Icymx2u3fr_13smith_metrics17clickhouse_clientNtB4_16ClickHouseClient22get_policy_performance
FNDA:8,_RNvMs_NtCs6Icymx2u3fr_13smith_metrics17clickhouse_clientNtB4_16ClickHouseClient3new
FNDA:41,_RNvMs_NtCs6Icymx2u3fr_13smith_metrics17clickhouse_clientNtB4_16ClickHouseClient8new_test
FNDA:0,_RNvXNtCs6Icymx2u3fr_13smith_metrics17clickhouse_clientNtB2_16ClickHouseClientNtNtCs66KPHxksi63_4core3fmt5Debug3fmt
FNF:103
FNH:99
DA:23,0
DA:24,0
DA:25,0
DA:26,0
DA:27,0
DA:138,41
DA:139,41
DA:140,41
DA:141,41
DA:142,41
DA:143,41
DA:146,8
DA:147,8
DA:148,8
DA:149,8
DA:150,8
DA:151,8
DA:152,8
DA:154,8
DA:155,2
DA:156,6
DA:158,8
DA:159,1
DA:160,7
DA:163,8
DA:164,8
DA:166,0
DA:168,8
DA:169,8
DA:170,8
DA:174,0
DA:175,0
DA:176,0
DA:177,0
DA:178,8
DA:181,1
DA:182,1
DA:185,1
DA:186,1
DA:189,0
DA:190,0
DA:191,0
DA:192,0
DA:193,0
DA:194,0
DA:195,0
DA:196,0
DA:197,0
DA:198,0
DA:199,0
DA:200,0
DA:201,0
DA:202,0
DA:203,0
DA:204,0
DA:205,0
DA:206,0
DA:207,0
DA:208,0
DA:209,0
DA:210,0
DA:211,0
DA:212,0
DA:213,0
DA:214,0
DA:215,0
DA:216,0
DA:217,0
DA:218,0
DA:219,0
DA:220,0
DA:221,0
DA:222,0
DA:223,0
DA:224,0
DA:225,0
DA:226,0
DA:227,0
DA:228,0
DA:229,0
DA:230,0
DA:231,0
DA:232,0
DA:233,0
DA:234,0
DA:235,0
DA:236,0
DA:237,0
DA:238,0
DA:239,0
DA:240,0
DA:241,0
DA:242,0
DA:243,0
DA:244,0
DA:245,0
DA:246,0
DA:247,0
DA:248,0
DA:249,0
DA:250,0
DA:251,0
DA:252,0
DA:253,0
DA:254,0
DA:255,0
DA:256,0
DA:257,0
DA:258,0
DA:259,0
DA:260,0
DA:261,0
DA:262,0
DA:263,0
DA:264,0
DA:265,0
DA:266,0
DA:267,0
DA:268,0
DA:269,0
DA:270,0
DA:271,0
DA:272,0
DA:274,0
DA:277,0
DA:278,0
DA:279,0
DA:280,0
DA:281,0
DA:282,0
DA:283,0
DA:284,0
DA:285,0
DA:286,0
DA:287,0
DA:288,0
DA:289,0
DA:290,0
DA:291,0
DA:292,0
DA:293,0
DA:294,0
DA:295,0
DA:296,0
DA:297,0
DA:298,0
DA:301,0
DA:302,0
DA:303,0
DA:304,0
DA:305,0
DA:306,0
DA:307,0
DA:308,0
DA:309,0
DA:310,0
DA:311,0
DA:312,0
DA:313,0
DA:314,0
DA:315,0
DA:316,0
DA:317,0
DA:318,0
DA:319,0
DA:320,0
DA:321,0
DA:322,0
DA:324,0
DA:325,0
DA:326,0
DA:327,0
DA:328,0
DA:330,0
DA:331,0
DA:332,1
DA:335,3
DA:336,3
DA:337,1
DA:338,2
DA:340,2
DA:343,101
DA:346,2
DA:347,2
DA:348,2
DA:350,0
DA:352,0
DA:353,0
DA:354,0
DA:356,0
DA:357,3
DA:360,116
DA:361,116
DA:362,116
DA:363,116
DA:364,116
DA:365,116
DA:366,116
DA:367,116
DA:368,116
DA:369,116
DA:370,116
DA:371,116
DA:372,116
DA:373,116
DA:374,116
DA:375,116
DA:376,116
DA:377,116
DA:378,116
DA:379,116
DA:380,116
DA:381,116
DA:382,116
DA:383,116
DA:384,116
DA:385,116
DA:386,116
DA:387,116
DA:388,116
DA:389,116
DA:390,116
DA:391,116
DA:392,116
DA:393,116
DA:394,116
DA:395,116
DA:396,116
DA:397,116
DA:398,116
DA:399,116
DA:400,116
DA:401,116
DA:402,116
DA:403,116
DA:404,116
DA:405,116
DA:406,116
DA:407,116
DA:408,116
DA:409,116
DA:410,116
DA:411,116
DA:412,116
DA:413,116
DA:414,116
DA:415,116
DA:416,116
DA:417,116
DA:418,116
DA:419,116
DA:420,116
DA:421,116
DA:422,116
DA:423,116
DA:424,116
DA:427,116
DA:428,105
DA:429,105
DA:430,105
DA:431,105
DA:432,105
DA:433,105
DA:434,105
DA:435,105
DA:436,2
DA:437,2
DA:438,2
DA:439,2
DA:440,2
DA:441,2
DA:442,2
DA:443,2
DA:444,2
DA:445,2
DA:446,2
DA:448,2
DA:449,2
DA:450,2
DA:451,2
DA:452,2
DA:453,2
DA:454,2
DA:455,2
DA:457,1
DA:458,1
DA:459,1
DA:460,1
DA:461,1
DA:462,1
DA:463,1
DA:464,1
DA:465,1
DA:466,1
DA:467,1
DA:468,1
DA:469,1
DA:470,1
DA:471,1
DA:472,2
DA:473,2
DA:474,2
DA:475,2
DA:476,2
DA:477,2
DA:478,2
DA:479,2
DA:481,2
DA:482,2
DA:483,2
DA:484,0
DA:486,2
DA:488,2
DA:489,2
DA:491,2
DA:492,2
DA:493,2
DA:494,2
DA:495,2
DA:498,116
DA:499,116
DA:502,8
DA:503,8
DA:504,8
DA:505,8
DA:506,8
DA:507,8
DA:508,8
DA:509,8
DA:510,8
DA:511,8
DA:512,8
DA:513,8
DA:514,8
DA:515,8
DA:516,8
DA:517,8
DA:518,8
DA:519,8
DA:520,8
DA:521,8
DA:527,8
DA:534,8
DA:535,8
DA:536,8
DA:545,0
DA:546,0
DA:547,0
DA:548,0
DA:549,0
DA:550,0
DA:551,0
DA:552,0
DA:553,0
DA:554,0
DA:555,0
DA:557,8
DA:559,8
DA:560,8
DA:561,8
DA:564,16
DA:565,16
DA:566,16
DA:567,16
DA:568,16
DA:569,16
DA:570,16
DA:571,16
DA:572,16
DA:573,16
DA:574,16
DA:575,16
DA:576,16
DA:577,16
DA:578,16
DA:579,16
DA:580,16
DA:581,16
DA:582,16
DA:583,16
DA:584,16
DA:585,16
DA:586,16
DA:587,16
DA:588,16
DA:592,16
DA:593,8
DA:594,8
DA:596,16
DA:597,16
DA:598,16
DA:599,16
DA:600,16
DA:601,16
DA:606,16
DA:613,16
DA:614,16
DA:615,16
DA:624,0
DA:625,0
DA:626,0
DA:627,0
DA:628,0
DA:629,0
DA:630,0
DA:631,0
DA:632,0
DA:633,0
DA:634,0
DA:636,16
DA:638,16
DA:639,16
DA:640,16
DA:643,10
DA:644,10
DA:645,10
DA:646,10
DA:647,10
DA:648,10
DA:649,10
DA:650,10
DA:651,10
DA:652,10
DA:653,10
DA:654,10
DA:655,10
DA:656,10
DA:657,10
DA:659,10
DA:660,8
DA:661,8
DA:663,10
DA:664,10
DA:665,10
DA:666,10
DA:667,10
DA:668,10
DA:673,10
DA:680,10
DA:681,10
DA:682,10
DA:683,10
DA:685,10
DA:686,10
DA:687,10
DA:690,36
DA:691,36
DA:694,36
DA:695,16
DA:696,20
DA:700,20
DA:706,20
DA:708,20
DA:709,20
DA:710,36
DA:713,2
DA:714,2
DA:715,0
DA:716,2
DA:717,2
DA:718,2
DA:721,2
DA:734,31
DA:735,31
DA:736,1
DA:737,1
DA:738,31
DA:741,1
DA:742,1
DA:743,1
DA:744,1
DA:745,1
DA:746,1
DA:747,1
DA:748,1
DA:749,1
DA:750,1
DA:751,1
DA:752,1
DA:753,1
DA:754,1
DA:755,1
DA:756,1
DA:757,1
DA:758,1
DA:759,1
DA:760,1
DA:761,1
DA:762,1
DA:763,1
DA:764,1
DA:765,1
DA:766,1
DA:767,1
DA:768,1
DA:769,1
DA:770,1
DA:772,1
DA:773,1
DA:774,1
DA:775,1
DA:776,1
DA:777,1
DA:778,1
DA:780,1
DA:784,1
DA:785,1
DA:787,1
DA:789,1
DA:790,1
DA:791,1
DA:792,1
DA:794,0
DA:796,1
DA:799,1
DA:800,1
DA:801,1
DA:802,1
DA:803,1
DA:804,1
DA:805,1
DA:806,1
DA:807,1
DA:808,1
DA:810,1
DA:811,1
DA:812,1
DA:813,1
DA:814,1
DA:815,1
DA:818,1
DA:819,1
DA:820,1
DA:821,1
DA:822,1
DA:823,1
DA:824,1
DA:825,1
DA:826,1
DA:827,1
DA:828,1
DA:829,1
DA:830,1
DA:831,1
DA:832,1
DA:833,1
DA:834,1
DA:835,1
DA:836,1
DA:837,1
DA:838,1
DA:839,1
DA:840,1
DA:841,1
DA:842,1
DA:843,1
DA:844,1
DA:845,1
DA:846,1
DA:847,1
DA:848,1
DA:849,1
DA:850,1
DA:851,1
DA:852,1
DA:853,1
DA:854,1
DA:855,1
DA:856,1
DA:857,1
DA:858,1
DA:859,1
DA:860,1
DA:861,1
DA:862,1
DA:863,1
DA:864,1
DA:865,1
DA:866,1
DA:867,1
DA:868,1
DA:869,1
DA:870,1
DA:871,1
DA:872,1
DA:873,1
DA:874,1
DA:875,1
DA:876,1
DA:877,1
DA:878,1
DA:879,1
DA:881,1
DA:882,1
DA:883,1
DA:884,1
DA:885,1
DA:886,1
DA:887,1
DA:890,1
DA:891,1
DA:892,1
DA:893,1
DA:894,1
DA:895,1
DA:896,1
DA:897,1
DA:898,1
DA:899,1
DA:900,1
DA:901,1
DA:902,1
DA:903,1
DA:904,1
DA:905,1
DA:906,1
DA:907,1
DA:908,1
DA:909,1
DA:910,1
DA:911,1
DA:912,1
DA:913,1
DA:914,1
DA:915,1
DA:916,1
DA:917,1
DA:918,1
DA:919,1
DA:920,1
DA:921,1
DA:922,1
DA:923,1
DA:924,1
DA:925,1
DA:926,1
DA:927,1
DA:928,1
DA:929,1
DA:930,1
DA:931,1
DA:932,1
DA:933,1
DA:934,1
DA:935,1
DA:936,1
DA:937,1
DA:938,1
DA:939,1
DA:940,1
DA:941,1
DA:942,1
DA:943,1
DA:944,1
DA:945,1
DA:946,1
DA:947,1
DA:948,1
DA:949,1
DA:950,1
DA:951,1
DA:953,1
DA:954,1
DA:955,1
DA:956,1
DA:957,1
DA:958,1
DA:961,1
DA:962,1
DA:963,1
DA:964,1
DA:965,1
DA:966,1
DA:967,1
DA:968,1
DA:969,1
DA:970,1
DA:971,1
DA:972,1
DA:973,1
DA:974,1
DA:975,1
DA:976,1
DA:977,1
DA:978,1
DA:979,1
DA:980,1
DA:981,1
DA:982,1
DA:983,1
DA:984,1
DA:985,1
DA:986,1
DA:987,1
DA:988,1
DA:989,1
DA:990,1
DA:991,1
DA:992,1
DA:993,1
DA:994,1
DA:995,1
DA:996,1
DA:997,1
DA:998,1
DA:999,1
DA:1000,1
DA:1001,1
DA:1002,1
DA:1003,1
DA:1004,1
DA:1005,1
DA:1006,1
DA:1007,1
DA:1008,1
DA:1009,1
DA:1010,1
DA:1011,1
DA:1012,1
DA:1013,1
DA:1014,1
DA:1015,1
DA:1016,1
DA:1017,1
DA:1018,1
DA:1019,1
DA:1020,1
DA:1021,1
DA:1022,1
DA:1024,1
DA:1025,1
DA:1026,1
DA:1027,1
DA:1028,1
DA:1029,1
DA:1030,1
DA:1033,1
DA:1035,1
DA:1036,1
DA:1037,1
DA:1038,1
DA:1039,1
DA:1040,1
DA:1041,1
DA:1042,1
DA:1043,1
DA:1045,1
DA:1046,1
DA:1047,1
DA:1048,1
DA:1049,1
DA:1050,1
DA:1051,1
DA:1052,1
DA:1055,1
DA:1056,1
DA:1057,1
DA:1058,1
DA:1059,1
DA:1060,1
DA:1061,1
DA:1062,1
DA:1063,1
DA:1064,1
DA:1065,1
DA:1066,1
DA:1067,1
DA:1068,1
DA:1069,1
DA:1071,1
DA:1072,1
DA:1073,1
DA:1074,1
DA:1075,1
DA:1076,1
DA:1077,1
DA:1079,1
DA:1083,1
DA:1084,1
DA:1085,1
DA:1087,1
DA:1088,1
DA:1089,1
DA:1090,1
DA:1091,1
DA:1092,1
DA:1093,0
DA:1094,1
DA:1097,1
DA:1098,1
DA:1099,1
DA:1100,1
DA:1101,1
DA:1102,1
DA:1103,1
DA:1104,1
DA:1105,1
DA:1106,1
DA:1109,1
DA:1110,1
DA:1111,1
DA:1112,1
DA:1113,1
DA:1114,1
DA:1115,1
DA:1118,1
DA:1119,1
DA:1120,1
DA:1121,1
DA:1124,1
DA:1126,1
DA:1127,1
DA:1128,1
DA:1129,1
DA:1130,1
DA:1131,1
DA:1132,1
DA:1133,1
DA:1134,1
DA:1135,1
DA:1136,1
DA:1137,1
DA:1138,1
DA:1139,1
DA:1140,1
DA:1141,1
DA:1142,1
DA:1143,1
DA:1144,1
DA:1145,1
DA:1146,1
DA:1147,1
DA:1148,1
DA:1149,1
DA:1150,1
DA:1151,1
DA:1152,1
DA:1153,1
DA:1154,1
DA:1155,1
DA:1156,1
DA:1157,1
DA:1158,1
DA:1159,1
DA:1160,1
DA:1161,1
DA:1162,1
DA:1163,1
DA:1164,1
DA:1165,1
DA:1166,1
DA:1167,1
DA:1168,1
DA:1169,1
DA:1170,1
DA:1171,1
DA:1172,1
DA:1173,1
DA:1174,1
DA:1175,1
DA:1176,1
DA:1177,1
DA:1178,1
DA:1179,1
DA:1180,1
DA:1181,1
DA:1182,1
DA:1183,1
DA:1184,1
DA:1185,1
DA:1186,1
DA:1189,1
DA:1190,1
DA:1191,1
DA:1193,1
DA:1194,1
DA:1195,1
DA:1196,1
DA:1197,1
DA:1198,1
DA:1201,1
DA:1203,1
DA:1205,1
DA:1206,1
DA:1207,1
DA:1208,1
DA:1209,1
DA:1210,1
DA:1211,1
DA:1212,1
DA:1213,1
DA:1214,1
DA:1215,1
DA:1216,1
DA:1217,1
DA:1218,1
DA:1219,1
DA:1220,1
DA:1221,1
DA:1222,1
DA:1223,1
DA:1224,1
DA:1225,1
DA:1226,1
DA:1227,1
DA:1228,1
DA:1229,1
DA:1230,1
DA:1231,1
DA:1232,1
DA:1233,1
DA:1235,1
DA:1236,1
DA:1237,1
DA:1238,1
DA:1239,1
DA:1240,1
DA:1241,1
DA:1243,1
DA:1246,1
DA:1249,1
DA:1250,1
DA:1251,1
DA:1252,1
DA:1253,1
DA:1254,1
DA:1255,1
DA:1258,1
DA:1259,1
DA:1260,1
DA:1261,1
DA:1264,1
DA:1265,1
DA:1266,1
DA:1267,1
DA:1270,1
DA:1271,1
DA:1273,1
DA:1274,1
DA:1275,1
DA:1276,1
DA:1277,1
DA:1278,1
DA:1279,1
DA:1280,1
DA:1281,1
DA:1283,1
DA:1284,1
DA:1285,1
DA:1286,1
DA:1287,1
DA:1288,1
DA:1289,1
DA:1291,1
DA:1294,1
DA:1297,1
DA:1298,1
DA:1299,1
DA:1300,1
DA:1301,1
DA:1302,1
DA:1303,1
DA:1304,1
DA:1307,1
DA:1308,1
DA:1309,1
DA:1310,1
DA:1313,1
DA:1314,1
DA:1316,1
DA:1317,1
DA:1318,1
DA:1319,1
DA:1320,1
DA:1321,1
DA:1322,1
DA:1323,1
DA:1324,1
DA:1326,1
DA:1327,1
DA:1328,1
DA:1329,1
DA:1330,1
DA:1331,1
DA:1332,1
DA:1334,1
DA:1337,1
DA:1340,1
DA:1341,1
DA:1342,1
DA:1343,1
DA:1344,1
DA:1345,1
DA:1346,1
DA:1347,1
DA:1350,1
DA:1351,1
DA:1352,1
DA:1353,1
DA:1356,1
DA:1357,1
DA:1359,1
DA:1360,1
DA:1361,1
DA:1362,1
DA:1363,1
DA:1364,1
DA:1365,1
DA:1366,1
DA:1367,1
DA:1368,1
DA:1369,1
DA:1370,1
DA:1371,1
DA:1372,1
DA:1373,1
DA:1375,1
DA:1376,1
DA:1377,1
DA:1378,1
DA:1379,1
DA:1380,1
DA:1381,1
DA:1383,1
DA:1386,1
DA:1389,1
DA:1390,1
DA:1391,1
DA:1392,1
DA:1393,1
DA:1396,1
DA:1397,1
DA:1398,1
DA:1399,1
DA:1400,1
DA:1403,1
DA:1404,1
DA:1406,1
DA:1407,1
DA:1408,1
DA:1409,1
DA:1410,1
DA:1411,1
DA:1412,1
DA:1414,1
DA:1415,1
DA:1416,1
DA:1417,1
DA:1418,1
DA:1419,1
DA:1420,1
DA:1422,1
DA:1425,1
DA:1428,1
DA:1429,1
DA:1430,1
DA:1431,1
DA:1434,1
DA:1435,1
DA:1436,1
DA:1437,1
DA:1438,1
DA:1441,1
DA:1442,1
DA:1443,1
DA:1446,1
DA:1447,1
DA:1448,1
DA:1451,1
DA:1452,1
DA:1454,1
DA:1455,1
DA:1456,1
DA:1457,1
DA:1458,1
DA:1459,1
DA:1460,1
DA:1461,1
DA:1463,1
DA:1466,1
DA:1470,1
DA:1473,1
DA:1474,1
DA:1477,1
DA:1478,1
DA:1481,4
DA:1482,3
DA:1483,3
DA:1484,1
DA:1485,3
DA:1486,1
DA:1487,3
DA:1488,1
DA:1489,1
DA:1492,1
DA:1493,1
DA:1495,1
DA:1496,1
DA:1498,1
DA:1500,1
DA:1501,1
DA:1504,1
DA:1505,1
DA:1507,1
DA:1508,1
DA:1510,1
DA:1512,1
DA:1513,1
DA:1516,1
DA:1517,1
DA:1519,1
DA:1520,1
DA:1522,1
DA:1524,1
DA:1525,1
DA:1528,1
DA:1529,1
DA:1531,1
DA:1532,1
DA:1534,1
DA:1536,1
DA:1537,1
DA:1540,1
DA:1541,1
DA:1543,1
DA:1544,1
DA:1545,1
DA:1547,1
DA:1549,1
DA:1550,1
DA:1553,1
DA:1554,1
DA:1557,1
DA:1559,1
DA:1560,1
DA:1561,1
DA:1562,1
DA:1565,6
DA:1566,5
DA:1567,5
DA:1568,5
DA:1569,1
DA:1570,1
DA:1573,1
DA:1574,1
DA:1577,1
DA:1579,1
DA:1580,1
DA:1581,1
DA:1584,5
DA:1585,4
DA:1586,4
DA:1587,1
DA:1588,1
DA:1591,1
DA:1592,1
DA:1595,1
DA:1596,1
DA:1598,1
DA:1599,1
DA:1600,1
DA:1603,1
DA:1605,1
DA:1611,1
DA:1613,1
DA:1614,1
DA:1619,4
DA:1621,3
DA:1623,3
DA:1624,3
DA:1626,1
DA:1629,1
DA:1630,1
DA:1633,1
DA:1634,1
DA:1635,1
DA:1636,1
DA:1637,1
DA:1638,1
DA:1639,1
DA:1640,1
DA:1642,1
DA:1645,1
DA:1648,1
DA:1649,1
DA:1652,1
DA:1653,1
DA:1654,1
DA:1660,1
DA:1662,1
DA:1663,1
DA:1664,1
DA:1665,1
DA:1668,4
DA:1669,1
DA:1670,3
DA:1671,1
DA:1672,1
DA:1673,3
DA:1674,1
DA:1675,1
DA:1676,3
DA:1677,3
DA:1678,3
DA:1679,3
DA:1680,3
DA:1681,3
DA:1682,3
DA:1683,3
DA:1684,1
DA:1685,1
DA:1686,1
DA:1687,1
DA:1688,1
DA:1691,1
DA:1693,1
DA:1695,1
DA:1696,1
DA:1697,1
DA:1698,1
DA:1701,6
DA:1702,5
DA:1703,5
DA:1704,1
DA:1705,1
DA:1709,1
DA:1710,1
DA:1713,1
DA:1714,1
DA:1715,1
DA:1719,1
DA:1720,1
DA:1723,1
DA:1724,1
DA:1726,1
DA:1727,1
DA:1728,1
DA:1732,1
DA:1733,1
DA:1736,1
DA:1737,101
DA:1738,100
DA:1739,100
DA:1740,100
DA:1743,1
DA:1745,1
DA:1746,1
DA:1750,1
DA:1751,1
DA:1754,1
DA:1756,6
DA:1757,5
DA:1758,5
DA:1759,1
DA:1760,5
DA:1761,5
DA:1762,1
DA:1763,1
DA:1766,1
DA:1767,1
DA:1770,1
DA:1771,1
DA:1772,1
DA:1773,1
DA:1774,1
DA:1775,1
DA:1776,1
DA:1777,1
DA:1778,1
DA:1781,9
DA:1782,8
DA:1783,8
DA:1784,1
DA:1785,1
DA:1788,1
DA:1789,1
DA:1792,1
DA:1794,7
DA:1795,6
DA:1796,6
DA:1797,1
DA:1798,1
DA:1801,1
DA:1802,1
DA:1805,1
DA:1806,1
DA:1807,1
DA:1808,1
DA:1809,1
DA:1810,1
DA:1811,1
DA:1812,1
DA:1813,1
DA:1816,9
DA:1817,8
DA:1818,8
DA:1819,1
DA:1820,1
DA:1824,1
DA:1825,1
DA:1828,1
DA:1830,1
DA:1831,1
DA:1832,1
DA:1833,1
DA:1834,1
DA:1837,7
DA:1838,6
DA:1839,6
DA:1841,6
DA:1842,6
DA:1843,6
DA:1844,0
DA:1850,1
DA:1852,1
DA:1853,1
DA:1854,1
DA:1855,1
DA:1856,1
DA:1857,1
DA:1861,8
DA:1862,7
DA:1863,1
DA:1864,1
DA:1865,7
DA:1866,1
DA:1867,1
DA:1870,1
DA:1871,1
DA:1874,1
DA:1876,1
DA:1877,1
DA:1878,1
DA:1879,1
DA:1882,6
DA:1883,5
DA:1884,5
DA:1885,1
DA:1886,1
DA:1889,1
DA:1890,1
DA:1893,1
DA:1895,1
DA:1896,1
DA:1897,1
DA:1898,1
DA:1899,1
DA:1900,1
DA:1901,1
DA:1904,9
DA:1905,8
DA:1906,8
DA:1907,1
DA:1908,1
DA:1912,1
DA:1913,1
DA:1916,1
DA:1917,1
DA:1918,1
DA:1919,1
DA:1920,1
DA:1921,1
DA:1922,1
DA:1923,1
DA:1926,8
DA:1927,7
DA:1928,1
DA:1929,1
DA:1930,7
DA:1931,7
DA:1932,7
DA:1933,7
DA:1934,7
DA:1935,7
DA:1936,7
DA:1937,7
DA:1938,1
DA:1939,1
DA:1940,7
DA:1941,7
DA:1942,1
DA:1943,1
DA:1946,1
DA:1947,1
DA:1950,1
DA:1951,1
DA:1952,1
DA:1953,1
DA:1954,1
DA:1955,1
DA:1959,1
DA:1960,1
DA:1961,1
DA:1962,1
DA:1963,1
DA:1965,1
DA:1966,1
DA:1967,1
DA:1968,1
DA:1969,1
DA:1970,1
DA:1971,1
DA:1972,1
DA:1973,1
DA:1974,1
DA:1975,1
DA:1976,1
DA:1978,1
DA:1981,1
DA:1982,1
DA:1985,1
DA:1986,1
DA:1987,1
DA:1988,1
DA:1991,100
DA:1992,100
DA:1993,100
DA:1994,100
DA:1995,100
DA:1996,100
DA:1997,100
DA:1998,100
DA:1999,100
DA:2000,100
DA:2002,100
DA:2004,1
DA:2005,1
DA:2006,1
DA:2007,1
DA:2008,1
DA:2009,1
DA:2010,1
DA:2011,1
DA:2013,1
DA:2015,1
DA:2017,1
DA:2018,1
DA:2019,1
DA:2020,1
DA:2021,1
DA:2022,1
DA:2023,1
DA:2024,1
DA:2025,1
DA:2026,1
DA:2027,1
DA:2028,1
DA:2029,1
DA:2030,1
DA:2031,1
DA:2033,1
DA:2034,1
DA:2035,1
DA:2036,1
DA:2037,1
DA:2038,1
DA:2039,1
DA:2041,1
DA:2043,1
DA:2045,1
DA:2046,1
DA:2047,1
DA:2048,1
DA:2049,1
DA:2050,1
DA:2051,1
DA:2052,1
DA:2053,1
DA:2054,1
DA:2056,1
DA:2057,1
DA:2058,1
DA:2059,1
DA:2060,1
DA:2061,1
DA:2062,1
DA:2064,1
DA:2066,1
DA:2068,1
DA:2069,1
DA:2070,1
DA:2071,1
DA:2072,1
DA:2073,1
DA:2074,1
DA:2075,1
DA:2076,1
DA:2077,1
DA:2078,1
DA:2079,1
DA:2080,1
DA:2081,1
DA:2082,1
DA:2083,1
DA:2084,1
DA:2085,1
DA:2086,1
DA:2088,1
DA:2089,1
DA:2090,1
DA:2091,1
DA:2092,1
DA:2093,1
DA:2094,1
DA:2096,1
DA:2098,1
DA:2100,1
DA:2101,1
DA:2102,1
DA:2103,1
DA:2104,1
DA:2105,1
DA:2106,1
DA:2107,1
DA:2108,1
DA:2109,1
DA:2111,1
DA:2112,1
DA:2113,1
DA:2114,1
DA:2115,1
DA:2116,1
DA:2117,1
DA:2119,1
DA:2121,1
DA:2123,1
DA:2124,1
DA:2125,1
DA:2126,1
DA:2127,1
DA:2128,1
DA:2129,1
DA:2130,1
DA:2131,1
DA:2132,1
DA:2133,1
DA:2134,1
DA:2135,1
DA:2136,1
DA:2137,1
DA:2138,1
DA:2140,1
DA:2141,1
DA:2142,1
DA:2143,1
DA:2144,1
DA:2145,1
DA:2146,1
DA:2148,1
DA:2150,1
DA:2152,1
DA:2153,1
DA:2154,1
DA:2155,1
DA:2156,1
DA:2157,1
DA:2158,1
DA:2159,1
DA:2161,1
DA:2162,1
DA:2163,1
DA:2164,1
DA:2165,1
DA:2166,1
DA:2167,1
DA:2169,1
DA:2171,1
DA:2174,1
DA:2175,1
DA:2178,1
DA:2179,1
DA:2180,1
DA:2181,1
DA:2182,1
DA:2183,1
DA:2184,1
DA:2185,1
DA:2186,1
DA:2187,1
DA:2188,1
DA:2189,1
DA:2190,1
DA:2191,1
DA:2193,1
DA:2194,1
DA:2195,1
DA:2196,1
DA:2197,1
DA:2198,1
DA:2199,1
DA:2201,1
DA:2204,1
DA:2207,1
DA:2208,1
DA:2209,1
DA:2212,31
DA:2213,31
DA:2214,31
DA:2215,31
DA:2216,31
DA:2217,31
DA:2218,31
DA:2221,105
DA:2222,105
DA:2223,105
DA:2224,105
DA:2225,105
DA:2226,105
DA:2227,105
DA:2228,105
DA:2229,105
DA:2230,105
DA:2231,105
DA:2232,105
DA:2233,105
DA:2234,105
DA:2235,105
DA:2236,105
DA:2237,105
DA:2238,105
DA:2239,105
DA:2240,105
DA:2241,105
DA:2242,105
DA:2243,105
DA:2244,105
DA:2245,105
DA:2246,105
DA:2247,105
DA:2248,105
DA:2249,105
DA:2250,105
DA:2251,105
BRF:0
BRH:0
LF:1745
LH:1564
end_of_record
SF:/home/nathan/Projects/smith/shared/smith-metrics/src/early_stopping.rs
FN:738,_RNvMs1_NtCs6Icymx2u3fr_13smith_metrics14early_stoppingNtB5_26EarlyStoppingConfigBuilder14check_interval
FN:727,_RNvMs1_NtCs6Icymx2u3fr_13smith_metrics14early_stoppingNtB5_26EarlyStoppingConfigBuilder15aggressive_mode
FN:717,_RNvMs1_NtCs6Icymx2u3fr_13smith_metrics14early_stoppingNtB5_26EarlyStoppingConfigBuilder19max_runtime_seconds
FN:712,_RNvMs1_NtCs6Icymx2u3fr_13smith_metrics14early_stoppingNtB5_26EarlyStoppingConfigBuilder19min_runtime_seconds
FN:732,_RNvMs1_NtCs6Icymx2u3fr_13smith_metrics14early_stoppingNtB5_26EarlyStoppingConfigBuilder19resource_thresholds
FN:722,_RNvMs1_NtCs6Icymx2u3fr_13smith_metrics14early_stoppingNtB5_26EarlyStoppingConfigBuilder32performance_threshold_percentile
FN:706,_RNvMs1_NtCs6Icymx2u3fr_13smith_metrics14early_stoppingNtB5_26EarlyStoppingConfigBuilder3new
FN:743,_RNvMs1_NtCs6Icymx2u3fr_13smith_metrics14early_stoppingNtB5_26EarlyStoppingConfigBuilder5build
FN:46,_RNvXNtCs6Icymx2u3fr_13smith_metrics14early_stoppingNtB2_19EarlyStoppingConfigNtNtCs66KPHxksi63_4core7default7Default7default
FN:106,_RNvXs_NtCs6Icymx2u3fr_13smith_metrics14early_stoppingNtB4_13ResourceUsageNtNtCs66KPHxksi63_4core7default7Default7default
FN:472,_RNCNCNvMs0_NtCs6Icymx2u3fr_13smith_metrics14early_stoppingNtB9_20EarlyStoppingService22handle_benchmark_event00Bb_
FN:302,_RNCNCNvMs0_NtCs6Icymx2u3fr_13smith_metrics14early_stoppingNtB9_20EarlyStoppingService22start_event_monitoring00Bb_
FN:355,_RNCNCNvMs0_NtCs6Icymx2u3fr_13smith_metrics14early_stoppingNtB9_20EarlyStoppingService25start_periodic_evaluation00Bb_
FN:394,_RNCNCNvMs0_NtCs6Icymx2u3fr_13smith_metrics14early_stoppingNtB9_20EarlyStoppingService25start_resource_monitoring00Bb_
FN:493,_RNCNCNvMs0_NtCs6Icymx2u3fr_13smith_metrics14early_stoppingNtB9_20EarlyStoppingService26evaluate_all_running_tasks00Bb_
FN:289,_RNCNCNvMs0_NtCs6Icymx2u3fr_13smith_metrics14early_stoppingNtB9_20EarlyStoppingService31evaluate_run_for_early_stopping00Bb_
FN:274,_RNCNvMs0_NtCs6Icymx2u3fr_13smith_metrics14early_stoppingNtB7_20EarlyStoppingService17get_running_tasks0B9_
FN:545,_RNCNvMs0_NtCs6Icymx2u3fr_13smith_metrics14early_stoppingNtB7_20EarlyStoppingService20evaluate_single_task0B9_
FN:614,_RNCNvMs0_NtCs6Icymx2u3fr_13smith_metrics14early_stoppingNtB7_20EarlyStoppingService21check_resource_limits0B9_
FN:421,_RNCNvMs0_NtCs6Icymx2u3fr_13smith_metrics14early_stoppingNtB7_20EarlyStoppingService22handle_benchmark_event0B9_
FN:296,_RNCNvMs0_NtCs6Icymx2u3fr_13smith_metrics14early_stoppingNtB7_20EarlyStoppingService22start_event_monitoring0B9_
FN:348,_RNCNvMs0_NtCs6Icymx2u3fr_13smith_metrics14early_stoppingNtB7_20EarlyStoppingService25start_periodic_evaluation0B9_
FN:388,_RNCNvMs0_NtCs6Icymx2u3fr_13smith_metrics14early_stoppingNtB7_20EarlyStoppingService25start_resource_monitoring0B9_
FN:488,_RNCNvMs0_NtCs6Icymx2u3fr_13smith_metrics14early_stoppingNtB7_20EarlyStoppingService26evaluate_all_running_tasks0B9_
FN:684,_RNCNvMs0_NtCs6Icymx2u3fr_13smith_metrics14early_stoppingNtB7_20EarlyStoppingService30send_early_stop_recommendation0B9_
FN:282,_RNCNvMs0_NtCs6Icymx2u3fr_13smith_metrics14early_stoppingNtB7_20EarlyStoppingService31evaluate_run_for_early_stopping0B9_
FN:695,_RNCNvMs0_NtCs6Icymx2u3fr_13smith_metrics14early_stoppingNtB7_20EarlyStoppingService32evaluate_task_for_early_stopping0B9_
FN:263,_RNCNvMs0_NtCs6Icymx2u3fr_13smith_metrics14early_stoppingNtB7_20EarlyStoppingService4stop0B9_
FN:241,_RNCNvMs0_NtCs6Icymx2u3fr_13smith_metrics14early_stoppingNtB7_20EarlyStoppingService5start0B9_
FN:269,_RNCNvMs0_NtCs6Icymx2u3fr_13smith_metrics14early_stoppingNtB7_20EarlyStoppingService9get_stats0B9_
FN:274,_RNvMs0_NtCs6Icymx2u3fr_13smith_metrics14early_stoppingNtB5_20EarlyStoppingService17get_running_tasks
FN:541,_RNvMs0_NtCs6Icymx2u3fr_13smith_metrics14early_stoppingNtB5_20EarlyStoppingService20evaluate_single_task
FN:610,_RNvMs0_NtCs6Icymx2u3fr_13smith_metrics14early_stoppingNtB5_20EarlyStoppingService21check_resource_limits
FN:417,_RNvMs0_NtCs6Icymx2u3fr_13smith_metrics14early_stoppingNtB5_20EarlyStoppingService22handle_benchmark_event
FN:296,_RNvMs0_NtCs6Icymx2u3fr_13smith_metrics14early_stoppingNtB5_20EarlyStoppingService22start_event_monitoring
FN:348,_RNvMs0_NtCs6Icymx2u3fr_13smith_metrics14early_stoppingNtB5_20EarlyStoppingService25start_periodic_evaluation
FN:388,_RNvMs0_NtCs6Icymx2u3fr_13smith_metrics14early_stoppingNtB5_20EarlyStoppingService25start_resource_monitoring
FN:483,_RNvMs0_NtCs6Icymx2u3fr_13smith_metrics14early_stoppingNtB5_20EarlyStoppingService26evaluate_all_running_tasks
FN:681,_RNvMs0_NtCs6Icymx2u3fr_13smith_metrics14early_stoppingNtB5_20EarlyStoppingService30send_early_stop_recommendation
FN:279,_RNvMs0_NtCs6Icymx2u3fr_13smith_metrics14early_stoppingNtB5_20EarlyStoppingService31evaluate_run_for_early_stopping
FN:692,_RNvMs0_NtCs6Icymx2u3fr_13smith_metrics14early_stoppingNtB5_20EarlyStoppingService32evaluate_task_for_early_stopping
FN:206,_RNvMs0_NtCs6Icymx2u3fr_13smith_metrics14early_stoppingNtB5_20EarlyStoppingService3new
FN:263,_RNvMs0_NtCs6Icymx2u3fr_13smith_metrics14early_stoppingNtB5_20EarlyStoppingService4stop
FN:241,_RNvMs0_NtCs6Icymx2u3fr_13smith_metrics14early_stoppingNtB5_20EarlyStoppingService5start
FN:269,_RNvMs0_NtCs6Icymx2u3fr_13smith_metrics14early_stoppingNtB5_20EarlyStoppingService9get_stats
FN:749,_RNvXs2_NtCs6Icymx2u3fr_13smith_metrics14early_stoppingNtB5_26EarlyStoppingConfigBuilderNtNtCs66KPHxksi63_4core7default7Default7default
FN:785,_RNCNvNtNtCs6Icymx2u3fr_13smith_metrics14early_stopping5testss_24test_early_stop_decision0B7_
FN:1194,_RNCNvNtNtCs6Icymx2u3fr_13smith_metrics14early_stopping5testss_45test_benchmark_event_handling_data_extraction0B7_
FN:1219,_RNCNvNtNtCs6Icymx2u3fr_13smith_metrics14early_stopping5testss_45test_benchmark_event_handling_data_extractions_0B7_
FN:777,_RNvNtNtCs6Icymx2u3fr_13smith_metrics14early_stopping5testss_19test_default_config
FN:785,_RNvNtNtCs6Icymx2u3fr_13smith_metrics14early_stopping5testss_24test_early_stop_decision
FN:805,_RNvNtNtCs6Icymx2u3fr_13smith_metrics14early_stopping5testss_27test_resource_usage_default
FN:937,_RNvNtNtCs6Icymx2u3fr_13smith_metrics14early_stopping5testss_31test_early_stop_comparison_data
FN:814,_RNvNtNtCs6Icymx2u3fr_13smith_metrics14early_stopping5testss_33test_early_stop_decision_creation
FN:759,_RNvNtNtCs6Icymx2u3fr_13smith_metrics14early_stopping5testss_34test_early_stopping_config_builder
FN:1091,_RNvNtNtCs6Icymx2u3fr_13smith_metrics14early_stopping5testss_34test_resource_limit_checking_logic
FN:1429,_RNvNtNtCs6Icymx2u3fr_13smith_metrics14early_stopping5testss_37test_early_stopping_config_edge_cases
FN:842,_RNvNtNtCs6Icymx2u3fr_13smith_metrics14early_stopping5testss_37test_early_stopping_config_validation
FN:1369,_RNvNtNtCs6Icymx2u3fr_13smith_metrics14early_stopping5testss_38test_running_task_lifecycle_simulation
FN:899,_RNvNtNtCs6Icymx2u3fr_13smith_metrics14early_stopping5testss_40test_early_stopping_config_serialization
FN:1159,_RNvNtNtCs6Icymx2u3fr_13smith_metrics14early_stopping5testss_45test_benchmark_event_handling_data_extraction
FN:954,_RNvNtNtCs6Icymx2u3fr_13smith_metrics14early_stopping5testss_46test_early_stopping_decision_confidence_levels
FN:1283,_RNvNtNtCs6Icymx2u3fr_13smith_metrics14early_stopping5testss_48test_early_stopping_service_stats_initialization
FN:1324,_RNvNtNtCs6Icymx2u3fr_13smith_metrics14early_stopping5testss_49test_early_stopping_comparison_data_comprehensive
FN:871,_RNvNtNtCs6Icymx2u3fr_13smith_metrics14early_stopping5testss_52test_early_stopping_config_builder_complete_workflow
FN:1021,_RNvNtNtCs6Icymx2u3fr_13smith_metrics14early_stopping5testss_52test_evaluate_task_for_early_stopping_internal_logic
FN:985,_RNvNtNtCs6Icymx2u3fr_13smith_metrics14early_stopping5testss_53test_send_early_stop_recommendation_message_structure
FNDA:1,_RNvMs1_NtCs6Icymx2u3fr_13smith_metrics14early_stoppingNtB5_26EarlyStoppingConfigBuilder14check_interval
FNDA:2,_RNvMs1_NtCs6Icymx2u3fr_13smith_metrics14early_stoppingNtB5_26EarlyStoppingConfigBuilder15aggressive_mode
FNDA:2,_RNvMs1_NtCs6Icymx2u3fr_13smith_metrics14early_stoppingNtB5_26EarlyStoppingConfigBuilder19max_runtime_seconds
FNDA:2,_RNvMs1_NtCs6Icymx2u3fr_13smith_metrics14early_stoppingNtB5_26EarlyStoppingConfigBuilder19min_runtime_seconds
FNDA:2,_RNvMs1_NtCs6Icymx2u3fr_13smith_metrics14early_stoppingNtB5_26EarlyStoppingConfigBuilder19resource_thresholds
FNDA:2,_RNvMs1_NtCs6Icymx2u3fr_13smith_metrics14early_stoppingNtB5_26EarlyStoppingConfigBuilder32performance_threshold_percentile
FNDA:3,_RNvMs1_NtCs6Icymx2u3fr_13smith_metrics14early_stoppingNtB5_26EarlyStoppingConfigBuilder3new
FNDA:3,_RNvMs1_NtCs6Icymx2u3fr_13smith_metrics14early_stoppingNtB5_26EarlyStoppingConfigBuilder5build
FNDA:6,_RNvXNtCs6Icymx2u3fr_13smith_metrics14early_stoppingNtB2_19EarlyStoppingConfigNtNtCs66KPHxksi63_4core7default7Default7default
FNDA:5,_RNvXs_NtCs6Icymx2u3fr_13smith_metrics14early_stoppingNtB4_13ResourceUsageNtNtCs66KPHxksi63_4core7default7Default7default
FNDA:0,_RNCNCNvMs0_NtCs6Icymx2u3fr_13smith_metrics14early_stoppingNtB9_20EarlyStoppingService22handle_benchmark_event00Bb_
FNDA:0,_RNCNCNvMs0_NtCs6Icymx2u3fr_13smith_metrics14early_stoppingNtB9_20EarlyStoppingService22start_event_monitoring00Bb_
FNDA:0,_RNCNCNvMs0_NtCs6Icymx2u3fr_13smith_metrics14early_stoppingNtB9_20EarlyStoppingService25start_periodic_evaluation00Bb_
FNDA:0,_RNCNCNvMs0_NtCs6Icymx2u3fr_13smith_metrics14early_stoppingNtB9_20EarlyStoppingService25start_resource_monitoring00Bb_
FNDA:0,_RNCNCNvMs0_NtCs6Icymx2u3fr_13smith_metrics14early_stoppingNtB9_20EarlyStoppingService26evaluate_all_running_tasks00Bb_
FNDA:0,_RNCNCNvMs0_NtCs6Icymx2u3fr_13smith_metrics14early_stoppingNtB9_20EarlyStoppingService31evaluate_run_for_early_stopping00Bb_
FNDA:0,_RNCNvMs0_NtCs6Icymx2u3fr_13smith_metrics14early_stoppingNtB7_20EarlyStoppingService17get_running_tasks0B9_
FNDA:0,_RNCNvMs0_NtCs6Icymx2u3fr_13smith_metrics14early_stoppingNtB7_20EarlyStoppingService20evaluate_single_task0B9_
FNDA:0,_RNCNvMs0_NtCs6Icymx2u3fr_13smith_metrics14early_stoppingNtB7_20EarlyStoppingService21check_resource_limits0B9_
FNDA:0,_RNCNvMs0_NtCs6Icymx2u3fr_13smith_metrics14early_stoppingNtB7_20EarlyStoppingService22handle_benchmark_event0B9_
FNDA:0,_RNCNvMs0_NtCs6Icymx2u3fr_13smith_metrics14early_stoppingNtB7_20EarlyStoppingService22start_event_monitoring0B9_
FNDA:0,_RNCNvMs0_NtCs6Icymx2u3fr_13smith_metrics14early_stoppingNtB7_20EarlyStoppingService25start_periodic_evaluation0B9_
FNDA:0,_RNCNvMs0_NtCs6Icymx2u3fr_13smith_metrics14early_stoppingNtB7_20EarlyStoppingService25start_resource_monitoring0B9_
FNDA:0,_RNCNvMs0_NtCs6Icymx2u3fr_13smith_metrics14early_stoppingNtB7_20EarlyStoppingService26evaluate_all_running_tasks0B9_
FNDA:0,_RNCNvMs0_NtCs6Icymx2u3fr_13smith_metrics14early_stoppingNtB7_20EarlyStoppingService30send_early_stop_recommendation0B9_
FNDA:0,_RNCNvMs0_NtCs6Icymx2u3fr_13smith_metrics14early_stoppingNtB7_20EarlyStoppingService31evaluate_run_for_early_stopping0B9_
FNDA:0,_RNCNvMs0_NtCs6Icymx2u3fr_13smith_metrics14early_stoppingNtB7_20EarlyStoppingService32evaluate_task_for_early_stopping0B9_
FNDA:0,_RNCNvMs0_NtCs6Icymx2u3fr_13smith_metrics14early_stoppingNtB7_20EarlyStoppingService4stop0B9_
FNDA:0,_RNCNvMs0_NtCs6Icymx2u3fr_13smith_metrics14early_stoppingNtB7_20EarlyStoppingService5start0B9_
FNDA:0,_RNCNvMs0_NtCs6Icymx2u3fr_13smith_metrics14early_stoppingNtB7_20EarlyStoppingService9get_stats0B9_
FNDA:0,_RNvMs0_NtCs6Icymx2u3fr_13smith_metrics14early_stoppingNtB5_20EarlyStoppingService17get_running_tasks
FNDA:0,_RNvMs0_NtCs6Icymx2u3fr_13smith_metrics14early_stoppingNtB5_20EarlyStoppingService20evaluate_single_task
FNDA:0,_RNvMs0_NtCs6Icymx2u3fr_13smith_metrics14early_stoppingNtB5_20EarlyStoppingService21check_resource_limits
FNDA:0,_RNvMs0_NtCs6Icymx2u3fr_13smith_metrics14early_stoppingNtB5_20EarlyStoppingService22handle_benchmark_event
FNDA:0,_RNvMs0_NtCs6Icymx2u3fr_13smith_metrics14early_stoppingNtB5_20EarlyStoppingService22start_event_monitoring
FNDA:0,_RNvMs0_NtCs6Icymx2u3fr_13smith_metrics14early_stoppingNtB5_20EarlyStoppingService25start_periodic_evaluation
FNDA:0,_RNvMs0_NtCs6Icymx2u3fr_13smith_metrics14early_stoppingNtB5_20EarlyStoppingService25start_resource_monitoring
FNDA:0,_RNvMs0_NtCs6Icymx2u3fr_13smith_metrics14early_stoppingNtB5_20EarlyStoppingService26evaluate_all_running_tasks
FNDA:0,_RNvMs0_NtCs6Icymx2u3fr_13smith_metrics14early_stoppingNtB5_20EarlyStoppingService30send_early_stop_recommendation
FNDA:0,_RNvMs0_NtCs6Icymx2u3fr_13smith_metrics14early_stoppingNtB5_20EarlyStoppingService31evaluate_run_for_early_stopping
FNDA:0,_RNvMs0_NtCs6Icymx2u3fr_13smith_metrics14early_stoppingNtB5_20EarlyStoppingService32evaluate_task_for_early_stopping
FNDA:0,_RNvMs0_NtCs6Icymx2u3fr_13smith_metrics14early_stoppingNtB5_20EarlyStoppingService3new
FNDA:0,_RNvMs0_NtCs6Icymx2u3fr_13smith_metrics14early_stoppingNtB5_20EarlyStoppingService4stop
FNDA:0,_RNvMs0_NtCs6Icymx2u3fr_13smith_metrics14early_stoppingNtB5_20EarlyStoppingService5start
FNDA:0,_RNvMs0_NtCs6Icymx2u3fr_13smith_metrics14early_stoppingNtB5_20EarlyStoppingService9get_stats
FNDA:0,_RNvXs2_NtCs6Icymx2u3fr_13smith_metrics14early_stoppingNtB5_26EarlyStoppingConfigBuilderNtNtCs66KPHxksi63_4core7default7Default7default
FNDA:1,_RNCNvNtNtCs6Icymx2u3fr_13smith_metrics14early_stopping5testss_24test_early_stop_decision0B7_
FNDA:1,_RNCNvNtNtCs6Icymx2u3fr_13smith_metrics14early_stopping5testss_45test_benchmark_event_handling_data_extraction0B7_
FNDA:0,_RNCNvNtNtCs6Icymx2u3fr_13smith_metrics14early_stopping5testss_45test_benchmark_event_handling_data_extractions_0B7_
FNDA:1,_RNvNtNtCs6Icymx2u3fr_13smith_metrics14early_stopping5testss_19test_default_config
FNDA:1,_RNvNtNtCs6Icymx2u3fr_13smith_metrics14early_stopping5testss_24test_early_stop_decision
FNDA:1,_RNvNtNtCs6Icymx2u3fr_13smith_metrics14early_stopping5testss_27test_resource_usage_default
FNDA:1,_RNvNtNtCs6Icymx2u3fr_13smith_metrics14early_stopping5testss_31test_early_stop_comparison_data
FNDA:1,_RNvNtNtCs6Icymx2u3fr_13smith_metrics14early_stopping5testss_33test_early_stop_decision_creation
FNDA:1,_RNvNtNtCs6Icymx2u3fr_13smith_metrics14early_stopping5testss_34test_early_stopping_config_builder
FNDA:1,_RNvNtNtCs6Icymx2u3fr_13smith_metrics14early_stopping5testss_34test_resource_limit_checking_logic
FNDA:1,_RNvNtNtCs6Icymx2u3fr_13smith_metrics14early_stopping5testss_37test_early_stopping_config_edge_cases
FNDA:1,_RNvNtNtCs6Icymx2u3fr_13smith_metrics14early_stopping5testss_37test_early_stopping_config_validation
FNDA:1,_RNvNtNtCs6Icymx2u3fr_13smith_metrics14early_stopping5testss_38test_running_task_lifecycle_simulation
FNDA:1,_RNvNtNtCs6Icymx2u3fr_13smith_metrics14early_stopping5testss_40test_early_stopping_config_serialization
FNDA:1,_RNvNtNtCs6Icymx2u3fr_13smith_metrics14early_stopping5testss_45test_benchmark_event_handling_data_extraction
FNDA:1,_RNvNtNtCs6Icymx2u3fr_13smith_metrics14early_stopping5testss_46test_early_stopping_decision_confidence_levels
FNDA:1,_RNvNtNtCs6Icymx2u3fr_13smith_metrics14early_stopping5testss_48test_early_stopping_service_stats_initialization
FNDA:1,_RNvNtNtCs6Icymx2u3fr_13smith_metrics14early_stopping5testss_49test_early_stopping_comparison_data_comprehensive
FNDA:1,_RNvNtNtCs6Icymx2u3fr_13smith_metrics14early_stopping5testss_52test_early_stopping_config_builder_complete_workflow
FNDA:1,_RNvNtNtCs6Icymx2u3fr_13smith_metrics14early_stopping5testss_52test_evaluate_task_for_early_stopping_internal_logic
FNDA:1,_RNvNtNtCs6Icymx2u3fr_13smith_metrics14early_stopping5testss_53test_send_early_stop_recommendation_message_structure
FNF:67
FNH:30
DA:46,6
DA:47,6
DA:48,6
DA:49,6
DA:50,6
DA:51,6
DA:52,6
DA:53,6
DA:54,6
DA:55,6
DA:56,6
DA:57,6
DA:58,6
DA:59,6
DA:60,6
DA:106,5
DA:107,5
DA:108,5
DA:109,5
DA:110,5
DA:111,5
DA:112,5
DA:113,5
DA:206,0
DA:207,0
DA:208,0
DA:209,0
DA:210,0
DA:211,0
DA:212,0
DA:213,0
DA:214,0
DA:215,0
DA:216,0
DA:217,0
DA:218,0
DA:219,0
DA:220,0
DA:221,0
DA:222,0
DA:223,0
DA:224,0
DA:225,0
DA:226,0
DA:227,0
DA:228,0
DA:229,0
DA:230,0
DA:231,0
DA:232,0
DA:233,0
DA:234,0
DA:235,0
DA:236,0
DA:237,0
DA:238,0
DA:241,0
DA:242,0
DA:243,0
DA:248,0
DA:251,0
DA:254,0
DA:255,0
DA:256,0
DA:258,0
DA:259,0
DA:260,0
DA:263,0
DA:264,0
DA:265,0
DA:266,0
DA:269,0
DA:270,0
DA:271,0
DA:274,0
DA:275,0
DA:276,0
DA:279,0
DA:280,0
DA:281,0
DA:282,0
DA:283,0
DA:284,0
DA:285,0
DA:288,0
DA:289,0
DA:291,0
DA:292,0
DA:296,0
DA:297,0
DA:298,0
DA:299,0
DA:300,0
DA:302,0
DA:303,0
DA:304,0
DA:305,0
DA:306,0
DA:307,0
DA:308,0
DA:312,0
DA:315,0
DA:316,0
DA:317,0
DA:318,0
DA:319,0
DA:320,0
DA:321,0
DA:322,0
DA:324,0
DA:325,0
DA:326,0
DA:328,0
DA:329,0
DA:330,0
DA:331,0
DA:332,0
DA:333,0
DA:337,0
DA:338,0
DA:339,0
DA:343,0
DA:345,0
DA:346,0
DA:348,0
DA:349,0
DA:350,0
DA:351,0
DA:352,0
DA:353,0
DA:355,0
DA:356,0
DA:357,0
DA:360,0
DA:361,0
DA:366,0
DA:367,0
DA:368,0
DA:369,0
DA:370,0
DA:371,0
DA:372,0
DA:373,0
DA:374,0
DA:375,0
DA:377,0
DA:378,0
DA:379,0
DA:383,0
DA:385,0
DA:386,0
DA:388,0
DA:389,0
DA:390,0
DA:391,0
DA:392,0
DA:394,0
DA:395,0
DA:397,0
DA:400,0
DA:401,0
DA:402,0
DA:403,0
DA:404,0
DA:406,0
DA:407,0
DA:408,0
DA:412,0
DA:414,0
DA:415,0
DA:417,0
DA:418,0
DA:419,0
DA:420,0
DA:421,0
DA:422,0
DA:424,0
DA:425,0
DA:426,0
DA:427,0
DA:428,0
DA:429,0
DA:430,0
DA:431,0
DA:432,0
DA:433,0
DA:434,0
DA:435,0
DA:436,0
DA:437,0
DA:438,0
DA:439,0
DA:440,0
DA:441,0
DA:444,0
DA:445,0
DA:447,0
DA:450,0
DA:451,0
DA:452,0
DA:456,0
DA:457,0
DA:459,0
DA:460,0
DA:461,0
DA:462,0
DA:465,0
DA:466,0
DA:467,0
DA:468,0
DA:469,0
DA:472,0
DA:473,0
DA:474,0
DA:475,0
DA:477,0
DA:480,0
DA:481,0
DA:483,0
DA:484,0
DA:485,0
DA:486,0
DA:487,0
DA:488,0
DA:489,0
DA:490,0
DA:491,0
DA:492,0
DA:493,0
DA:494,0
DA:495,0
DA:496,0
DA:497,0
DA:498,0
DA:499,0
DA:500,0
DA:503,0
DA:504,0
DA:505,0
DA:507,0
DA:508,0
DA:509,0
DA:514,0
DA:515,0
DA:516,0
DA:517,0
DA:518,0
DA:520,0
DA:521,0
DA:527,0
DA:529,0
DA:530,0
DA:531,0
DA:538,0
DA:539,0
DA:541,0
DA:542,0
DA:543,0
DA:544,0
DA:545,0
DA:547,0
DA:548,0
DA:549,0
DA:550,0
DA:551,0
DA:552,0
DA:553,0
DA:554,0
DA:555,0
DA:556,0
DA:557,0
DA:560,0
DA:561,0
DA:562,0
DA:563,0
DA:565,0
DA:566,0
DA:567,0
DA:568,0
DA:570,0
DA:571,0
DA:572,0
DA:573,0
DA:574,0
DA:575,0
DA:576,0
DA:577,0
DA:578,0
DA:579,0
DA:580,0
DA:581,0
DA:582,0
DA:583,0
DA:584,0
DA:587,0
DA:589,0
DA:590,0
DA:591,0
DA:596,0
DA:599,0
DA:600,0
DA:601,0
DA:602,0
DA:603,0
DA:604,0
DA:605,0
DA:606,0
DA:607,0
DA:608,0
DA:610,0
DA:611,0
DA:612,0
DA:613,0
DA:614,0
DA:615,0
DA:616,0
DA:617,0
DA:620,0
DA:621,0
DA:622,0
DA:624,0
DA:625,0
DA:626,0
DA:627,0
DA:628,0
DA:629,0
DA:630,0
DA:632,0
DA:633,0
DA:634,0
DA:635,0
DA:636,0
DA:637,0
DA:638,0
DA:639,0
DA:640,0
DA:641,0
DA:643,0
DA:644,0
DA:645,0
DA:646,0
DA:647,0
DA:648,0
DA:649,0
DA:650,0
DA:651,0
DA:652,0
DA:653,0
DA:654,0
DA:655,0
DA:656,0
DA:657,0
DA:658,0
DA:659,0
DA:660,0
DA:661,0
DA:662,0
DA:664,0
DA:665,0
DA:666,0
DA:670,0
DA:671,0
DA:675,0
DA:678,0
DA:679,0
DA:681,0
DA:682,0
DA:683,0
DA:684,0
DA:685,0
DA:686,0
DA:688,0
DA:689,0
DA:690,0
DA:692,0
DA:693,0
DA:694,0
DA:695,0
DA:696,0
DA:697,0
DA:706,3
DA:707,3
DA:708,3
DA:709,3
DA:710,3
DA:712,2
DA:713,2
DA:714,2
DA:715,2
DA:717,2
DA:718,2
DA:719,2
DA:720,2
DA:722,2
DA:723,2
DA:724,2
DA:725,2
DA:727,2
DA:728,2
DA:729,2
DA:730,2
DA:732,2
DA:733,2
DA:734,2
DA:735,2
DA:736,2
DA:738,1
DA:739,1
DA:740,1
DA:741,1
DA:743,3
DA:744,3
DA:745,3
DA:749,0
DA:750,0
DA:751,0
DA:759,1
DA:760,1
DA:761,1
DA:762,1
DA:763,1
DA:764,1
DA:765,1
DA:766,1
DA:768,1
DA:769,1
DA:770,1
DA:771,1
DA:772,1
DA:773,1
DA:774,1
DA:777,1
DA:778,1
DA:779,1
DA:780,1
DA:781,1
DA:782,1
DA:785,1
DA:786,1
DA:787,1
DA:788,1
DA:789,1
DA:790,1
DA:791,1
DA:792,1
DA:793,1
DA:794,1
DA:796,1
DA:797,1
DA:798,1
DA:799,1
DA:805,1
DA:806,1
DA:807,1
DA:808,1
DA:809,1
DA:810,1
DA:811,1
DA:814,1
DA:815,1
DA:816,1
DA:817,1
DA:818,1
DA:819,1
DA:820,1
DA:821,1
DA:822,1
DA:823,1
DA:824,1
DA:825,1
DA:826,1
DA:827,1
DA:828,1
DA:829,1
DA:831,1
DA:832,1
DA:833,1
DA:834,1
DA:836,1
DA:837,1
DA:838,1
DA:839,1
DA:842,1
DA:844,1
DA:845,1
DA:846,1
DA:847,1
DA:848,1
DA:849,1
DA:850,1
DA:851,1
DA:852,1
DA:853,1
DA:854,1
DA:855,1
DA:856,1
DA:859,1
DA:860,1
DA:861,1
DA:862,1
DA:863,1
DA:864,1
DA:865,1
DA:866,1
DA:867,1
DA:868,1
DA:871,1
DA:872,1
DA:875,1
DA:876,1
DA:877,1
DA:880,1
DA:881,1
DA:882,1
DA:883,1
DA:884,1
DA:885,1
DA:886,1
DA:887,1
DA:889,1
DA:890,1
DA:891,1
DA:892,1
DA:893,1
DA:894,1
DA:895,1
DA:896,1
DA:899,1
DA:902,1
DA:903,1
DA:904,1
DA:905,1
DA:906,1
DA:907,1
DA:908,1
DA:909,1
DA:910,1
DA:911,1
DA:912,1
DA:913,1
DA:914,1
DA:917,1
DA:918,1
DA:919,1
DA:920,1
DA:921,1
DA:922,1
DA:925,1
DA:926,1
DA:928,1
DA:929,1
DA:930,1
DA:931,1
DA:932,1
DA:933,1
DA:937,1
DA:938,1
DA:939,1
DA:940,1
DA:941,1
DA:942,1
DA:943,1
DA:944,1
DA:947,1
DA:948,1
DA:949,1
DA:950,1
DA:951,1
DA:954,1
DA:956,1
DA:957,1
DA:958,1
DA:959,1
DA:960,1
DA:961,1
DA:962,1
DA:963,1
DA:964,1
DA:967,1
DA:968,1
DA:969,1
DA:970,1
DA:971,1
DA:972,1
DA:973,1
DA:974,1
DA:975,1
DA:978,1
DA:979,1
DA:980,1
DA:981,1
DA:982,1
DA:985,1
DA:987,1
DA:988,1
DA:989,1
DA:990,1
DA:991,1
DA:992,1
DA:993,1
DA:994,1
DA:995,1
DA:996,1
DA:997,1
DA:998,1
DA:999,1
DA:1000,1
DA:1001,1
DA:1004,1
DA:1005,1
DA:1008,1
DA:1009,1
DA:1012,1
DA:1013,1
DA:1014,1
DA:1015,1
DA:1016,1
DA:1017,1
DA:1018,1
DA:1021,1
DA:1023,1
DA:1026,1
DA:1027,1
DA:1028,1
DA:1029,1
DA:1031,1
DA:1032,1
DA:1033,1
DA:1034,1
DA:1035,1
DA:1036,1
DA:1037,1
DA:1038,1
DA:1039,1
DA:1040,1
DA:1041,1
DA:1042,1
DA:1043,1
DA:1044,1
DA:1047,1
DA:1048,1
DA:1049,1
DA:1052,1
DA:1053,1
DA:1054,1
DA:1055,1
DA:1056,1
DA:1057,1
DA:1058,1
DA:1059,1
DA:1060,1
DA:1061,1
DA:1062,1
DA:1063,1
DA:1064,1
DA:1065,1
DA:1067,1
DA:1068,1
DA:1071,1
DA:1072,1
DA:1073,1
DA:1074,1
DA:1075,1
DA:1076,1
DA:1077,1
DA:1078,1
DA:1079,1
DA:1080,1
DA:1081,1
DA:1082,1
DA:1083,1
DA:1084,1
DA:1086,1
DA:1087,1
DA:1088,1
DA:1091,1
DA:1092,1
DA:1093,1
DA:1094,1
DA:1095,1
DA:1096,1
DA:1097,1
DA:1100,1
DA:1101,1
DA:1102,1
DA:1103,1
DA:1104,1
DA:1105,1
DA:1106,1
DA:1107,1
DA:1108,1
DA:1109,1
DA:1110,1
DA:1111,1
DA:1112,1
DA:1113,1
DA:1114,1
DA:1115,1
DA:1116,1
DA:1117,1
DA:1118,1
DA:1121,1
DA:1123,1
DA:1126,1
DA:1127,1
DA:1128,1
DA:1129,1
DA:1130,1
DA:1131,1
DA:1132,1
DA:1133,1
DA:1134,1
DA:1135,1
DA:1138,1
DA:1140,1
DA:1143,1
DA:1144,1
DA:1145,1
DA:1146,1
DA:1147,1
DA:1148,1
DA:1149,1
DA:1150,1
DA:1151,1
DA:1152,1
DA:1154,1
DA:1155,1
DA:1156,1
DA:1159,1
DA:1167,1
DA:1168,1
DA:1169,1
DA:1170,1
DA:1172,1
DA:1173,1
DA:1174,1
DA:1175,1
DA:1176,1
DA:1177,1
DA:1178,1
DA:1179,1
DA:1180,1
DA:1181,1
DA:1182,1
DA:1183,1
DA:1184,1
DA:1185,1
DA:1186,1
DA:1187,1
DA:1188,1
DA:1189,1
DA:1190,1
DA:1191,1
DA:1194,1
DA:1195,1
DA:1198,1
DA:1199,1
DA:1200,1
DA:1201,1
DA:1202,1
DA:1203,1
DA:1204,1
DA:1205,1
DA:1206,1
DA:1207,1
DA:1208,1
DA:1209,1
DA:1210,1
DA:1211,1
DA:1212,1
DA:1213,1
DA:1214,1
DA:1215,1
DA:1216,1
DA:1217,1
DA:1219,1
DA:1220,1
DA:1223,1
DA:1224,1
DA:1225,1
DA:1226,1
DA:1227,1
DA:1228,1
DA:1229,1
DA:1230,1
DA:1231,1
DA:1232,1
DA:1233,1
DA:1234,1
DA:1235,1
DA:1236,1
DA:1237,1
DA:1238,1
DA:1239,1
DA:1240,1
DA:1241,1
DA:1242,1
DA:1243,1
DA:1244,1
DA:1245,1
DA:1246,1
DA:1247,1
DA:1248,1
DA:1249,1
DA:1250,1
DA:1251,1
DA:1252,1
DA:1253,1
DA:1254,1
DA:1255,1
DA:1256,1
DA:1257,1
DA:1258,1
DA:1259,1
DA:1260,1
DA:1261,1
DA:1262,1
DA:1264,1
DA:1265,1
DA:1266,1
DA:1267,1
DA:1268,1
DA:1270,1
DA:1271,1
DA:1272,1
DA:1273,1
DA:1274,1
DA:1275,1
DA:1276,1
DA:1278,0
DA:1280,1
DA:1283,1
DA:1285,1
DA:1286,1
DA:1287,1
DA:1288,1
DA:1289,1
DA:1290,1
DA:1291,1
DA:1292,1
DA:1293,1
DA:1294,1
DA:1295,1
DA:1296,1
DA:1297,1
DA:1298,1
DA:1299,1
DA:1300,1
DA:1301,1
DA:1302,1
DA:1305,1
DA:1306,1
DA:1307,1
DA:1308,1
DA:1309,1
DA:1310,1
DA:1313,1
DA:1314,1
DA:1315,1
DA:1318,1
DA:1319,1
DA:1320,1
DA:1321,1
DA:1324,1
DA:1326,1
DA:1327,1
DA:1328,1
DA:1329,1
DA:1330,1
DA:1331,1
DA:1332,1
DA:1335,1
DA:1336,1
DA:1337,1
DA:1338,1
DA:1341,1
DA:1342,1
DA:1343,1
DA:1344,1
DA:1345,1
DA:1346,1
DA:1347,1
DA:1350,1
DA:1351,1
DA:1352,1
DA:1355,1
DA:1356,1
DA:1357,1
DA:1358,1
DA:1359,1
DA:1361,1
DA:1362,1
DA:1363,1
DA:1364,1
DA:1365,1
DA:1366,1
DA:1369,1
DA:1370,1
DA:1373,1
DA:1374,1
DA:1375,1
DA:1376,1
DA:1377,1
DA:1378,1
DA:1379,1
DA:1380,1
DA:1381,1
DA:1382,1
DA:1383,1
DA:1384,1
DA:1385,1
DA:1386,1
DA:1389,1
DA:1390,1
DA:1391,1
DA:1392,1
DA:1393,1
DA:1394,1
DA:1395,1
DA:1397,6
DA:1398,5
DA:1399,5
DA:1400,5
DA:1401,5
DA:1402,5
DA:1403,5
DA:1406,5
DA:1407,5
DA:1408,5
DA:1409,5
DA:1410,5
DA:1413,5
DA:1414,3
DA:1415,2
DA:1419,1
DA:1420,1
DA:1422,1
DA:1423,1
DA:1424,1
DA:1425,1
DA:1426,1
DA:1429,1
DA:1431,1
DA:1432,1
DA:1433,1
DA:1434,1
DA:1435,1
DA:1436,1
DA:1437,1
DA:1438,1
DA:1439,1
DA:1440,1
DA:1441,1
DA:1442,1
DA:1443,1
DA:1446,1
DA:1447,1
DA:1448,1
DA:1449,1
DA:1450,1
DA:1451,1
DA:1452,1
DA:1453,1
DA:1454,1
DA:1455,1
DA:1456,1
DA:1457,1
DA:1458,1
DA:1461,1
DA:1462,1
DA:1463,1
DA:1464,1
DA:1465,1
BRF:0
BRH:0
LF:997
LH:615
end_of_record
SF:/home/nathan/Projects/smith/shared/smith-metrics/src/exporters.rs
FN:1464,_RNvNtNtCs6Icymx2u3fr_13smith_metrics9exporters5testss_25test_remove_unused_import
FN:1220,_RNvNtNtCs6Icymx2u3fr_13smith_metrics9exporters5testss_26test_stream_error_handling
FN:477,_RNvNtNtCs6Icymx2u3fr_13smith_metrics9exporters5testss_27test_multi_service_exporter
FN:725,_RNvNtNtCs6Icymx2u3fr_13smith_metrics9exporters5testss_28test_bind_address_variations
FN:1400,_RNvNtNtCs6Icymx2u3fr_13smith_metrics9exporters5testss_29test_request_with_empty_lines
FN:467,_RNvNtNtCs6Icymx2u3fr_13smith_metrics9exporters5testss_30test_metrics_exporter_creation
FN:1191,_RNvNtNtCs6Icymx2u3fr_13smith_metrics9exporters5testss_31test_request_parsing_edge_cases
FN:1349,_RNvNtNtCs6Icymx2u3fr_13smith_metrics9exporters5testss_32test_concurrent_metrics_requests
FN:748,_RNvNtNtCs6Icymx2u3fr_13smith_metrics9exporters5testss_32test_exporter_registry_isolation
FN:1429,_RNvNtNtCs6Icymx2u3fr_13smith_metrics9exporters5testss_34test_registry_with_complex_metrics
FN:627,_RNvNtNtCs6Icymx2u3fr_13smith_metrics9exporters5testss_35test_metrics_text_format_validation
FN:603,_RNvNtNtCs6Icymx2u3fr_13smith_metrics9exporters5testss_36test_metrics_exporter_error_handling
FN:552,_RNvNtNtCs6Icymx2u3fr_13smith_metrics9exporters5testss_36test_multi_service_exporter_creation
FN:1151,_RNvNtNtCs6Icymx2u3fr_13smith_metrics9exporters5testss_38test_handle_request_with_large_metrics
FN:498,_RNvNtNtCs6Icymx2u3fr_13smith_metrics9exporters5testss_38test_metrics_exporter_basic_properties
FN:1283,_RNvNtNtCs6Icymx2u3fr_13smith_metrics9exporters5testss_38test_metrics_exporter_server_lifecycle
FN:782,_RNvNtNtCs6Icymx2u3fr_13smith_metrics9exporters5testss_39test_handle_metrics_request_get_metrics
FN:938,_RNvNtNtCs6Icymx2u3fr_13smith_metrics9exporters5testss_39test_handle_metrics_request_post_method
FN:660,_RNvNtNtCs6Icymx2u3fr_13smith_metrics9exporters5testss_39test_metrics_exporter_concurrent_access
FN:707,_RNvNtNtCs6Icymx2u3fr_13smith_metrics9exporters5testss_40test_metrics_exporter_port_configuration
FN:1243,_RNvNtNtCs6Icymx2u3fr_13smith_metrics9exporters5testss_40test_metrics_exporter_start_bind_failure
FN:881,_RNvNtNtCs6Icymx2u3fr_13smith_metrics9exporters5testss_41test_handle_metrics_request_404_not_found
FN:850,_RNvNtNtCs6Icymx2u3fr_13smith_metrics9exporters5testss_41test_handle_metrics_request_root_endpoint
FN:507,_RNvNtNtCs6Icymx2u3fr_13smith_metrics9exporters5testss_41test_metrics_exporter_custom_bind_address
FN:534,_RNvNtNtCs6Icymx2u3fr_13smith_metrics9exporters5testss_41test_metrics_exporter_export_with_metrics
FN:909,_RNvNtNtCs6Icymx2u3fr_13smith_metrics9exporters5testss_43test_handle_metrics_request_400_bad_request
FN:821,_RNvNtNtCs6Icymx2u3fr_13smith_metrics9exporters5testss_43test_handle_metrics_request_health_endpoint
FN:520,_RNvNtNtCs6Icymx2u3fr_13smith_metrics9exporters5testss_43test_metrics_exporter_export_empty_registry
FN:1314,_RNvNtNtCs6Icymx2u3fr_13smith_metrics9exporters5testss_44test_multi_service_exporter_server_lifecycle
FN:581,_RNvNtNtCs6Icymx2u3fr_13smith_metrics9exporters5testss_45test_multi_service_exporter_overwrite_service
FN:1120,_RNvNtNtCs6Icymx2u3fr_13smith_metrics9exporters5testss_46test_handle_multi_service_request_unknown_path
FN:1266,_RNvNtNtCs6Icymx2u3fr_13smith_metrics9exporters5testss_46test_multi_service_exporter_start_bind_failure
FN:695,_RNvNtNtCs6Icymx2u3fr_13smith_metrics9exporters5testss_47test_multi_service_exporter_empty_service_names
FN:561,_RNvNtNtCs6Icymx2u3fr_13smith_metrics9exporters5testss_49test_multi_service_exporter_add_multiple_services
FN:965,_RNvNtNtCs6Icymx2u3fr_13smith_metrics9exporters5testss_50test_handle_multi_service_request_combined_metrics
FN:1014,_RNvNtNtCs6Icymx2u3fr_13smith_metrics9exporters5testss_50test_handle_multi_service_request_specific_service
FN:1084,_RNvNtNtCs6Icymx2u3fr_13smith_metrics9exporters5testss_52test_handle_multi_service_request_root_with_services
FN:1053,_RNvNtNtCs6Icymx2u3fr_13smith_metrics9exporters5testss_53test_handle_multi_service_request_nonexistent_service
FN:85,_RNvMNtCs6Icymx2u3fr_13smith_metrics9exportersNtB2_15MetricsExporter12bind_address
FN:67,_RNvMNtCs6Icymx2u3fr_13smith_metrics9exportersNtB2_15MetricsExporter14export_metrics
FN:28,_RNvMNtCs6Icymx2u3fr_13smith_metrics9exportersNtB2_15MetricsExporter17with_bind_address
FN:19,_RNvMNtCs6Icymx2u3fr_13smith_metrics9exportersNtB2_15MetricsExporter3new
FN:80,_RNvMNtCs6Icymx2u3fr_13smith_metrics9exportersNtB2_15MetricsExporter4port
FN:37,_RNvMNtCs6Icymx2u3fr_13smith_metrics9exportersNtB2_15MetricsExporter5start
FN:253,_RNvMs_NtCs6Icymx2u3fr_13smith_metrics9exportersNtB4_20MultiServiceExporter11add_service
FN:244,_RNvMs_NtCs6Icymx2u3fr_13smith_metrics9exportersNtB4_20MultiServiceExporter3new
FN:258,_RNvMs_NtCs6Icymx2u3fr_13smith_metrics9exportersNtB4_20MultiServiceExporter5start
FN:91,_RNvNtCs6Icymx2u3fr_13smith_metrics9exporters22handle_metrics_request
FN:297,_RNvNtCs6Icymx2u3fr_13smith_metrics9exporters28handle_multi_service_request
FN:41,_RNCNCNvMNtCs6Icymx2u3fr_13smith_metrics9exportersNtB6_15MetricsExporter5start00B8_
FN:49,_RNCNCNvMNtCs6Icymx2u3fr_13smith_metrics9exportersNtB6_15MetricsExporter5start0s_0B8_
FN:262,_RNCNCNvMs_NtCs6Icymx2u3fr_13smith_metrics9exportersNtB8_20MultiServiceExporter5start00Ba_
FN:276,_RNCNCNvMs_NtCs6Icymx2u3fr_13smith_metrics9exportersNtB8_20MultiServiceExporter5start0s_0Ba_
FN:100,_RNCNCNvNtCs6Icymx2u3fr_13smith_metrics9exporters22handle_metrics_request00B7_
FN:122,_RNCNCNvNtCs6Icymx2u3fr_13smith_metrics9exporters22handle_metrics_request0s0_0B7_
FN:136,_RNCNCNvNtCs6Icymx2u3fr_13smith_metrics9exporters22handle_metrics_request0s1_0B7_
FN:151,_RNCNCNvNtCs6Icymx2u3fr_13smith_metrics9exporters22handle_metrics_request0s2_0B7_
FN:181,_RNCNCNvNtCs6Icymx2u3fr_13smith_metrics9exporters22handle_metrics_request0s3_0B7_
FN:199,_RNCNCNvNtCs6Icymx2u3fr_13smith_metrics9exporters22handle_metrics_request0s4_0B7_
FN:220,_RNCNCNvNtCs6Icymx2u3fr_13smith_metrics9exporters22handle_metrics_request0s5_0B7_
FN:230,_RNCNCNvNtCs6Icymx2u3fr_13smith_metrics9exporters22handle_metrics_request0s6_0B7_
FN:119,_RNCNCNvNtCs6Icymx2u3fr_13smith_metrics9exporters22handle_metrics_request0s_0B7_
FN:306,_RNCNCNvNtCs6Icymx2u3fr_13smith_metrics9exporters28handle_multi_service_request00B7_
FN:330,_RNCNCNvNtCs6Icymx2u3fr_13smith_metrics9exporters28handle_multi_service_request0s0_0B7_
FN:343,_RNCNCNvNtCs6Icymx2u3fr_13smith_metrics9exporters28handle_multi_service_request0s1_0B7_
FN:358,_RNCNCNvNtCs6Icymx2u3fr_13smith_metrics9exporters28handle_multi_service_request0s2_0B7_
FN:361,_RNCNCNvNtCs6Icymx2u3fr_13smith_metrics9exporters28handle_multi_service_request0s3_0B7_
FN:374,_RNCNCNvNtCs6Icymx2u3fr_13smith_metrics9exporters28handle_multi_service_request0s4_0B7_
FN:391,_RNCNCNvNtCs6Icymx2u3fr_13smith_metrics9exporters28handle_multi_service_request0s5_0B7_
FN:400,_RNCNCNvNtCs6Icymx2u3fr_13smith_metrics9exporters28handle_multi_service_request0s6_0B7_
FN:428,_RNCNCNvNtCs6Icymx2u3fr_13smith_metrics9exporters28handle_multi_service_request0s7_0B7_
FN:446,_RNCNCNvNtCs6Icymx2u3fr_13smith_metrics9exporters28handle_multi_service_request0s8_0B7_
FN:456,_RNCNCNvNtCs6Icymx2u3fr_13smith_metrics9exporters28handle_multi_service_request0s9_0B7_
FN:327,_RNCNCNvNtCs6Icymx2u3fr_13smith_metrics9exporters28handle_multi_service_request0s_0B7_
FN:74,_RNCNvMNtCs6Icymx2u3fr_13smith_metrics9exportersNtB4_15MetricsExporter14export_metrics0B6_
FN:76,_RNCNvMNtCs6Icymx2u3fr_13smith_metrics9exportersNtB4_15MetricsExporter14export_metricss_0B6_
FN:37,_RNCNvMNtCs6Icymx2u3fr_13smith_metrics9exportersNtB4_15MetricsExporter5start0B6_
FN:258,_RNCNvMs_NtCs6Icymx2u3fr_13smith_metrics9exportersNtB6_20MultiServiceExporter5start0B8_
FN:94,_RNCNvNtCs6Icymx2u3fr_13smith_metrics9exporters22handle_metrics_request0B5_
FN:300,_RNCNvNtCs6Icymx2u3fr_13smith_metrics9exporters28handle_multi_service_request0B5_
FN:1367,_RNCNCNCNvNtNtCs6Icymx2u3fr_13smith_metrics9exporters5testss_32test_concurrent_metrics_requests000Bb_
FN:1228,_RNCNCNvNtNtCs6Icymx2u3fr_13smith_metrics9exporters5testss_26test_stream_error_handling00B9_
FN:1408,_RNCNCNvNtNtCs6Icymx2u3fr_13smith_metrics9exporters5testss_29test_request_with_empty_lines00B9_
FN:1199,_RNCNCNvNtNtCs6Icymx2u3fr_13smith_metrics9exporters5testss_31test_request_parsing_edge_cases00B9_
FN:1363,_RNCNCNvNtNtCs6Icymx2u3fr_13smith_metrics9exporters5testss_32test_concurrent_metrics_requests00B9_
FN:1376,_RNCNCNvNtNtCs6Icymx2u3fr_13smith_metrics9exporters5testss_32test_concurrent_metrics_requests0s_0B9_
FN:1168,_RNCNCNvNtNtCs6Icymx2u3fr_13smith_metrics9exporters5testss_38test_handle_request_with_large_metrics00B9_
FN:1295,_RNCNCNvNtNtCs6Icymx2u3fr_13smith_metrics9exporters5testss_38test_metrics_exporter_server_lifecycle00B9_
FN:796,_RNCNCNvNtNtCs6Icymx2u3fr_13smith_metrics9exporters5testss_39test_handle_metrics_request_get_metrics00B9_
FN:946,_RNCNCNvNtNtCs6Icymx2u3fr_13smith_metrics9exporters5testss_39test_handle_metrics_request_post_method00B9_
FN:889,_RNCNCNvNtNtCs6Icymx2u3fr_13smith_metrics9exporters5testss_41test_handle_metrics_request_404_not_found00B9_
FN:858,_RNCNCNvNtNtCs6Icymx2u3fr_13smith_metrics9exporters5testss_41test_handle_metrics_request_root_endpoint00B9_
FN:917,_RNCNCNvNtNtCs6Icymx2u3fr_13smith_metrics9exporters5testss_43test_handle_metrics_request_400_bad_request00B9_
FN:829,_RNCNCNvNtNtCs6Icymx2u3fr_13smith_metrics9exporters5testss_43test_handle_metrics_request_health_endpoint00B9_
FN:1331,_RNCNCNvNtNtCs6Icymx2u3fr_13smith_metrics9exporters5testss_44test_multi_service_exporter_server_lifecycle00B9_
FN:1131,_RNCNCNvNtNtCs6Icymx2u3fr_13smith_metrics9exporters5testss_46test_handle_multi_service_request_unknown_path00B9_
FN:990,_RNCNCNvNtNtCs6Icymx2u3fr_13smith_metrics9exporters5testss_50test_handle_multi_service_request_combined_metrics00B9_
FN:1032,_RNCNCNvNtNtCs6Icymx2u3fr_13smith_metrics9exporters5testss_50test_handle_multi_service_request_specific_service00B9_
FN:1097,_RNCNCNvNtNtCs6Icymx2u3fr_13smith_metrics9exporters5testss_52test_handle_multi_service_request_root_with_services00B9_
FN:1064,_RNCNCNvNtNtCs6Icymx2u3fr_13smith_metrics9exporters5testss_53test_handle_multi_service_request_nonexistent_service00B9_
FN:1220,_RNCNvNtNtCs6Icymx2u3fr_13smith_metrics9exporters5testss_26test_stream_error_handling0B7_
FN:1400,_RNCNvNtNtCs6Icymx2u3fr_13smith_metrics9exporters5testss_29test_request_with_empty_lines0B7_
FN:467,_RNCNvNtNtCs6Icymx2u3fr_13smith_metrics9exporters5testss_30test_metrics_exporter_creation0B7_
FN:1191,_RNCNvNtNtCs6Icymx2u3fr_13smith_metrics9exporters5testss_31test_request_parsing_edge_cases0B7_
FN:1349,_RNCNvNtNtCs6Icymx2u3fr_13smith_metrics9exporters5testss_32test_concurrent_metrics_requests0B7_
FN:1429,_RNCNvNtNtCs6Icymx2u3fr_13smith_metrics9exporters5testss_34test_registry_with_complex_metrics0B7_
FN:1151,_RNCNvNtNtCs6Icymx2u3fr_13smith_metrics9exporters5testss_38test_handle_request_with_large_metrics0B7_
FN:1283,_RNCNvNtNtCs6Icymx2u3fr_13smith_metrics9exporters5testss_38test_metrics_exporter_server_lifecycle0B7_
FN:782,_RNCNvNtNtCs6Icymx2u3fr_13smith_metrics9exporters5testss_39test_handle_metrics_request_get_metrics0B7_
FN:938,_RNCNvNtNtCs6Icymx2u3fr_13smith_metrics9exporters5testss_39test_handle_metrics_request_post_method0B7_
FN:676,_RNCNvNtNtCs6Icymx2u3fr_13smith_metrics9exporters5testss_39test_metrics_exporter_concurrent_access0B7_
FN:1243,_RNCNvNtNtCs6Icymx2u3fr_13smith_metrics9exporters5testss_40test_metrics_exporter_start_bind_failure0B7_
FN:881,_RNCNvNtNtCs6Icymx2u3fr_13smith_metrics9exporters5testss_41test_handle_metrics_request_404_not_found0B7_
FN:850,_RNCNvNtNtCs6Icymx2u3fr_13smith_metrics9exporters5testss_41test_handle_metrics_request_root_endpoint0B7_
FN:909,_RNCNvNtNtCs6Icymx2u3fr_13smith_metrics9exporters5testss_43test_handle_metrics_request_400_bad_request0B7_
FN:821,_RNCNvNtNtCs6Icymx2u3fr_13smith_metrics9exporters5testss_43test_handle_metrics_request_health_endpoint0B7_
FN:1314,_RNCNvNtNtCs6Icymx2u3fr_13smith_metrics9exporters5testss_44test_multi_service_exporter_server_lifecycle0B7_
FN:1120,_RNCNvNtNtCs6Icymx2u3fr_13smith_metrics9exporters5testss_46test_handle_multi_service_request_unknown_path0B7_
FN:1266,_RNCNvNtNtCs6Icymx2u3fr_13smith_metrics9exporters5testss_46test_multi_service_exporter_start_bind_failure0B7_
FN:965,_RNCNvNtNtCs6Icymx2u3fr_13smith_metrics9exporters5testss_50test_handle_multi_service_request_combined_metrics0B7_
FN:1014,_RNCNvNtNtCs6Icymx2u3fr_13smith_metrics9exporters5testss_50test_handle_multi_service_request_specific_service0B7_
FN:1084,_RNCNvNtNtCs6Icymx2u3fr_13smith_metrics9exporters5testss_52test_handle_multi_service_request_root_with_services0B7_
FN:1053,_RNCNvNtNtCs6Icymx2u3fr_13smith_metrics9exporters5testss_53test_handle_multi_service_request_nonexistent_service0B7_
FNDA:1,_RNvNtNtCs6Icymx2u3fr_13smith_metrics9exporters5testss_25test_remove_unused_import
FNDA:1,_RNvNtNtCs6Icymx2u3fr_13smith_metrics9exporters5testss_26test_stream_error_handling
FNDA:1,_RNvNtNtCs6Icymx2u3fr_13smith_metrics9exporters5testss_27test_multi_service_exporter
FNDA:1,_RNvNtNtCs6Icymx2u3fr_13smith_metrics9exporters5testss_28test_bind_address_variations
FNDA:1,_RNvNtNtCs6Icymx2u3fr_13smith_metrics9exporters5testss_29test_request_with_empty_lines
FNDA:1,_RNvNtNtCs6Icymx2u3fr_13smith_metrics9exporters5testss_30test_metrics_exporter_creation
FNDA:1,_RNvNtNtCs6Icymx2u3fr_13smith_metrics9exporters5testss_31test_request_parsing_edge_cases
FNDA:1,_RNvNtNtCs6Icymx2u3fr_13smith_metrics9exporters5testss_32test_concurrent_metrics_requests
FNDA:1,_RNvNtNtCs6Icymx2u3fr_13smith_metrics9exporters5testss_32test_exporter_registry_isolation
FNDA:1,_RNvNtNtCs6Icymx2u3fr_13smith_metrics9exporters5testss_34test_registry_with_complex_metrics
FNDA:1,_RNvNtNtCs6Icymx2u3fr_13smith_metrics9exporters5testss_35test_metrics_text_format_validation
FNDA:1,_RNvNtNtCs6Icymx2u3fr_13smith_metrics9exporters5testss_36test_metrics_exporter_error_handling
FNDA:1,_RNvNtNtCs6Icymx2u3fr_13smith_metrics9exporters5testss_36test_multi_service_exporter_creation
FNDA:1,_RNvNtNtCs6Icymx2u3fr_13smith_metrics9exporters5testss_38test_handle_request_with_large_metrics
FNDA:1,_RNvNtNtCs6Icymx2u3fr_13smith_metrics9exporters5testss_38test_metrics_exporter_basic_properties
FNDA:1,_RNvNtNtCs6Icymx2u3fr_13smith_metrics9exporters5testss_38test_metrics_exporter_server_lifecycle
FNDA:1,_RNvNtNtCs6Icymx2u3fr_13smith_metrics9exporters5testss_39test_handle_metrics_request_get_metrics
FNDA:1,_RNvNtNtCs6Icymx2u3fr_13smith_metrics9exporters5testss_39test_handle_metrics_request_post_method
FNDA:1,_RNvNtNtCs6Icymx2u3fr_13smith_metrics9exporters5testss_39test_metrics_exporter_concurrent_access
FNDA:1,_RNvNtNtCs6Icymx2u3fr_13smith_metrics9exporters5testss_40test_metrics_exporter_port_configuration
FNDA:1,_RNvNtNtCs6Icymx2u3fr_13smith_metrics9exporters5testss_40test_metrics_exporter_start_bind_failure
FNDA:1,_RNvNtNtCs6Icymx2u3fr_13smith_metrics9exporters5testss_41test_handle_metrics_request_404_not_found
FNDA:1,_RNvNtNtCs6Icymx2u3fr_13smith_metrics9exporters5testss_41test_handle_metrics_request_root_endpoint
FNDA:1,_RNvNtNtCs6Icymx2u3fr_13smith_metrics9exporters5testss_41test_metrics_exporter_custom_bind_address
FNDA:1,_RNvNtNtCs6Icymx2u3fr_13smith_metrics9exporters5testss_41test_metrics_exporter_export_with_metrics
FNDA:1,_RNvNtNtCs6Icymx2u3fr_13smith_metrics9exporters5testss_43test_handle_metrics_request_400_bad_request
FNDA:1,_RNvNtNtCs6Icymx2u3fr_13smith_metrics9exporters5testss_43test_handle_metrics_request_health_endpoint
FNDA:1,_RNvNtNtCs6Icymx2u3fr_13smith_metrics9exporters5testss_43test_metrics_exporter_export_empty_registry
FNDA:1,_RNvNtNtCs6Icymx2u3fr_13smith_metrics9exporters5testss_44test_multi_service_exporter_server_lifecycle
FNDA:1,_RNvNtNtCs6Icymx2u3fr_13smith_metrics9exporters5testss_45test_multi_service_exporter_overwrite_service
FNDA:1,_RNvNtNtCs6Icymx2u3fr_13smith_metrics9exporters5testss_46test_handle_multi_service_request_unknown_path
FNDA:1,_RNvNtNtCs6Icymx2u3fr_13smith_metrics9exporters5testss_46test_multi_service_exporter_start_bind_failure
FNDA:1,_RNvNtNtCs6Icymx2u3fr_13smith_metrics9exporters5testss_47test_multi_service_exporter_empty_service_names
FNDA:1,_RNvNtNtCs6Icymx2u3fr_13smith_metrics9exporters5testss_49test_multi_service_exporter_add_multiple_services
FNDA:1,_RNvNtNtCs6Icymx2u3fr_13smith_metrics9exporters5testss_50test_handle_multi_service_request_combined_metrics
FNDA:1,_RNvNtNtCs6Icymx2u3fr_13smith_metrics9exporters5testss_50test_handle_multi_service_request_specific_service
FNDA:1,_RNvNtNtCs6Icymx2u3fr_13smith_metrics9exporters5testss_52test_handle_multi_service_request_root_with_services
FNDA:1,_RNvNtNtCs6Icymx2u3fr_13smith_metrics9exporters5testss_53test_handle_multi_service_request_nonexistent_service
FNDA:7,_RNvMNtCs6Icymx2u3fr_13smith_metrics9exportersNtB2_15MetricsExporter12bind_address
FNDA:19,_RNvMNtCs6Icymx2u3fr_13smith_metrics9exportersNtB2_15MetricsExporter14export_metrics
FNDA:7,_RNvMNtCs6Icymx2u3fr_13smith_metrics9exportersNtB2_15MetricsExporter17with_bind_address
FNDA:14,_RNvMNtCs6Icymx2u3fr_13smith_metrics9exportersNtB2_15MetricsExporter3new
FNDA:5,_RNvMNtCs6Icymx2u3fr_13smith_metrics9exportersNtB2_15MetricsExporter4port
FNDA:2,_RNvMNtCs6Icymx2u3fr_13smith_metrics9exportersNtB2_15MetricsExporter5start
FNDA:12,_RNvMs_NtCs6Icymx2u3fr_13smith_metrics9exportersNtB4_20MultiServiceExporter11add_service
FNDA:7,_RNvMs_NtCs6Icymx2u3fr_13smith_metrics9exportersNtB4_20MultiServiceExporter3new
FNDA:2,_RNvMs_NtCs6Icymx2u3fr_13smith_metrics9exportersNtB4_20MultiServiceExporter5start
FNDA:12,_RNvNtCs6Icymx2u3fr_13smith_metrics9exporters22handle_metrics_request
FNDA:5,_RNvNtCs6Icymx2u3fr_13smith_metrics9exporters28handle_multi_service_request
FNDA:1,_RNCNCNvMNtCs6Icymx2u3fr_13smith_metrics9exportersNtB6_15MetricsExporter5start00B8_
FNDA:0,_RNCNCNvMNtCs6Icymx2u3fr_13smith_metrics9exportersNtB6_15MetricsExporter5start0s_0B8_
FNDA:1,_RNCNCNvMs_NtCs6Icymx2u3fr_13smith_metrics9exportersNtB8_20MultiServiceExporter5start00Ba_
FNDA:0,_RNCNCNvMs_NtCs6Icymx2u3fr_13smith_metrics9exportersNtB8_20MultiServiceExporter5start0s_0Ba_
FNDA:0,_RNCNCNvNtCs6Icymx2u3fr_13smith_metrics9exporters22handle_metrics_request00B7_
FNDA:0,_RNCNCNvNtCs6Icymx2u3fr_13smith_metrics9exporters22handle_metrics_request0s0_0B7_
FNDA:0,_RNCNCNvNtCs6Icymx2u3fr_13smith_metrics9exporters22handle_metrics_request0s1_0B7_
FNDA:0,_RNCNCNvNtCs6Icymx2u3fr_13smith_metrics9exporters22handle_metrics_request0s2_0B7_
FNDA:0,_RNCNCNvNtCs6Icymx2u3fr_13smith_metrics9exporters22handle_metrics_request0s3_0B7_
FNDA:0,_RNCNCNvNtCs6Icymx2u3fr_13smith_metrics9exporters22handle_metrics_request0s4_0B7_
FNDA:0,_RNCNCNvNtCs6Icymx2u3fr_13smith_metrics9exporters22handle_metrics_request0s5_0B7_
FNDA:0,_RNCNCNvNtCs6Icymx2u3fr_13smith_metrics9exporters22handle_metrics_request0s6_0B7_
FNDA:0,_RNCNCNvNtCs6Icymx2u3fr_13smith_metrics9exporters22handle_metrics_request0s_0B7_
FNDA:0,_RNCNCNvNtCs6Icymx2u3fr_13smith_metrics9exporters28handle_multi_service_request00B7_
FNDA:0,_RNCNCNvNtCs6Icymx2u3fr_13smith_metrics9exporters28handle_multi_service_request0s0_0B7_
FNDA:0,_RNCNCNvNtCs6Icymx2u3fr_13smith_metrics9exporters28handle_multi_service_request0s1_0B7_
FNDA:0,_RNCNCNvNtCs6Icymx2u3fr_13smith_metrics9exporters28handle_multi_service_request0s2_0B7_
FNDA:0,_RNCNCNvNtCs6Icymx2u3fr_13smith_metrics9exporters28handle_multi_service_request0s3_0B7_
FNDA:0,_RNCNCNvNtCs6Icymx2u3fr_13smith_metrics9exporters28handle_multi_service_request0s4_0B7_
FNDA:0,_RNCNCNvNtCs6Icymx2u3fr_13smith_metrics9exporters28handle_multi_service_request0s5_0B7_
FNDA:2,_RNCNCNvNtCs6Icymx2u3fr_13smith_metrics9exporters28handle_multi_service_request0s6_0B7_
FNDA:0,_RNCNCNvNtCs6Icymx2u3fr_13smith_metrics9exporters28handle_multi_service_request0s7_0B7_
FNDA:0,_RNCNCNvNtCs6Icymx2u3fr_13smith_metrics9exporters28handle_multi_service_request0s8_0B7_
FNDA:0,_RNCNCNvNtCs6Icymx2u3fr_13smith_metrics9exporters28handle_multi_service_request0s9_0B7_
FNDA:0,_RNCNCNvNtCs6Icymx2u3fr_13smith_metrics9exporters28handle_multi_service_request0s_0B7_
FNDA:0,_RNCNvMNtCs6Icymx2u3fr_13smith_metrics9exportersNtB4_15MetricsExporter14export_metrics0B6_
FNDA:0,_RNCNvMNtCs6Icymx2u3fr_13smith_metrics9exportersNtB4_15MetricsExporter14export_metricss_0B6_
FNDA:2,_RNCNvMNtCs6Icymx2u3fr_13smith_metrics9exportersNtB4_15MetricsExporter5start0B6_
FNDA:2,_RNCNvMs_NtCs6Icymx2u3fr_13smith_metrics9exportersNtB6_20MultiServiceExporter5start0B8_
FNDA:12,_RNCNvNtCs6Icymx2u3fr_13smith_metrics9exporters22handle_metrics_request0B5_
FNDA:5,_RNCNvNtCs6Icymx2u3fr_13smith_metrics9exporters28handle_multi_service_request0B5_
FNDA:3,_RNCNCNCNvNtNtCs6Icymx2u3fr_13smith_metrics9exporters5testss_32test_concurrent_metrics_requests000Bb_
FNDA:1,_RNCNCNvNtNtCs6Icymx2u3fr_13smith_metrics9exporters5testss_26test_stream_error_handling00B9_
FNDA:1,_RNCNCNvNtNtCs6Icymx2u3fr_13smith_metrics9exporters5testss_29test_request_with_empty_lines00B9_
FNDA:1,_RNCNCNvNtNtCs6Icymx2u3fr_13smith_metrics9exporters5testss_31test_request_parsing_edge_cases00B9_
FNDA:1,_RNCNCNvNtNtCs6Icymx2u3fr_13smith_metrics9exporters5testss_32test_concurrent_metrics_requests00B9_
FNDA:3,_RNCNCNvNtNtCs6Icymx2u3fr_13smith_metrics9exporters5testss_32test_concurrent_metrics_requests0s_0B9_
FNDA:1,_RNCNCNvNtNtCs6Icymx2u3fr_13smith_metrics9exporters5testss_38test_handle_request_with_large_metrics00B9_
FNDA:1,_RNCNCNvNtNtCs6Icymx2u3fr_13smith_metrics9exporters5testss_38test_metrics_exporter_server_lifecycle00B9_
FNDA:1,_RNCNCNvNtNtCs6Icymx2u3fr_13smith_metrics9exporters5testss_39test_handle_metrics_request_get_metrics00B9_
FNDA:1,_RNCNCNvNtNtCs6Icymx2u3fr_13smith_metrics9exporters5testss_39test_handle_metrics_request_post_method00B9_
FNDA:1,_RNCNCNvNtNtCs6Icymx2u3fr_13smith_metrics9exporters5testss_41test_handle_metrics_request_404_not_found00B9_
FNDA:1,_RNCNCNvNtNtCs6Icymx2u3fr_13smith_metrics9exporters5testss_41test_handle_metrics_request_root_endpoint00B9_
FNDA:1,_RNCNCNvNtNtCs6Icymx2u3fr_13smith_metrics9exporters5testss_43test_handle_metrics_request_400_bad_request00B9_
FNDA:1,_RNCNCNvNtNtCs6Icymx2u3fr_13smith_metrics9exporters5testss_43test_handle_metrics_request_health_endpoint00B9_
FNDA:1,_RNCNCNvNtNtCs6Icymx2u3fr_13smith_metrics9exporters5testss_44test_multi_service_exporter_server_lifecycle00B9_
FNDA:1,_RNCNCNvNtNtCs6Icymx2u3fr_13smith_metrics9exporters5testss_46test_handle_multi_service_request_unknown_path00B9_
FNDA:1,_RNCNCNvNtNtCs6Icymx2u3fr_13smith_metrics9exporters5testss_50test_handle_multi_service_request_combined_metrics00B9_
FNDA:1,_RNCNCNvNtNtCs6Icymx2u3fr_13smith_metrics9exporters5testss_50test_handle_multi_service_request_specific_service00B9_
FNDA:1,_RNCNCNvNtNtCs6Icymx2u3fr_13smith_metrics9exporters5testss_52test_handle_multi_service_request_root_with_services00B9_
FNDA:1,_RNCNCNvNtNtCs6Icymx2u3fr_13smith_metrics9exporters5testss_53test_handle_multi_service_request_nonexistent_service00B9_
FNDA:1,_RNCNvNtNtCs6Icymx2u3fr_13smith_metrics9exporters5testss_26test_stream_error_handling0B7_
FNDA:1,_RNCNvNtNtCs6Icymx2u3fr_13smith_metrics9exporters5testss_29test_request_with_empty_lines0B7_
FNDA:1,_RNCNvNtNtCs6Icymx2u3fr_13smith_metrics9exporters5testss_30test_metrics_exporter_creation0B7_
FNDA:1,_RNCNvNtNtCs6Icymx2u3fr_13smith_metrics9exporters5testss_31test_request_parsing_edge_cases0B7_
FNDA:1,_RNCNvNtNtCs6Icymx2u3fr_13smith_metrics9exporters5testss_32test_concurrent_metrics_requests0B7_
FNDA:1,_RNCNvNtNtCs6Icymx2u3fr_13smith_metrics9exporters5testss_34test_registry_with_complex_metrics0B7_
FNDA:1,_RNCNvNtNtCs6Icymx2u3fr_13smith_metrics9exporters5testss_38test_handle_request_with_large_metrics0B7_
FNDA:1,_RNCNvNtNtCs6Icymx2u3fr_13smith_metrics9exporters5testss_38test_metrics_exporter_server_lifecycle0B7_
FNDA:1,_RNCNvNtNtCs6Icymx2u3fr_13smith_metrics9exporters5testss_39test_handle_metrics_request_get_metrics0B7_
FNDA:1,_RNCNvNtNtCs6Icymx2u3fr_13smith_metrics9exporters5testss_39test_handle_metrics_request_post_method0B7_
FNDA:10,_RNCNvNtNtCs6Icymx2u3fr_13smith_metrics9exporters5testss_39test_metrics_exporter_concurrent_access0B7_
FNDA:1,_RNCNvNtNtCs6Icymx2u3fr_13smith_metrics9exporters5testss_40test_metrics_exporter_start_bind_failure0B7_
FNDA:1,_RNCNvNtNtCs6Icymx2u3fr_13smith_metrics9exporters5testss_41test_handle_metrics_request_404_not_found0B7_
FNDA:1,_RNCNvNtNtCs6Icymx2u3fr_13smith_metrics9exporters5testss_41test_handle_metrics_request_root_endpoint0B7_
FNDA:1,_RNCNvNtNtCs6Icymx2u3fr_13smith_metrics9exporters5testss_43test_handle_metrics_request_400_bad_request0B7_
FNDA:1,_RNCNvNtNtCs6Icymx2u3fr_13smith_metrics9exporters5testss_43test_handle_metrics_request_health_endpoint0B7_
FNDA:1,_RNCNvNtNtCs6Icymx2u3fr_13smith_metrics9exporters5testss_44test_multi_service_exporter_server_lifecycle0B7_
FNDA:1,_RNCNvNtNtCs6Icymx2u3fr_13smith_metrics9exporters5testss_46test_handle_multi_service_request_unknown_path0B7_
FNDA:1,_RNCNvNtNtCs6Icymx2u3fr_13smith_metrics9exporters5testss_46test_multi_service_exporter_start_bind_failure0B7_
FNDA:1,_RNCNvNtNtCs6Icymx2u3fr_13smith_metrics9exporters5testss_50test_handle_multi_service_request_combined_metrics0B7_
FNDA:1,_RNCNvNtNtCs6Icymx2u3fr_13smith_metrics9exporters5testss_50test_handle_multi_service_request_specific_service0B7_
FNDA:1,_RNCNvNtNtCs6Icymx2u3fr_13smith_metrics9exporters5testss_52test_handle_multi_service_request_root_with_services0B7_
FNDA:1,_RNCNvNtNtCs6Icymx2u3fr_13smith_metrics9exporters5testss_53test_handle_multi_service_request_nonexistent_service0B7_
FNF:123
FNH:99
DA:19,14
DA:20,14
DA:21,14
DA:22,14
DA:23,14
DA:24,14
DA:25,14
DA:28,7
DA:29,7
DA:30,7
DA:31,7
DA:32,7
DA:33,7
DA:34,7
DA:37,2
DA:38,2
DA:39,2
DA:40,2
DA:41,2
DA:43,1
DA:46,1
DA:47,0
DA:48,0
DA:49,0
DA:50,0
DA:51,0
DA:52,0
DA:53,0
DA:56,0
DA:57,0
DA:59,0
DA:60,0
DA:64,1
DA:67,19
DA:68,19
DA:69,19
DA:71,19
DA:72,19
DA:73,19
DA:74,19
DA:76,19
DA:77,19
DA:80,5
DA:81,5
DA:82,5
DA:85,7
DA:86,7
DA:87,7
DA:91,12
DA:92,12
DA:93,12
DA:94,12
DA:96,12
DA:97,12
DA:98,12
DA:99,12
DA:100,12
DA:102,12
DA:103,12
DA:106,12
DA:107,12
DA:109,12
DA:110,9
DA:111,9
DA:113,6
DA:114,6
DA:116,6
DA:117,6
DA:118,6
DA:119,6
DA:121,6
DA:122,6
DA:124,6
DA:125,6
DA:126,6
DA:127,6
DA:128,6
DA:129,6
DA:130,6
DA:131,6
DA:132,6
DA:136,6
DA:137,0
DA:138,0
DA:140,6
DA:142,3
DA:144,1
DA:145,1
DA:146,1
DA:147,1
DA:148,1
DA:149,1
DA:151,1
DA:152,0
DA:153,0
DA:155,1
DA:157,2
DA:159,1
DA:160,1
DA:161,1
DA:162,1
DA:163,1
DA:164,1
DA:165,1
DA:166,1
DA:167,1
DA:168,1
DA:170,1
DA:171,1
DA:172,1
DA:173,1
DA:174,1
DA:175,1
DA:176,1
DA:177,1
DA:181,1
DA:182,0
DA:183,0
DA:187,1
DA:188,1
DA:189,1
DA:190,1
DA:191,1
DA:192,1
DA:193,1
DA:194,1
DA:195,1
DA:199,1
DA:200,0
DA:201,0
DA:203,1
DA:208,3
DA:209,3
DA:210,3
DA:211,3
DA:212,3
DA:213,3
DA:214,3
DA:215,3
DA:216,3
DA:220,3
DA:221,0
DA:222,0
DA:224,3
DA:227,12
DA:228,12
DA:229,12
DA:230,12
DA:232,12
DA:233,12
DA:244,7
DA:245,7
DA:246,7
DA:247,7
DA:248,7
DA:249,7
DA:250,7
DA:253,12
DA:254,12
DA:255,12
DA:258,2
DA:259,2
DA:260,2
DA:261,2
DA:262,2
DA:264,1
DA:265,0
DA:267,0
DA:270,1
DA:273,1
DA:274,0
DA:275,0
DA:276,0
DA:277,0
DA:278,0
DA:279,0
DA:281,0
DA:282,0
DA:285,0
DA:286,0
DA:288,0
DA:289,0
DA:293,1
DA:297,5
DA:298,5
DA:299,5
DA:300,5
DA:302,5
DA:303,5
DA:304,5
DA:305,5
DA:306,5
DA:308,5
DA:309,5
DA:310,5
DA:312,5
DA:313,5
DA:314,5
DA:316,1
DA:317,1
DA:319,2
DA:320,2
DA:321,2
DA:322,2
DA:324,1
DA:325,1
DA:326,1
DA:327,1
DA:329,1
DA:330,1
DA:332,1
DA:333,1
DA:334,1
DA:335,1
DA:336,1
DA:337,1
DA:338,1
DA:339,1
DA:343,1
DA:344,0
DA:345,0
DA:347,4
DA:349,2
DA:351,2
DA:352,1
DA:353,1
DA:355,1
DA:356,1
DA:357,1
DA:358,1
DA:360,1
DA:361,1
DA:363,1
DA:364,1
DA:365,1
DA:366,1
DA:367,1
DA:368,1
DA:369,1
DA:370,1
DA:374,1
DA:375,0
DA:376,0
DA:379,1
DA:380,1
DA:381,1
DA:382,1
DA:383,1
DA:384,1
DA:385,1
DA:386,1
DA:387,1
DA:391,1
DA:392,0
DA:393,0
DA:396,2
DA:398,1
DA:399,1
DA:400,2
DA:401,1
DA:403,1
DA:404,1
DA:405,1
DA:406,1
DA:407,1
DA:408,1
DA:409,1
DA:410,1
DA:411,1
DA:412,1
DA:413,1
DA:414,1
DA:417,1
DA:418,1
DA:419,1
DA:420,1
DA:421,1
DA:422,1
DA:423,1
DA:424,1
DA:428,1
DA:429,0
DA:430,0
DA:434,1
DA:435,1
DA:436,1
DA:437,1
DA:438,1
DA:439,1
DA:440,1
DA:441,1
DA:442,1
DA:446,1
DA:447,0
DA:448,0
DA:451,0
DA:453,5
DA:454,5
DA:455,5
DA:456,5
DA:458,5
DA:459,5
DA:467,1
DA:468,1
DA:469,1
DA:472,1
DA:473,1
DA:474,1
DA:477,1
DA:478,1
DA:480,1
DA:481,1
DA:482,1
DA:484,1
DA:485,1
DA:486,1
DA:488,1
DA:489,1
DA:491,1
DA:492,1
DA:498,1
DA:499,1
DA:500,1
DA:502,1
DA:503,1
DA:504,1
DA:507,1
DA:508,1
DA:509,1
DA:510,1
DA:512,1
DA:515,1
DA:516,1
DA:517,1
DA:520,1
DA:521,1
DA:522,1
DA:525,1
DA:526,1
DA:527,1
DA:530,1
DA:531,1
DA:534,1
DA:535,1
DA:536,1
DA:537,1
DA:538,1
DA:540,1
DA:541,1
DA:543,1
DA:544,1
DA:547,1
DA:548,1
DA:549,1
DA:552,1
DA:553,1
DA:556,1
DA:557,1
DA:558,1
DA:561,1
DA:562,1
DA:565,6
DA:566,5
DA:567,5
DA:568,5
DA:569,5
DA:570,5
DA:571,5
DA:572,5
DA:573,5
DA:574,5
DA:575,5
DA:577,1
DA:578,1
DA:581,1
DA:582,1
DA:585,1
DA:586,1
DA:587,1
DA:588,1
DA:590,1
DA:593,1
DA:594,1
DA:595,1
DA:596,1
DA:599,1
DA:600,1
DA:603,1
DA:606,1
DA:609,1
DA:610,1
DA:613,1
DA:614,1
DA:617,1
DA:618,1
DA:621,1
DA:622,1
DA:623,1
DA:624,1
DA:627,1
DA:628,1
DA:629,1
DA:630,1
DA:631,1
DA:632,1
DA:634,1
DA:635,1
DA:638,1
DA:639,1
DA:640,1
DA:641,1
DA:643,4
DA:644,3
DA:645,1
DA:646,2
DA:647,1
DA:648,1
DA:649,1
DA:650,1
DA:651,0
DA:654,1
DA:655,1
DA:656,1
DA:657,1
DA:660,1
DA:664,1
DA:665,1
DA:666,1
DA:668,1
DA:671,1
DA:672,11
DA:673,10
DA:674,10
DA:676,10
DA:677,10
DA:678,10
DA:679,10
DA:680,10
DA:684,11
DA:685,10
DA:686,10
DA:690,1
DA:691,1
DA:692,1
DA:695,1
DA:696,1
DA:699,1
DA:700,1
DA:702,1
DA:703,1
DA:704,1
DA:707,1
DA:709,1
DA:712,1
DA:713,1
DA:716,1
DA:717,1
DA:720,1
DA:721,1
DA:722,1
DA:725,1
DA:726,1
DA:729,1
DA:731,1
DA:732,1
DA:733,1
DA:734,1
DA:737,6
DA:738,5
DA:739,5
DA:741,5
DA:743,5
DA:745,1
DA:748,1
DA:750,1
DA:751,1
DA:753,1
DA:754,1
DA:756,1
DA:757,1
DA:759,1
DA:760,1
DA:762,1
DA:763,1
DA:765,1
DA:766,1
DA:769,1
DA:770,1
DA:772,1
DA:773,1
DA:774,1
DA:782,1
DA:786,1
DA:787,1
DA:788,1
DA:789,1
DA:792,1
DA:793,1
DA:796,1
DA:797,1
DA:798,1
DA:799,1
DA:802,1
DA:803,1
DA:804,1
DA:805,1
DA:808,1
DA:809,1
DA:810,1
DA:811,1
DA:814,1
DA:815,1
DA:816,1
DA:817,1
DA:818,1
DA:821,1
DA:824,1
DA:826,1
DA:827,1
DA:829,1
DA:830,1
DA:831,1
DA:832,1
DA:834,1
DA:835,1
DA:836,1
DA:837,1
DA:839,1
DA:840,1
DA:841,1
DA:842,1
DA:844,1
DA:845,1
DA:846,1
DA:847,1
DA:850,1
DA:853,1
DA:855,1
DA:856,1
DA:858,1
DA:859,1
DA:860,1
DA:861,1
DA:863,1
DA:864,1
DA:865,1
DA:866,1
DA:868,1
DA:869,1
DA:870,1
DA:871,1
DA:873,1
DA:874,1
DA:875,1
DA:876,1
DA:877,1
DA:878,1
DA:881,1
DA:884,1
DA:886,1
DA:887,1
DA:889,1
DA:890,1
DA:891,1
DA:892,1
DA:894,1
DA:895,1
DA:896,1
DA:897,1
DA:899,1
DA:900,1
DA:901,1
DA:902,1
DA:904,1
DA:905,1
DA:906,1
DA:909,1
DA:912,1
DA:914,1
DA:915,1
DA:917,1
DA:918,1
DA:919,1
DA:920,1
DA:922,1
DA:924,1
DA:925,1
DA:926,1
DA:928,1
DA:929,1
DA:930,1
DA:931,1
DA:933,1
DA:934,1
DA:935,1
DA:938,1
DA:941,1
DA:943,1
DA:944,1
DA:946,1
DA:947,1
DA:948,1
DA:949,1
DA:951,1
DA:952,1
DA:953,1
DA:954,1
DA:956,1
DA:957,1
DA:958,1
DA:959,1
DA:961,1
DA:962,1
DA:965,1
DA:971,1
DA:973,1
DA:974,1
DA:975,1
DA:976,1
DA:977,1
DA:979,1
DA:980,1
DA:981,1
DA:982,1
DA:983,1
DA:985,1
DA:987,1
DA:988,1
DA:990,1
DA:991,1
DA:992,1
DA:993,1
DA:995,1
DA:996,1
DA:997,1
DA:998,1
DA:1000,1
DA:1001,1
DA:1002,1
DA:1003,1
DA:1006,1
DA:1007,1
DA:1008,1
DA:1009,1
DA:1010,1
DA:1011,1
DA:1014,1
DA:1019,1
DA:1021,1
DA:1022,1
DA:1023,1
DA:1024,1
DA:1025,1
DA:1027,1
DA:1029,1
DA:1030,1
DA:1032,1
DA:1033,1
DA:1034,1
DA:1035,1
DA:1037,1
DA:1038,1
DA:1039,1
DA:1040,1
DA:1042,1
DA:1043,1
DA:1044,1
DA:1045,1
DA:1047,1
DA:1048,1
DA:1049,1
DA:1050,1
DA:1053,1
DA:1058,1
DA:1059,1
DA:1061,1
DA:1062,1
DA:1064,1
DA:1065,1
DA:1066,1
DA:1067,1
DA:1069,1
DA:1070,1
DA:1071,1
DA:1072,1
DA:1074,1
DA:1075,1
DA:1076,1
DA:1077,1
DA:1079,1
DA:1080,1
DA:1081,1
DA:1084,1
DA:1089,1
DA:1090,1
DA:1091,1
DA:1092,1
DA:1094,1
DA:1095,1
DA:1097,1
DA:1098,1
DA:1099,1
DA:1100,1
DA:1102,1
DA:1103,1
DA:1104,1
DA:1105,1
DA:1107,1
DA:1108,1
DA:1109,1
DA:1110,1
DA:1112,1
DA:1113,1
DA:1114,1
DA:1115,1
DA:1116,1
DA:1117,1
DA:1120,1
DA:1125,1
DA:1126,1
DA:1128,1
DA:1129,1
DA:1131,1
DA:1132,1
DA:1133,1
DA:1134,1
DA:1136,1
DA:1137,1
DA:1138,1
DA:1139,1
DA:1141,1
DA:1142,1
DA:1143,1
DA:1144,1
DA:1146,1
DA:1147,1
DA:1148,1
DA:1151,1
DA:1155,1
DA:1156,51
DA:1157,50
DA:1158,50
DA:1159,50
DA:1160,50
DA:1161,50
DA:1162,50
DA:1163,50
DA:1165,1
DA:1166,1
DA:1168,1
DA:1169,1
DA:1170,1
DA:1171,1
DA:1173,1
DA:1174,1
DA:1175,1
DA:1176,1
DA:1178,1
DA:1179,1
DA:1180,1
DA:1181,1
DA:1183,1
DA:1184,1
DA:1185,1
DA:1187,1
DA:1188,1
DA:1191,1
DA:1194,1
DA:1196,1
DA:1197,1
DA:1199,1
DA:1200,1
DA:1201,1
DA:1202,1
DA:1204,1
DA:1206,1
DA:1207,1
DA:1208,1
DA:1210,1
DA:1211,1
DA:1212,1
DA:1213,1
DA:1216,1
DA:1217,1
DA:1220,1
DA:1223,1
DA:1225,1
DA:1226,1
DA:1228,1
DA:1229,1
DA:1231,0
DA:1232,0
DA:1234,0
DA:1235,0
DA:1237,1
DA:1239,1
DA:1240,1
DA:1243,1
DA:1244,1
DA:1246,1
DA:1247,1
DA:1249,1
DA:1252,1
DA:1253,1
DA:1255,1
DA:1256,1
DA:1257,1
DA:1258,1
DA:1259,1
DA:1260,1
DA:1261,1
DA:1262,1
DA:1263,1
DA:1266,1
DA:1267,1
DA:1269,1
DA:1270,1
DA:1272,1
DA:1273,1
DA:1274,1
DA:1275,1
DA:1276,1
DA:1277,1
DA:1278,1
DA:1279,1
DA:1280,1
DA:1283,1
DA:1286,1
DA:1287,1
DA:1288,1
DA:1289,1
DA:1292,1
DA:1295,1
DA:1297,1
DA:1298,0
DA:1301,1
DA:1304,1
DA:1307,1
DA:1310,1
DA:1311,1
DA:1314,1
DA:1317,1
DA:1320,1
DA:1321,1
DA:1322,1
DA:1323,1
DA:1325,1
DA:1326,1
DA:1327,1
DA:1328,1
DA:1331,1
DA:1332,1
DA:1333,0
DA:1336,1
DA:1339,1
DA:1342,1
DA:1345,1
DA:1346,1
DA:1349,1
DA:1353,1
DA:1354,1
DA:1355,1
DA:1356,1
DA:1358,1
DA:1359,1
DA:1362,1
DA:1363,1
DA:1364,4
DA:1365,3
DA:1366,3
DA:1367,3
DA:1368,3
DA:1369,3
DA:1371,1
DA:1374,1
DA:1375,4
DA:1376,3
DA:1377,3
DA:1378,3
DA:1379,3
DA:1380,3
DA:1381,1
DA:1382,3
DA:1383,3
DA:1384,3
DA:1385,3
DA:1386,1
DA:1387,3
DA:1388,3
DA:1389,3
DA:1390,3
DA:1391,1
DA:1392,1
DA:1393,1
DA:1394,4
DA:1395,3
DA:1396,1
DA:1397,1
DA:1400,1
DA:1403,1
DA:1405,1
DA:1406,1
DA:1408,1
DA:1409,1
DA:1410,1
DA:1411,1
DA:1413,1
DA:1415,1
DA:1416,1
DA:1417,1
DA:1419,1
DA:1420,1
DA:1421,1
DA:1422,1
DA:1425,1
DA:1426,1
DA:1429,1
DA:1432,1
DA:1435,1
DA:1436,1
DA:1437,1
DA:1438,1
DA:1439,1
DA:1441,1
DA:1442,1
DA:1443,1
DA:1444,1
DA:1446,1
DA:1447,1
DA:1448,1
DA:1450,1
DA:1451,1
DA:1454,1
DA:1455,1
DA:1456,1
DA:1457,1
DA:1458,1
DA:1460,1
DA:1461,1
DA:1464,1
DA:1467,1
DA:1468,1
BRF:0
BRH:0
LF:1073
LH:982
end_of_record
SF:/home/nathan/Projects/smith/shared/smith-metrics/src/lib.rs
FN:82,_RNCNvCs6Icymx2u3fr_13smith_metrics14export_metrics0B3_
FN:84,_RNCNvCs6Icymx2u3fr_13smith_metrics14export_metricss_0B3_
FN:88,_RNvCs6Icymx2u3fr_13smith_metrics11metric_name
FN:93,_RNvCs6Icymx2u3fr_13smith_metrics11metric_opts
FN:75,_RNvCs6Icymx2u3fr_13smith_metrics14export_metrics
FN:98,_RNvCs6Icymx2u3fr_13smith_metrics14histogram_opts
FN:123,_RNvNtCs6Icymx2u3fr_13smith_metrics5tests4init
FN:163,_RNvNtCs6Icymx2u3fr_13smith_metrics5testss_19test_export_metrics
FN:151,_RNvNtCs6Icymx2u3fr_13smith_metrics5testss_21test_standard_buckets
FN:145,_RNvNtCs6Icymx2u3fr_13smith_metrics5testss_25test_metric_opts_creation
FN:207,_RNvNtCs6Icymx2u3fr_13smith_metrics5testss_26test_metrics_error_display
FN:129,_RNvNtCs6Icymx2u3fr_13smith_metrics5testss_27test_metric_name_generation
FN:193,_RNvNtCs6Icymx2u3fr_13smith_metrics5testss_28test_histogram_opts_creation
FN:199,_RNvNtCs6Icymx2u3fr_13smith_metrics5testss_29test_standard_label_constants
FN:184,_RNvNtCs6Icymx2u3fr_13smith_metrics5testss_34test_export_metrics_empty_registry
FNDA:0,_RNCNvCs6Icymx2u3fr_13smith_metrics14export_metrics0B3_
FNDA:0,_RNCNvCs6Icymx2u3fr_13smith_metrics14export_metricss_0B3_
FNDA:215,_RNvCs6Icymx2u3fr_13smith_metrics11metric_name
FNDA:182,_RNvCs6Icymx2u3fr_13smith_metrics11metric_opts
FNDA:2,_RNvCs6Icymx2u3fr_13smith_metrics14export_metrics
FNDA:30,_RNvCs6Icymx2u3fr_13smith_metrics14histogram_opts
FNDA:1,_RNvNtCs6Icymx2u3fr_13smith_metrics5tests4init
FNDA:1,_RNvNtCs6Icymx2u3fr_13smith_metrics5testss_19test_export_metrics
FNDA:1,_RNvNtCs6Icymx2u3fr_13smith_metrics5testss_21test_standard_buckets
FNDA:1,_RNvNtCs6Icymx2u3fr_13smith_metrics5testss_25test_metric_opts_creation
FNDA:1,_RNvNtCs6Icymx2u3fr_13smith_metrics5testss_26test_metrics_error_display
FNDA:1,_RNvNtCs6Icymx2u3fr_13smith_metrics5testss_27test_metric_name_generation
FNDA:1,_RNvNtCs6Icymx2u3fr_13smith_metrics5testss_28test_histogram_opts_creation
FNDA:1,_RNvNtCs6Icymx2u3fr_13smith_metrics5testss_29test_standard_label_constants
FNDA:1,_RNvNtCs6Icymx2u3fr_13smith_metrics5testss_34test_export_metrics_empty_registry
FNF:15
FNH:13
DA:75,2
DA:76,2
DA:77,2
DA:79,2
DA:80,2
DA:81,2
DA:82,2
DA:84,2
DA:85,2
DA:88,215
DA:89,215
DA:90,215
DA:93,182
DA:94,182
DA:95,182
DA:98,30
DA:99,30
DA:100,30
DA:123,1
DA:125,1
DA:129,1
DA:130,1
DA:131,1
DA:134,1
DA:135,1
DA:138,1
DA:139,1
DA:142,1
DA:145,1
DA:146,1
DA:147,1
DA:148,1
DA:151,1
DA:152,1
DA:153,1
DA:154,1
DA:157,13
DA:158,13
DA:160,1
DA:163,1
DA:167,1
DA:168,1
DA:169,1
DA:172,1
DA:175,1
DA:178,1
DA:179,1
DA:180,1
DA:181,1
DA:184,1
DA:185,1
DA:186,1
DA:189,1
DA:190,1
DA:193,1
DA:194,1
DA:195,1
DA:196,1
DA:199,1
DA:200,1
DA:201,1
DA:202,1
DA:203,1
DA:204,1
DA:207,1
DA:208,1
DA:209,1
DA:211,1
DA:212,1
DA:214,1
DA:215,1
DA:216,1
BRF:0
BRH:0
LF:74
LH:72
end_of_record
SF:/home/nathan/Projects/smith/shared/smith-metrics/src/optimizer.rs
FN:650,_RNCNCNvMs_NtCs6Icymx2u3fr_13smith_metrics9optimizerNtB8_25ContextualBanditOptimizer16get_bandit_stats00Ba_
FN:665,_RNCNCNvMs_NtCs6Icymx2u3fr_13smith_metrics9optimizerNtB8_25ContextualBanditOptimizer16get_bandit_stats0s_0Ba_
FN:461,_RNCNCNvMs_NtCs6Icymx2u3fr_13smith_metrics9optimizerNtB8_25ContextualBanditOptimizer17should_stop_early00Ba_
FN:466,_RNCNCNvMs_NtCs6Icymx2u3fr_13smith_metrics9optimizerNtB8_25ContextualBanditOptimizer17should_stop_early0s0_0Ba_
FN:462,_RNCNCNvMs_NtCs6Icymx2u3fr_13smith_metrics9optimizerNtB8_25ContextualBanditOptimizer17should_stop_early0s_0Ba_
FN:327,_RNCNCNvMs_NtCs6Icymx2u3fr_13smith_metrics9optimizerNtB8_25ContextualBanditOptimizer18get_recommendation00Ba_
FN:405,_RNCNCNvMs_NtCs6Icymx2u3fr_13smith_metrics9optimizerNtB8_25ContextualBanditOptimizer18update_performance00Ba_
FN:639,_RNCNvMs_NtCs6Icymx2u3fr_13smith_metrics9optimizerNtB6_25ContextualBanditOptimizer16get_bandit_stats0B8_
FN:446,_RNCNvMs_NtCs6Icymx2u3fr_13smith_metrics9optimizerNtB6_25ContextualBanditOptimizer17should_stop_early0B8_
FN:305,_RNCNvMs_NtCs6Icymx2u3fr_13smith_metrics9optimizerNtB6_25ContextualBanditOptimizer18get_recommendation0B8_
FN:375,_RNCNvMs_NtCs6Icymx2u3fr_13smith_metrics9optimizerNtB6_25ContextualBanditOptimizer18update_performance0B8_
FN:603,_RNCNvMs_NtCs6Icymx2u3fr_13smith_metrics9optimizerNtB6_25ContextualBanditOptimizer22choose_exploration_arm0B8_
FN:265,_RNCNvMs_NtCs6Icymx2u3fr_13smith_metrics9optimizerNtB6_25ContextualBanditOptimizer31initialize_from_historical_data0B8_
FN:234,_RNCNvMs_NtCs6Icymx2u3fr_13smith_metrics9optimizerNtB6_25ContextualBanditOptimizer3new0B8_
FN:579,_RNvMs_NtCs6Icymx2u3fr_13smith_metrics9optimizerNtB4_25ContextualBanditOptimizer14should_explore
FN:639,_RNvMs_NtCs6Icymx2u3fr_13smith_metrics9optimizerNtB4_25ContextualBanditOptimizer16get_bandit_stats
FN:441,_RNvMs_NtCs6Icymx2u3fr_13smith_metrics9optimizerNtB4_25ContextualBanditOptimizer17should_stop_early
FN:302,_RNvMs_NtCs6Icymx2u3fr_13smith_metrics9optimizerNtB4_25ContextualBanditOptimizer18get_recommendation
FN:368,_RNvMs_NtCs6Icymx2u3fr_13smith_metrics9optimizerNtB4_25ContextualBanditOptimizer18update_performance
FN:595,_RNvMs_NtCs6Icymx2u3fr_13smith_metrics9optimizerNtB4_25ContextualBanditOptimizer22choose_exploration_arm
FN:622,_RNvMs_NtCs6Icymx2u3fr_13smith_metrics9optimizerNtB4_25ContextualBanditOptimizer23choose_exploitation_arm
FN:518,_RNvMs_NtCs6Icymx2u3fr_13smith_metrics9optimizerNtB4_25ContextualBanditOptimizer24evaluate_arm_for_context
FN:487,_RNvMs_NtCs6Icymx2u3fr_13smith_metrics9optimizerNtB4_25ContextualBanditOptimizer31generate_default_recommendation
FN:265,_RNvMs_NtCs6Icymx2u3fr_13smith_metrics9optimizerNtB4_25ContextualBanditOptimizer31initialize_from_historical_data
FN:234,_RNvMs_NtCs6Icymx2u3fr_13smith_metrics9optimizerNtB4_25ContextualBanditOptimizer3new
FN:719,_RNCNvMs0_NtCs6Icymx2u3fr_13smith_metrics9optimizerNtB7_16ContextExtractor19extract_context_key0B9_
FN:721,_RNCNvMs0_NtCs6Icymx2u3fr_13smith_metrics9optimizerNtB7_16ContextExtractor19extract_context_keys0_0B9_
FN:720,_RNCNvMs0_NtCs6Icymx2u3fr_13smith_metrics9optimizerNtB7_16ContextExtractor19extract_context_keys_0B9_
FN:754,_RNvNtNtCs6Icymx2u3fr_13smith_metrics9optimizer5testss_23test_context_extraction
FN:1293,_RNvNtNtCs6Icymx2u3fr_13smith_metrics9optimizer5testss_25test_arm_evaluation_logic
FN:839,_RNvNtNtCs6Icymx2u3fr_13smith_metrics9optimizer5testss_25test_contextual_arm_stats
FN:1405,_RNvNtNtCs6Icymx2u3fr_13smith_metrics9optimizer5testss_26test_early_stopping_config
FN:977,_RNvNtNtCs6Icymx2u3fr_13smith_metrics9optimizer5testss_27test_bandit_stats_structure
FN:1040,_RNvNtNtCs6Icymx2u3fr_13smith_metrics9optimizer5testss_27test_context_key_generation
FN:960,_RNvNtNtCs6Icymx2u3fr_13smith_metrics9optimizer5testss_27test_performance_comparison
FN:1135,_RNvNtNtCs6Icymx2u3fr_13smith_metrics9optimizer5testss_28test_arm_evaluation_creation
FN:819,_RNvNtNtCs6Icymx2u3fr_13smith_metrics9optimizer5testss_28test_arm_statistics_creation
FN:1315,_RNvNtNtCs6Icymx2u3fr_13smith_metrics9optimizer5testss_28test_bandit_state_operations
FN:995,_RNvNtNtCs6Icymx2u3fr_13smith_metrics9optimizer5testss_29test_arm_evaluation_structure
FN:1248,_RNvNtNtCs6Icymx2u3fr_13smith_metrics9optimizer5testss_29test_arm_statistics_structure
FN:1160,_RNvNtNtCs6Icymx2u3fr_13smith_metrics9optimizer5testss_29test_bandit_stats_calculation
FN:1213,_RNvNtNtCs6Icymx2u3fr_13smith_metrics9optimizer5testss_29test_task_features_validation
FN:899,_RNvNtNtCs6Icymx2u3fr_13smith_metrics9optimizer5testss_30test_context_extraction_config
FN:786,_RNvNtNtCs6Icymx2u3fr_13smith_metrics9optimizer5testss_30test_optimizer_config_defaults
FN:804,_RNvNtNtCs6Icymx2u3fr_13smith_metrics9optimizer5testss_32test_bandit_state_initialization
FN:1426,_RNvNtNtCs6Icymx2u3fr_13smith_metrics9optimizer5testss_33test_contextual_arm_stats_updates
FN:864,_RNvNtNtCs6Icymx2u3fr_13smith_metrics9optimizer5testss_34test_contextual_performance_record
FN:1349,_RNvNtNtCs6Icymx2u3fr_13smith_metrics9optimizer5testss_36test_contextual_performance_tracking
FN:1381,_RNvNtNtCs6Icymx2u3fr_13smith_metrics9optimizer5testss_36test_optimization_evidence_structure
FN:1103,_RNvNtNtCs6Icymx2u3fr_13smith_metrics9optimizer5testss_36test_should_explore_logic_simulation
FN:1017,_RNvNtNtCs6Icymx2u3fr_13smith_metrics9optimizer5testss_37test_context_extractor_discretization
FN:1082,_RNvNtNtCs6Icymx2u3fr_13smith_metrics9optimizer5testss_37test_early_stopping_config_validation
FN:1478,_RNvNtNtCs6Icymx2u3fr_13smith_metrics9optimizer5testss_38test_exploration_vs_exploitation_logic
FN:1188,_RNvNtNtCs6Icymx2u3fr_13smith_metrics9optimizer5testss_40test_context_extraction_config_structure
FN:1276,_RNvNtNtCs6Icymx2u3fr_13smith_metrics9optimizer5testss_41test_contextual_bandit_optimizer_creation
FN:1457,_RNvNtNtCs6Icymx2u3fr_13smith_metrics9optimizer5testss_42test_context_key_discretization_edge_cases
FN:912,_RNvNtNtCs6Icymx2u3fr_13smith_metrics9optimizer5testss_42test_optimization_recommendation_structure
FN:713,_RNvMs0_NtCs6Icymx2u3fr_13smith_metrics9optimizerNtB5_16ContextExtractor19extract_context_key
FN:731,_RNvMs0_NtCs6Icymx2u3fr_13smith_metrics9optimizerNtB5_16ContextExtractor20discretize_repo_size
FN:740,_RNvMs0_NtCs6Icymx2u3fr_13smith_metrics9optimizerNtB5_16ContextExtractor21discretize_complexity
FN:708,_RNvMs0_NtCs6Icymx2u3fr_13smith_metrics9optimizerNtB5_16ContextExtractor3new
FN:213,_RNvXNtCs6Icymx2u3fr_13smith_metrics9optimizerNtB2_15OptimizerConfigNtNtCs66KPHxksi63_4core7default7Default7default
FN:1241,_RNCNvNtNtCs6Icymx2u3fr_13smith_metrics9optimizer5testss_29test_task_features_validation0B7_
FN:1243,_RNCNvNtNtCs6Icymx2u3fr_13smith_metrics9optimizer5testss_29test_task_features_validations0_0B7_
FN:1242,_RNCNvNtNtCs6Icymx2u3fr_13smith_metrics9optimizer5testss_29test_task_features_validations_0B7_
FNDA:0,_RNCNCNvMs_NtCs6Icymx2u3fr_13smith_metrics9optimizerNtB8_25ContextualBanditOptimizer16get_bandit_stats00Ba_
FNDA:0,_RNCNCNvMs_NtCs6Icymx2u3fr_13smith_metrics9optimizerNtB8_25ContextualBanditOptimizer16get_bandit_stats0s_0Ba_
FNDA:0,_RNCNCNvMs_NtCs6Icymx2u3fr_13smith_metrics9optimizerNtB8_25ContextualBanditOptimizer17should_stop_early00Ba_
FNDA:0,_RNCNCNvMs_NtCs6Icymx2u3fr_13smith_metrics9optimizerNtB8_25ContextualBanditOptimizer17should_stop_early0s0_0Ba_
FNDA:0,_RNCNCNvMs_NtCs6Icymx2u3fr_13smith_metrics9optimizerNtB8_25ContextualBanditOptimizer17should_stop_early0s_0Ba_
FNDA:0,_RNCNCNvMs_NtCs6Icymx2u3fr_13smith_metrics9optimizerNtB8_25ContextualBanditOptimizer18get_recommendation00Ba_
FNDA:0,_RNCNCNvMs_NtCs6Icymx2u3fr_13smith_metrics9optimizerNtB8_25ContextualBanditOptimizer18update_performance00Ba_
FNDA:0,_RNCNvMs_NtCs6Icymx2u3fr_13smith_metrics9optimizerNtB6_25ContextualBanditOptimizer16get_bandit_stats0B8_
FNDA:0,_RNCNvMs_NtCs6Icymx2u3fr_13smith_metrics9optimizerNtB6_25ContextualBanditOptimizer17should_stop_early0B8_
FNDA:0,_RNCNvMs_NtCs6Icymx2u3fr_13smith_metrics9optimizerNtB6_25ContextualBanditOptimizer18get_recommendation0B8_
FNDA:0,_RNCNvMs_NtCs6Icymx2u3fr_13smith_metrics9optimizerNtB6_25ContextualBanditOptimizer18update_performance0B8_
FNDA:0,_RNCNvMs_NtCs6Icymx2u3fr_13smith_metrics9optimizerNtB6_25ContextualBanditOptimizer22choose_exploration_arm0B8_
FNDA:0,_RNCNvMs_NtCs6Icymx2u3fr_13smith_metrics9optimizerNtB6_25ContextualBanditOptimizer31initialize_from_historical_data0B8_
FNDA:0,_RNCNvMs_NtCs6Icymx2u3fr_13smith_metrics9optimizerNtB6_25ContextualBanditOptimizer3new0B8_
FNDA:0,_RNvMs_NtCs6Icymx2u3fr_13smith_metrics9optimizerNtB4_25ContextualBanditOptimizer14should_explore
FNDA:0,_RNvMs_NtCs6Icymx2u3fr_13smith_metrics9optimizerNtB4_25ContextualBanditOptimizer16get_bandit_stats
FNDA:0,_RNvMs_NtCs6Icymx2u3fr_13smith_metrics9optimizerNtB4_25ContextualBanditOptimizer17should_stop_early
FNDA:0,_RNvMs_NtCs6Icymx2u3fr_13smith_metrics9optimizerNtB4_25ContextualBanditOptimizer18get_recommendation
FNDA:0,_RNvMs_NtCs6Icymx2u3fr_13smith_metrics9optimizerNtB4_25ContextualBanditOptimizer18update_performance
FNDA:0,_RNvMs_NtCs6Icymx2u3fr_13smith_metrics9optimizerNtB4_25ContextualBanditOptimizer22choose_exploration_arm
FNDA:0,_RNvMs_NtCs6Icymx2u3fr_13smith_metrics9optimizerNtB4_25ContextualBanditOptimizer23choose_exploitation_arm
FNDA:0,_RNvMs_NtCs6Icymx2u3fr_13smith_metrics9optimizerNtB4_25ContextualBanditOptimizer24evaluate_arm_for_context
FNDA:0,_RNvMs_NtCs6Icymx2u3fr_13smith_metrics9optimizerNtB4_25ContextualBanditOptimizer31generate_default_recommendation
FNDA:0,_RNvMs_NtCs6Icymx2u3fr_13smith_metrics9optimizerNtB4_25ContextualBanditOptimizer31initialize_from_historical_data
FNDA:0,_RNvMs_NtCs6Icymx2u3fr_13smith_metrics9optimizerNtB4_25ContextualBanditOptimizer3new
FNDA:2,_RNCNvMs0_NtCs6Icymx2u3fr_13smith_metrics9optimizerNtB7_16ContextExtractor19extract_context_key0B9_
FNDA:0,_RNCNvMs0_NtCs6Icymx2u3fr_13smith_metrics9optimizerNtB7_16ContextExtractor19extract_context_keys0_0B9_
FNDA:2,_RNCNvMs0_NtCs6Icymx2u3fr_13smith_metrics9optimizerNtB7_16ContextExtractor19extract_context_keys_0B9_
FNDA:1,_RNvNtNtCs6Icymx2u3fr_13smith_metrics9optimizer5testss_23test_context_extraction
FNDA:1,_RNvNtNtCs6Icymx2u3fr_13smith_metrics9optimizer5testss_25test_arm_evaluation_logic
FNDA:1,_RNvNtNtCs6Icymx2u3fr_13smith_metrics9optimizer5testss_25test_contextual_arm_stats
FNDA:1,_RNvNtNtCs6Icymx2u3fr_13smith_metrics9optimizer5testss_26test_early_stopping_config
FNDA:1,_RNvNtNtCs6Icymx2u3fr_13smith_metrics9optimizer5testss_27test_bandit_stats_structure
FNDA:1,_RNvNtNtCs6Icymx2u3fr_13smith_metrics9optimizer5testss_27test_context_key_generation
FNDA:1,_RNvNtNtCs6Icymx2u3fr_13smith_metrics9optimizer5testss_27test_performance_comparison
FNDA:1,_RNvNtNtCs6Icymx2u3fr_13smith_metrics9optimizer5testss_28test_arm_evaluation_creation
FNDA:1,_RNvNtNtCs6Icymx2u3fr_13smith_metrics9optimizer5testss_28test_arm_statistics_creation
FNDA:1,_RNvNtNtCs6Icymx2u3fr_13smith_metrics9optimizer5testss_28test_bandit_state_operations
FNDA:1,_RNvNtNtCs6Icymx2u3fr_13smith_metrics9optimizer5testss_29test_arm_evaluation_structure
FNDA:1,_RNvNtNtCs6Icymx2u3fr_13smith_metrics9optimizer5testss_29test_arm_statistics_structure
FNDA:1,_RNvNtNtCs6Icymx2u3fr_13smith_metrics9optimizer5testss_29test_bandit_stats_calculation
FNDA:1,_RNvNtNtCs6Icymx2u3fr_13smith_metrics9optimizer5testss_29test_task_features_validation
FNDA:1,_RNvNtNtCs6Icymx2u3fr_13smith_metrics9optimizer5testss_30test_context_extraction_config
FNDA:1,_RNvNtNtCs6Icymx2u3fr_13smith_metrics9optimizer5testss_30test_optimizer_config_defaults
FNDA:1,_RNvNtNtCs6Icymx2u3fr_13smith_metrics9optimizer5testss_32test_bandit_state_initialization
FNDA:1,_RNvNtNtCs6Icymx2u3fr_13smith_metrics9optimizer5testss_33test_contextual_arm_stats_updates
FNDA:1,_RNvNtNtCs6Icymx2u3fr_13smith_metrics9optimizer5testss_34test_contextual_performance_record
FNDA:1,_RNvNtNtCs6Icymx2u3fr_13smith_metrics9optimizer5testss_36test_contextual_performance_tracking
FNDA:1,_RNvNtNtCs6Icymx2u3fr_13smith_metrics9optimizer5testss_36test_optimization_evidence_structure
FNDA:1,_RNvNtNtCs6Icymx2u3fr_13smith_metrics9optimizer5testss_36test_should_explore_logic_simulation
FNDA:1,_RNvNtNtCs6Icymx2u3fr_13smith_metrics9optimizer5testss_37test_context_extractor_discretization
FNDA:1,_RNvNtNtCs6Icymx2u3fr_13smith_metrics9optimizer5testss_37test_early_stopping_config_validation
FNDA:1,_RNvNtNtCs6Icymx2u3fr_13smith_metrics9optimizer5testss_38test_exploration_vs_exploitation_logic
FNDA:1,_RNvNtNtCs6Icymx2u3fr_13smith_metrics9optimizer5testss_40test_context_extraction_config_structure
FNDA:1,_RNvNtNtCs6Icymx2u3fr_13smith_metrics9optimizer5testss_41test_contextual_bandit_optimizer_creation
FNDA:1,_RNvNtNtCs6Icymx2u3fr_13smith_metrics9optimizer5testss_42test_context_key_discretization_edge_cases
FNDA:1,_RNvNtNtCs6Icymx2u3fr_13smith_metrics9optimizer5testss_42test_optimization_recommendation_structure
FNDA:2,_RNvMs0_NtCs6Icymx2u3fr_13smith_metrics9optimizerNtB5_16ContextExtractor19extract_context_key
FNDA:10,_RNvMs0_NtCs6Icymx2u3fr_13smith_metrics9optimizerNtB5_16ContextExtractor20discretize_repo_size
FNDA:9,_RNvMs0_NtCs6Icymx2u3fr_13smith_metrics9optimizerNtB5_16ContextExtractor21discretize_complexity
FNDA:5,_RNvMs0_NtCs6Icymx2u3fr_13smith_metrics9optimizerNtB5_16ContextExtractor3new
FNDA:3,_RNvXNtCs6Icymx2u3fr_13smith_metrics9optimizerNtB2_15OptimizerConfigNtNtCs66KPHxksi63_4core7default7Default7default
FNDA:1,_RNCNvNtNtCs6Icymx2u3fr_13smith_metrics9optimizer5testss_29test_task_features_validation0B7_
FNDA:0,_RNCNvNtNtCs6Icymx2u3fr_13smith_metrics9optimizer5testss_29test_task_features_validations0_0B7_
FNDA:1,_RNCNvNtNtCs6Icymx2u3fr_13smith_metrics9optimizer5testss_29test_task_features_validations_0B7_
FNF:65
FNH:38
DA:213,3
DA:214,3
DA:215,3
DA:216,3
DA:217,3
DA:218,3
DA:219,3
DA:220,3
DA:221,3
DA:222,3
DA:223,3
DA:224,3
DA:225,3
DA:226,3
DA:227,3
DA:228,3
DA:229,3
DA:234,0
DA:235,0
DA:237,0
DA:238,0
DA:239,0
DA:240,0
DA:241,0
DA:243,0
DA:244,0
DA:245,0
DA:246,0
DA:247,0
DA:248,0
DA:250,0
DA:251,0
DA:252,0
DA:253,0
DA:254,0
DA:255,0
DA:258,0
DA:260,0
DA:261,0
DA:262,0
DA:265,0
DA:266,0
DA:269,0
DA:270,0
DA:271,0
DA:272,0
DA:274,0
DA:276,0
DA:277,0
DA:278,0
DA:279,0
DA:280,0
DA:281,0
DA:282,0
DA:283,0
DA:284,0
DA:285,0
DA:286,0
DA:287,0
DA:288,0
DA:289,0
DA:291,0
DA:292,0
DA:293,0
DA:294,0
DA:295,0
DA:298,0
DA:299,0
DA:302,0
DA:303,0
DA:304,0
DA:305,0
DA:306,0
DA:307,0
DA:311,0
DA:312,0
DA:314,0
DA:315,0
DA:316,0
DA:319,0
DA:321,0
DA:322,0
DA:323,0
DA:324,0
DA:327,0
DA:330,0
DA:331,0
DA:332,0
DA:334,0
DA:337,0
DA:338,0
DA:340,0
DA:341,0
DA:342,0
DA:343,0
DA:344,0
DA:345,0
DA:346,0
DA:347,0
DA:348,0
DA:349,0
DA:350,0
DA:351,0
DA:352,0
DA:353,0
DA:354,0
DA:355,0
DA:356,0
DA:357,0
DA:358,0
DA:360,0
DA:361,0
DA:364,0
DA:365,0
DA:368,0
DA:369,0
DA:370,0
DA:371,0
DA:372,0
DA:373,0
DA:374,0
DA:375,0
DA:376,0
DA:377,0
DA:381,0
DA:382,0
DA:385,0
DA:386,0
DA:387,0
DA:388,0
DA:389,0
DA:392,0
DA:393,0
DA:394,0
DA:395,0
DA:398,0
DA:399,0
DA:400,0
DA:401,0
DA:405,0
DA:406,0
DA:408,0
DA:409,0
DA:410,0
DA:411,0
DA:412,0
DA:413,0
DA:414,0
DA:415,0
DA:418,0
DA:419,0
DA:420,0
DA:421,0
DA:422,0
DA:423,0
DA:424,0
DA:425,0
DA:427,0
DA:428,0
DA:429,0
DA:430,0
DA:431,0
DA:433,0
DA:434,0
DA:436,0
DA:437,0
DA:438,0
DA:441,0
DA:442,0
DA:443,0
DA:444,0
DA:445,0
DA:446,0
DA:447,0
DA:448,0
DA:449,0
DA:451,0
DA:452,0
DA:453,0
DA:455,0
DA:458,0
DA:459,0
DA:460,0
DA:461,0
DA:462,0
DA:463,0
DA:465,0
DA:466,0
DA:469,0
DA:470,0
DA:471,0
DA:473,0
DA:474,0
DA:476,0
DA:477,0
DA:478,0
DA:481,0
DA:483,0
DA:484,0
DA:487,0
DA:488,0
DA:489,0
DA:490,0
DA:491,0
DA:493,0
DA:495,0
DA:496,0
DA:497,0
DA:498,0
DA:499,0
DA:500,0
DA:501,0
DA:502,0
DA:503,0
DA:504,0
DA:505,0
DA:506,0
DA:507,0
DA:508,0
DA:509,0
DA:510,0
DA:511,0
DA:512,0
DA:513,0
DA:514,0
DA:515,0
DA:518,0
DA:519,0
DA:520,0
DA:521,0
DA:522,0
DA:523,0
DA:525,0
DA:526,0
DA:527,0
DA:528,0
DA:530,0
DA:532,0
DA:533,0
DA:535,0
DA:537,0
DA:540,0
DA:541,0
DA:543,0
DA:545,0
DA:546,0
DA:548,0
DA:550,0
DA:554,0
DA:555,0
DA:556,0
DA:557,0
DA:559,0
DA:562,0
DA:565,0
DA:566,0
DA:567,0
DA:568,0
DA:569,0
DA:570,0
DA:572,0
DA:576,0
DA:579,0
DA:581,0
DA:584,0
DA:585,0
DA:587,0
DA:590,0
DA:591,0
DA:592,0
DA:595,0
DA:596,0
DA:597,0
DA:598,0
DA:599,0
DA:601,0
DA:602,0
DA:603,0
DA:604,0
DA:606,0
DA:607,0
DA:609,0
DA:612,0
DA:613,0
DA:614,0
DA:618,0
DA:619,0
DA:622,0
DA:623,0
DA:624,0
DA:625,0
DA:626,0
DA:627,0
DA:629,0
DA:630,0
DA:632,0
DA:635,0
DA:636,0
DA:639,0
DA:640,0
DA:642,0
DA:643,0
DA:644,0
DA:645,0
DA:647,0
DA:650,0
DA:651,0
DA:652,0
DA:654,0
DA:656,0
DA:657,0
DA:659,0
DA:661,0
DA:662,0
DA:664,0
DA:665,0
DA:666,0
DA:667,0
DA:669,0
DA:671,0
DA:672,0
DA:674,0
DA:675,0
DA:676,0
DA:677,0
DA:678,0
DA:679,0
DA:680,0
DA:681,0
DA:682,0
DA:708,5
DA:709,5
DA:710,5
DA:713,2
DA:715,2
DA:716,2
DA:717,2
DA:718,2
DA:719,2
DA:720,2
DA:721,2
DA:723,2
DA:725,2
DA:726,2
DA:729,2
DA:731,10
DA:732,20
DA:733,20
DA:734,8
DA:735,12
DA:737,2
DA:738,10
DA:740,9
DA:741,9
DA:742,9
DA:743,7
DA:744,4
DA:746,9
DA:754,1
DA:755,1
DA:756,1
DA:757,1
DA:758,1
DA:759,1
DA:761,1
DA:762,1
DA:763,1
DA:764,1
DA:765,1
DA:766,1
DA:767,1
DA:768,1
DA:769,1
DA:770,1
DA:771,1
DA:772,1
DA:773,1
DA:774,1
DA:775,1
DA:776,1
DA:778,1
DA:779,1
DA:780,1
DA:781,1
DA:782,1
DA:783,1
DA:786,1
DA:787,1
DA:788,1
DA:789,1
DA:790,1
DA:791,1
DA:792,1
DA:793,1
DA:794,1
DA:797,1
DA:798,1
DA:799,1
DA:800,1
DA:801,1
DA:804,1
DA:805,1
DA:806,1
DA:807,1
DA:808,1
DA:809,1
DA:810,1
DA:812,1
DA:813,1
DA:814,1
DA:815,1
DA:816,1
DA:819,1
DA:820,1
DA:821,1
DA:822,1
DA:823,1
DA:824,1
DA:825,1
DA:826,1
DA:827,1
DA:828,1
DA:829,1
DA:831,1
DA:832,1
DA:833,1
DA:834,1
DA:835,1
DA:836,1
DA:839,1
DA:840,1
DA:841,1
DA:842,1
DA:843,1
DA:844,1
DA:845,1
DA:848,1
DA:849,3
DA:850,3
DA:851,3
DA:852,3
DA:853,3
DA:854,3
DA:856,1
DA:857,1
DA:858,1
DA:859,1
DA:860,1
DA:861,1
DA:864,1
DA:865,1
DA:866,1
DA:867,1
DA:868,1
DA:869,1
DA:870,1
DA:871,1
DA:872,1
DA:873,1
DA:874,1
DA:875,1
DA:876,1
DA:877,1
DA:878,1
DA:879,1
DA:880,1
DA:882,1
DA:883,1
DA:884,1
DA:885,1
DA:886,1
DA:887,1
DA:888,1
DA:889,1
DA:891,1
DA:892,1
DA:893,1
DA:894,1
DA:895,1
DA:896,1
DA:899,1
DA:900,1
DA:901,1
DA:902,1
DA:903,1
DA:904,1
DA:906,1
DA:907,1
DA:908,1
DA:909,1
DA:912,1
DA:913,1
DA:914,1
DA:915,1
DA:916,1
DA:917,1
DA:918,1
DA:919,1
DA:920,1
DA:921,1
DA:922,1
DA:923,1
DA:924,1
DA:925,1
DA:926,1
DA:927,1
DA:928,1
DA:930,1
DA:931,1
DA:932,1
DA:933,1
DA:934,1
DA:935,1
DA:936,1
DA:937,1
DA:938,1
DA:939,1
DA:940,1
DA:942,1
DA:943,1
DA:944,1
DA:945,1
DA:946,1
DA:947,1
DA:948,1
DA:949,1
DA:950,1
DA:952,1
DA:953,1
DA:954,1
DA:955,1
DA:956,1
DA:957,1
DA:960,1
DA:961,1
DA:962,1
DA:963,1
DA:964,1
DA:965,1
DA:967,1
DA:968,1
DA:969,1
DA:972,1
DA:973,1
DA:974,1
DA:977,1
DA:978,1
DA:979,1
DA:980,1
DA:981,1
DA:982,1
DA:983,1
DA:984,1
DA:985,1
DA:987,1
DA:988,1
DA:989,1
DA:990,1
DA:991,1
DA:992,1
DA:995,1
DA:996,1
DA:997,1
DA:998,1
DA:999,1
DA:1000,1
DA:1001,1
DA:1002,1
DA:1003,1
DA:1005,1
DA:1006,1
DA:1007,1
DA:1008,1
DA:1009,1
DA:1010,1
DA:1013,1
DA:1014,1
DA:1017,1
DA:1018,1
DA:1019,1
DA:1020,1
DA:1021,1
DA:1022,1
DA:1025,1
DA:1027,1
DA:1029,1
DA:1031,1
DA:1034,1
DA:1035,1
DA:1036,1
DA:1037,1
DA:1040,1
DA:1041,1
DA:1042,1
DA:1043,1
DA:1044,1
DA:1045,1
DA:1047,1
DA:1048,1
DA:1049,1
DA:1050,1
DA:1051,1
DA:1052,1
DA:1053,1
DA:1054,1
DA:1055,1
DA:1056,1
DA:1057,1
DA:1058,1
DA:1059,1
DA:1060,1
DA:1061,1
DA:1062,1
DA:1064,1
DA:1067,1
DA:1068,1
DA:1069,1
DA:1070,1
DA:1073,1
DA:1074,1
DA:1075,1
DA:1076,1
DA:1077,1
DA:1078,1
DA:1079,1
DA:1082,1
DA:1083,1
DA:1084,1
DA:1085,1
DA:1086,1
DA:1087,1
DA:1088,1
DA:1089,1
DA:1091,1
DA:1092,1
DA:1093,1
DA:1094,1
DA:1095,1
DA:1098,1
DA:1099,1
DA:1100,1
DA:1103,1
DA:1104,1
DA:1105,1
DA:1106,1
DA:1107,1
DA:1108,1
DA:1109,1
DA:1110,1
DA:1113,1
DA:1116,1
DA:1117,1
DA:1118,0
DA:1120,1
DA:1122,1
DA:1124,1
DA:1125,1
DA:1128,1
DA:1129,1
DA:1131,1
DA:1132,1
DA:1135,1
DA:1137,1
DA:1138,1
DA:1139,1
DA:1140,1
DA:1141,1
DA:1142,1
DA:1143,1
DA:1144,1
DA:1146,1
DA:1147,1
DA:1148,1
DA:1149,1
DA:1150,1
DA:1151,1
DA:1154,1
DA:1156,1
DA:1157,1
DA:1160,1
DA:1162,1
DA:1163,1
DA:1164,1
DA:1165,1
DA:1167,1
DA:1168,1
DA:1170,0
DA:1173,1
DA:1174,1
DA:1176,0
DA:1179,1
DA:1180,1
DA:1183,1
DA:1184,1
DA:1185,1
DA:1188,1
DA:1189,1
DA:1190,1
DA:1191,1
DA:1192,1
DA:1193,1
DA:1196,1
DA:1197,1
DA:1198,1
DA:1201,1
DA:1202,1
DA:1203,1
DA:1204,1
DA:1205,1
DA:1207,1
DA:1208,1
DA:1209,1
DA:1210,1
DA:1213,1
DA:1214,1
DA:1215,1
DA:1216,1
DA:1217,1
DA:1218,1
DA:1219,1
DA:1220,1
DA:1221,1
DA:1222,1
DA:1223,1
DA:1224,1
DA:1225,1
DA:1226,1
DA:1227,1
DA:1228,1
DA:1229,1
DA:1232,1
DA:1233,1
DA:1234,1
DA:1235,1
DA:1236,1
DA:1237,1
DA:1240,1
DA:1241,1
DA:1242,1
DA:1243,1
DA:1244,1
DA:1245,1
DA:1248,1
DA:1251,1
DA:1252,1
DA:1253,1
DA:1254,1
DA:1255,1
DA:1256,1
DA:1257,1
DA:1258,1
DA:1259,1
DA:1260,1
DA:1262,1
DA:1263,1
DA:1264,1
DA:1267,1
DA:1268,1
DA:1271,1
DA:1272,1
DA:1273,1
DA:1276,1
DA:1278,1
DA:1281,1
DA:1282,1
DA:1283,1
DA:1284,1
DA:1285,1
DA:1287,1
DA:1288,1
DA:1289,1
DA:1290,1
DA:1293,1
DA:1295,1
DA:1296,1
DA:1297,1
DA:1298,1
DA:1299,1
DA:1300,1
DA:1301,1
DA:1302,1
DA:1305,1
DA:1308,1
DA:1311,1
DA:1312,1
DA:1315,1
DA:1316,1
DA:1317,1
DA:1318,1
DA:1319,1
DA:1320,1
DA:1321,1
DA:1324,1
DA:1325,1
DA:1326,1
DA:1327,1
DA:1328,1
DA:1329,1
DA:1330,1
DA:1331,1
DA:1332,1
DA:1333,1
DA:1335,1
DA:1336,1
DA:1338,1
DA:1339,1
DA:1340,1
DA:1343,1
DA:1344,1
DA:1345,1
DA:1346,1
DA:1349,1
DA:1350,1
DA:1351,1
DA:1352,1
DA:1353,1
DA:1354,1
DA:1355,1
DA:1356,1
DA:1357,1
DA:1358,1
DA:1359,1
DA:1360,1
DA:1361,1
DA:1362,1
DA:1363,1
DA:1364,1
DA:1365,1
DA:1366,1
DA:1367,1
DA:1368,1
DA:1369,1
DA:1370,1
DA:1371,1
DA:1373,1
DA:1374,1
DA:1375,1
DA:1376,1
DA:1377,1
DA:1378,1
DA:1381,1
DA:1382,1
DA:1383,1
DA:1384,1
DA:1385,1
DA:1386,1
DA:1387,1
DA:1388,1
DA:1389,1
DA:1390,1
DA:1391,1
DA:1392,1
DA:1394,1
DA:1395,1
DA:1396,1
DA:1397,1
DA:1400,1
DA:1401,1
DA:1402,1
DA:1405,1
DA:1406,1
DA:1407,1
DA:1408,1
DA:1409,1
DA:1410,1
DA:1411,1
DA:1412,1
DA:1414,1
DA:1415,1
DA:1416,1
DA:1417,1
DA:1418,1
DA:1421,1
DA:1422,1
DA:1423,1
DA:1426,1
DA:1427,1
DA:1428,1
DA:1429,1
DA:1430,1
DA:1431,1
DA:1432,1
DA:1435,1
DA:1436,5
DA:1437,5
DA:1438,5
DA:1439,5
DA:1440,5
DA:1441,5
DA:1443,1
DA:1444,1
DA:1445,1
DA:1448,1
DA:1449,1
DA:1452,1
DA:1453,1
DA:1454,1
DA:1457,1
DA:1458,1
DA:1459,1
DA:1460,1
DA:1461,1
DA:1462,1
DA:1465,1
DA:1466,1
DA:1467,1
DA:1468,1
DA:1471,1
DA:1472,1
DA:1473,1
DA:1474,1
DA:1475,1
DA:1478,1
DA:1480,1
DA:1481,1
DA:1482,1
DA:1483,1
DA:1484,1
DA:1485,1
DA:1486,1
DA:1487,1
DA:1488,1
DA:1489,1
DA:1490,1
DA:1491,1
DA:1492,1
DA:1493,1
DA:1494,1
DA:1497,1
DA:1500,1
DA:1503,1
DA:1504,1
BRF:0
BRH:0
LF:951
LH:620
end_of_record
SF:/home/nathan/Projects/smith/shared/smith-metrics/src/registry.rs
FN:113,_RNvMNtCs6Icymx2u3fr_13smith_metrics8registryNtB2_20SmithMetricsRegistry13health_status
FN:104,_RNvMNtCs6Icymx2u3fr_13smith_metrics8registryNtB2_20SmithMetricsRegistry13list_services
FN:39,_RNvMNtCs6Icymx2u3fr_13smith_metrics8registryNtB2_20SmithMetricsRegistry15global_registry
FN:44,_RNvMNtCs6Icymx2u3fr_13smith_metrics8registryNtB2_20SmithMetricsRegistry16register_service
FN:54,_RNvMNtCs6Icymx2u3fr_13smith_metrics8registryNtB2_20SmithMetricsRegistry18export_all_metrics
FN:24,_RNvMNtCs6Icymx2u3fr_13smith_metrics8registryNtB2_20SmithMetricsRegistry20get_service_registry
FN:82,_RNvMNtCs6Icymx2u3fr_13smith_metrics8registryNtB2_20SmithMetricsRegistry22export_service_metrics
FN:16,_RNvMNtCs6Icymx2u3fr_13smith_metrics8registryNtB2_20SmithMetricsRegistry3new
FN:174,_RNvNtCs6Icymx2u3fr_13smith_metrics8registry16service_registry
FN:179,_RNvNtCs6Icymx2u3fr_13smith_metrics8registry18export_all_metrics
FN:184,_RNvNtCs6Icymx2u3fr_13smith_metrics8registry22export_service_metrics
FN:169,_RNvNtCs6Icymx2u3fr_13smith_metrics8registry23global_metrics_registry
FN:144,_RNvXs_NtCs6Icymx2u3fr_13smith_metrics8registryNtB4_20SmithMetricsRegistryNtNtCs66KPHxksi63_4core7default7Default7default
FN:239,_RNvNtNtCs6Icymx2u3fr_13smith_metrics8registry5testss_21test_register_service
FN:193,_RNvNtNtCs6Icymx2u3fr_13smith_metrics8registry5testss_22test_registry_creation
FN:328,_RNvNtNtCs6Icymx2u3fr_13smith_metrics8registry5testss_24test_health_status_empty
FN:368,_RNvNtNtCs6Icymx2u3fr_13smith_metrics8registry5testss_26test_convenience_functions
FN:230,_RNvNtNtCs6Icymx2u3fr_13smith_metrics8registry5testss_27test_default_implementation
FN:221,_RNvNtNtCs6Icymx2u3fr_13smith_metrics8registry5testss_27test_global_registry_access
FN:267,_RNvNtNtCs6Icymx2u3fr_13smith_metrics8registry5testss_29test_export_all_metrics_empty
FN:212,_RNvNtNtCs6Icymx2u3fr_13smith_metrics8registry5testss_30test_global_registry_singleton
FN:200,_RNvNtNtCs6Icymx2u3fr_13smith_metrics8registry5testss_30test_service_registry_creation
FN:336,_RNvNtNtCs6Icymx2u3fr_13smith_metrics8registry5testss_31test_health_status_with_metrics
FN:252,_RNvNtNtCs6Icymx2u3fr_13smith_metrics8registry5testss_34test_get_existing_service_registry
FN:387,_RNvNtNtCs6Icymx2u3fr_13smith_metrics8registry5testss_34test_health_status_struct_creation
FN:295,_RNvNtNtCs6Icymx2u3fr_13smith_metrics8registry5testss_35test_export_service_metrics_success
FN:276,_RNvNtNtCs6Icymx2u3fr_13smith_metrics8registry5testss_37test_export_all_metrics_with_services
FN:313,_RNvNtNtCs6Icymx2u3fr_13smith_metrics8registry5testss_37test_export_service_metrics_not_found
FN:114,_RNCNvMNtCs6Icymx2u3fr_13smith_metrics8registryNtB4_20SmithMetricsRegistry13health_status0B6_
FN:122,_RNCNvMNtCs6Icymx2u3fr_13smith_metrics8registryNtB4_20SmithMetricsRegistry13health_statuss_0B6_
FN:105,_RNCNvMNtCs6Icymx2u3fr_13smith_metrics8registryNtB4_20SmithMetricsRegistry13list_services0B6_
FN:45,_RNCNvMNtCs6Icymx2u3fr_13smith_metrics8registryNtB4_20SmithMetricsRegistry16register_service0B6_
FN:66,_RNCNvMNtCs6Icymx2u3fr_13smith_metrics8registryNtB4_20SmithMetricsRegistry18export_all_metrics0B6_
FN:78,_RNCNvMNtCs6Icymx2u3fr_13smith_metrics8registryNtB4_20SmithMetricsRegistry18export_all_metricss0_0B6_
FN:76,_RNCNvMNtCs6Icymx2u3fr_13smith_metrics8registryNtB4_20SmithMetricsRegistry18export_all_metricss_0B6_
FN:25,_RNCNvMNtCs6Icymx2u3fr_13smith_metrics8registryNtB4_20SmithMetricsRegistry20get_service_registry0B6_
FN:86,_RNCNvMNtCs6Icymx2u3fr_13smith_metrics8registryNtB4_20SmithMetricsRegistry22export_service_metrics0B6_
FN:98,_RNCNvMNtCs6Icymx2u3fr_13smith_metrics8registryNtB4_20SmithMetricsRegistry22export_service_metricss0_0B6_
FN:100,_RNCNvMNtCs6Icymx2u3fr_13smith_metrics8registryNtB4_20SmithMetricsRegistry22export_service_metricss1_0B6_
FN:88,_RNCNvMNtCs6Icymx2u3fr_13smith_metrics8registryNtB4_20SmithMetricsRegistry22export_service_metricss_0B6_
FNDA:2,_RNvMNtCs6Icymx2u3fr_13smith_metrics8registryNtB2_20SmithMetricsRegistry13health_status
FNDA:7,_RNvMNtCs6Icymx2u3fr_13smith_metrics8registryNtB2_20SmithMetricsRegistry13list_services
FNDA:1,_RNvMNtCs6Icymx2u3fr_13smith_metrics8registryNtB2_20SmithMetricsRegistry15global_registry
FNDA:1,_RNvMNtCs6Icymx2u3fr_13smith_metrics8registryNtB2_20SmithMetricsRegistry16register_service
FNDA:3,_RNvMNtCs6Icymx2u3fr_13smith_metrics8registryNtB2_20SmithMetricsRegistry18export_all_metrics
FNDA:9,_RNvMNtCs6Icymx2u3fr_13smith_metrics8registryNtB2_20SmithMetricsRegistry20get_service_registry
FNDA:3,_RNvMNtCs6Icymx2u3fr_13smith_metrics8registryNtB2_20SmithMetricsRegistry22export_service_metrics
FNDA:14,_RNvMNtCs6Icymx2u3fr_13smith_metrics8registryNtB2_20SmithMetricsRegistry3new
FNDA:1,_RNvNtCs6Icymx2u3fr_13smith_metrics8registry16service_registry
FNDA:1,_RNvNtCs6Icymx2u3fr_13smith_metrics8registry18export_all_metrics
FNDA:1,_RNvNtCs6Icymx2u3fr_13smith_metrics8registry22export_service_metrics
FNDA:6,_RNvNtCs6Icymx2u3fr_13smith_metrics8registry23global_metrics_registry
FNDA:1,_RNvXs_NtCs6Icymx2u3fr_13smith_metrics8registryNtB4_20SmithMetricsRegistryNtNtCs66KPHxksi63_4core7default7Default7default
FNDA:1,_RNvNtNtCs6Icymx2u3fr_13smith_metrics8registry5testss_21test_register_service
FNDA:1,_RNvNtNtCs6Icymx2u3fr_13smith_metrics8registry5testss_22test_registry_creation
FNDA:1,_RNvNtNtCs6Icymx2u3fr_13smith_metrics8registry5testss_24test_health_status_empty
FNDA:1,_RNvNtNtCs6Icymx2u3fr_13smith_metrics8registry5testss_26test_convenience_functions
FNDA:1,_RNvNtNtCs6Icymx2u3fr_13smith_metrics8registry5testss_27test_default_implementation
FNDA:1,_RNvNtNtCs6Icymx2u3fr_13smith_metrics8registry5testss_27test_global_registry_access
FNDA:1,_RNvNtNtCs6Icymx2u3fr_13smith_metrics8registry5testss_29test_export_all_metrics_empty
FNDA:1,_RNvNtNtCs6Icymx2u3fr_13smith_metrics8registry5testss_30test_global_registry_singleton
FNDA:1,_RNvNtNtCs6Icymx2u3fr_13smith_metrics8registry5testss_30test_service_registry_creation
FNDA:1,_RNvNtNtCs6Icymx2u3fr_13smith_metrics8registry5testss_31test_health_status_with_metrics
FNDA:1,_RNvNtNtCs6Icymx2u3fr_13smith_metrics8registry5testss_34test_get_existing_service_registry
FNDA:1,_RNvNtNtCs6Icymx2u3fr_13smith_metrics8registry5testss_34test_health_status_struct_creation
FNDA:1,_RNvNtNtCs6Icymx2u3fr_13smith_metrics8registry5testss_35test_export_service_metrics_success
FNDA:1,_RNvNtNtCs6Icymx2u3fr_13smith_metrics8registry5testss_37test_export_all_metrics_with_services
FNDA:1,_RNvNtNtCs6Icymx2u3fr_13smith_metrics8registry5testss_37test_export_service_metrics_not_found
FNDA:0,_RNCNvMNtCs6Icymx2u3fr_13smith_metrics8registryNtB4_20SmithMetricsRegistry13health_status0B6_
FNDA:1,_RNCNvMNtCs6Icymx2u3fr_13smith_metrics8registryNtB4_20SmithMetricsRegistry13health_statuss_0B6_
FNDA:0,_RNCNvMNtCs6Icymx2u3fr_13smith_metrics8registryNtB4_20SmithMetricsRegistry13list_services0B6_
FNDA:0,_RNCNvMNtCs6Icymx2u3fr_13smith_metrics8registryNtB4_20SmithMetricsRegistry16register_service0B6_
FNDA:0,_RNCNvMNtCs6Icymx2u3fr_13smith_metrics8registryNtB4_20SmithMetricsRegistry18export_all_metrics0B6_
FNDA:0,_RNCNvMNtCs6Icymx2u3fr_13smith_metrics8registryNtB4_20SmithMetricsRegistry18export_all_metricss0_0B6_
FNDA:0,_RNCNvMNtCs6Icymx2u3fr_13smith_metrics8registryNtB4_20SmithMetricsRegistry18export_all_metricss_0B6_
FNDA:0,_RNCNvMNtCs6Icymx2u3fr_13smith_metrics8registryNtB4_20SmithMetricsRegistry20get_service_registry0B6_
FNDA:0,_RNCNvMNtCs6Icymx2u3fr_13smith_metrics8registryNtB4_20SmithMetricsRegistry22export_service_metrics0B6_
FNDA:0,_RNCNvMNtCs6Icymx2u3fr_13smith_metrics8registryNtB4_20SmithMetricsRegistry22export_service_metricss0_0B6_
FNDA:0,_RNCNvMNtCs6Icymx2u3fr_13smith_metrics8registryNtB4_20SmithMetricsRegistry22export_service_metricss1_0B6_
FNDA:2,_RNCNvMNtCs6Icymx2u3fr_13smith_metrics8registryNtB4_20SmithMetricsRegistry22export_service_metricss_0B6_
FNF:40
FNH:30
DA:16,14
DA:17,14
DA:18,14
DA:19,14
DA:20,14
DA:21,14
DA:24,9
DA:25,9
DA:26,0
DA:27,0
DA:29,9
DA:30,1
DA:32,8
DA:33,8
DA:34,8
DA:36,9
DA:39,1
DA:40,1
DA:41,1
DA:44,1
DA:45,1
DA:46,0
DA:47,0
DA:49,1
DA:50,1
DA:51,1
DA:54,3
DA:55,3
DA:56,3
DA:59,3
DA:60,3
DA:63,3
DA:64,3
DA:65,3
DA:66,3
DA:68,3
DA:69,2
DA:70,2
DA:71,2
DA:73,3
DA:74,3
DA:75,3
DA:76,3
DA:78,3
DA:79,3
DA:82,3
DA:83,3
DA:84,3
DA:85,3
DA:86,3
DA:88,3
DA:89,2
DA:90,2
DA:92,1
DA:93,1
DA:95,1
DA:96,1
DA:97,1
DA:98,1
DA:100,1
DA:101,3
DA:104,7
DA:105,7
DA:106,0
DA:107,0
DA:109,7
DA:110,7
DA:113,2
DA:114,2
DA:115,0
DA:116,0
DA:118,2
DA:120,2
DA:121,2
DA:122,2
DA:124,2
DA:125,2
DA:127,2
DA:128,2
DA:129,2
DA:130,2
DA:131,1
DA:133,1
DA:139,2
DA:140,2
DA:144,1
DA:145,1
DA:146,1
DA:169,6
DA:170,6
DA:171,6
DA:174,1
DA:175,1
DA:176,1
DA:179,1
DA:180,1
DA:181,1
DA:184,1
DA:185,1
DA:186,1
DA:193,1
DA:194,1
DA:195,1
DA:196,1
DA:197,1
DA:200,1
DA:201,1
DA:202,1
DA:203,1
DA:205,1
DA:206,1
DA:207,1
DA:208,1
DA:209,1
DA:212,1
DA:213,1
DA:214,1
DA:217,1
DA:218,1
DA:221,1
DA:222,1
DA:223,1
DA:226,1
DA:227,1
DA:230,1
DA:231,1
DA:232,1
DA:235,1
DA:236,1
DA:239,1
DA:240,1
DA:241,1
DA:244,1
DA:246,1
DA:247,1
DA:248,1
DA:249,1
DA:252,1
DA:253,1
DA:256,1
DA:259,1
DA:262,1
DA:263,1
DA:264,1
DA:267,1
DA:268,1
DA:269,1
DA:272,1
DA:273,1
DA:276,1
DA:279,1
DA:282,1
DA:283,1
DA:284,1
DA:285,1
DA:287,1
DA:290,1
DA:291,1
DA:292,1
DA:295,1
DA:298,1
DA:301,1
DA:302,1
DA:303,1
DA:304,1
DA:306,1
DA:309,1
DA:310,1
DA:313,1
DA:314,1
DA:316,1
DA:318,1
DA:319,1
DA:320,1
DA:321,1
DA:323,0
DA:325,1
DA:328,1
DA:329,1
DA:330,1
DA:332,1
DA:333,1
DA:336,1
DA:339,1
DA:342,1
DA:343,1
DA:344,1
DA:345,1
DA:348,1
DA:350,1
DA:352,1
DA:355,1
DA:356,1
DA:357,1
DA:358,1
DA:361,1
DA:362,1
DA:363,1
DA:364,1
DA:365,1
DA:368,1
DA:370,1
DA:373,1
DA:374,1
DA:375,1
DA:378,1
DA:379,1
DA:382,1
DA:383,1
DA:384,1
DA:387,1
DA:388,1
DA:389,1
DA:390,1
DA:391,1
DA:392,1
DA:393,1
DA:394,1
DA:396,1
DA:397,1
DA:398,1
DA:399,1
DA:402,1
DA:403,1
DA:404,1
DA:405,1
DA:406,1
DA:407,1
DA:409,1
DA:411,1
DA:412,1
DA:413,1
DA:414,1
DA:415,1
DA:416,1
DA:418,1
DA:419,1
BRF:0
BRH:0
LF:254
LH:231
end_of_record
SF:/home/nathan/Projects/smith/shared/smith-metrics/src/slo.rs
FN:1236,_RNCNCNvNtNtCs6Icymx2u3fr_13smith_metrics3slo5testss_42test_slo_monitor_start_monitoring_workflow00B9_
FN:539,_RNCNvNtNtCs6Icymx2u3fr_13smith_metrics3slo5tests33create_test_slo_metrics_with_data0B7_
FN:582,_RNCNvNtNtCs6Icymx2u3fr_13smith_metrics3slo5testss_25test_slo_metrics_creation0B7_
FN:682,_RNCNvNtNtCs6Icymx2u3fr_13smith_metrics3slo5testss_34test_slo_metrics_multiple_requests0B7_
FN:787,_RNCNvNtNtCs6Icymx2u3fr_13smith_metrics3slo5testss_34test_slo_monitor_complete_workflow0B7_
FN:1144,_RNCNvNtNtCs6Icymx2u3fr_13smith_metrics3slo5testss_37test_slo_violation_detection_workflow0B7_
FN:913,_RNCNvNtNtCs6Icymx2u3fr_13smith_metrics3slo5testss_39test_slo_metrics_different_capabilities0B7_
FN:1034,_RNCNvNtNtCs6Icymx2u3fr_13smith_metrics3slo5testss_42test_slo_compliance_calculation_edge_cases0B7_
FN:1226,_RNCNvNtNtCs6Icymx2u3fr_13smith_metrics3slo5testss_42test_slo_monitor_start_monitoring_workflow0B7_
FN:988,_RNCNvNtNtCs6Icymx2u3fr_13smith_metrics3slo5testss_48test_slo_metrics_update_compliance_full_workflow0B7_
FN:445,_RNvMs0_NtCs6Icymx2u3fr_13smith_metrics3sloNtB5_10SloMonitor16check_violations
FN:430,_RNvMs0_NtCs6Icymx2u3fr_13smith_metrics3sloNtB5_10SloMonitor16start_monitoring
FN:516,_RNvMs0_NtCs6Icymx2u3fr_13smith_metrics3sloNtB5_10SloMonitor20emit_violation_alert
FN:452,_RNvMs0_NtCs6Icymx2u3fr_13smith_metrics3sloNtB5_10SloMonitor24check_latency_violations
FN:494,_RNvMs0_NtCs6Icymx2u3fr_13smith_metrics3sloNtB5_10SloMonitor27check_error_rate_violations
FN:417,_RNvMs0_NtCs6Icymx2u3fr_13smith_metrics3sloNtB5_10SloMonitor3new
FN:241,_RNvMs_NtCs6Icymx2u3fr_13smith_metrics3sloNtB4_10SloMetrics12record_error
FN:212,_RNvMs_NtCs6Icymx2u3fr_13smith_metrics3sloNtB4_10SloMetrics14record_request
FN:352,_RNvMs_NtCs6Icymx2u3fr_13smith_metrics3sloNtB4_10SloMetrics16get_total_errors
FN:335,_RNvMs_NtCs6Icymx2u3fr_13smith_metrics3sloNtB4_10SloMetrics18get_total_requests
FN:249,_RNvMs_NtCs6Icymx2u3fr_13smith_metrics3sloNtB4_10SloMetrics21update_slo_compliance
FN:117,_RNvMs_NtCs6Icymx2u3fr_13smith_metrics3sloNtB4_10SloMetrics3new
FN:362,_RNvNtCs6Icymx2u3fr_13smith_metrics3slo21calculate_percentiles
FN:40,_RNvNtCs6Icymx2u3fr_13smith_metrics3slo22get_phase2_slo_targets
FN:28,_RNvXNtCs6Icymx2u3fr_13smith_metrics3sloNtB2_10SloTargetsNtNtCs66KPHxksi63_4core7default7Default7default
FN:445,_RNCNvMs0_NtCs6Icymx2u3fr_13smith_metrics3sloNtB7_10SloMonitor16check_violations0B9_
FN:430,_RNCNvMs0_NtCs6Icymx2u3fr_13smith_metrics3sloNtB7_10SloMonitor16start_monitoring0B9_
FN:516,_RNCNvMs0_NtCs6Icymx2u3fr_13smith_metrics3sloNtB7_10SloMonitor20emit_violation_alert0B9_
FN:452,_RNCNvMs0_NtCs6Icymx2u3fr_13smith_metrics3sloNtB7_10SloMonitor24check_latency_violations0B9_
FN:494,_RNCNvMs0_NtCs6Icymx2u3fr_13smith_metrics3sloNtB7_10SloMonitor27check_error_rate_violations0B9_
FN:355,_RNCNvMs_NtCs6Icymx2u3fr_13smith_metrics3sloNtB6_10SloMetrics16get_total_errors0B8_
FN:339,_RNCNvMs_NtCs6Icymx2u3fr_13smith_metrics3sloNtB6_10SloMetrics18get_total_requests0B8_
FN:345,_RNCNvMs_NtCs6Icymx2u3fr_13smith_metrics3sloNtB6_10SloMetrics18get_total_requestss_0B8_
FN:254,_RNCNvMs_NtCs6Icymx2u3fr_13smith_metrics3sloNtB6_10SloMetrics21update_slo_compliance0B8_
FN:539,_RNvNtNtCs6Icymx2u3fr_13smith_metrics3slo5tests33create_test_slo_metrics_with_data
FN:871,_RNvNtNtCs6Icymx2u3fr_13smith_metrics3slo5testss_20test_slo_error_types
FN:1096,_RNvNtNtCs6Icymx2u3fr_13smith_metrics3slo5testss_23test_slo_error_handling
FN:642,_RNvNtNtCs6Icymx2u3fr_13smith_metrics3slo5testss_24test_slo_targets_default
FN:582,_RNvNtNtCs6Icymx2u3fr_13smith_metrics3slo5testss_25test_slo_metrics_creation
FN:562,_RNvNtNtCs6Icymx2u3fr_13smith_metrics3slo5testss_25test_slo_targets_creation
FN:599,_RNvNtNtCs6Icymx2u3fr_13smith_metrics3slo5testss_27test_percentile_calculation
FN:626,_RNvNtNtCs6Icymx2u3fr_13smith_metrics3slo5testss_27test_slo_violation_creation
FN:811,_RNvNtNtCs6Icymx2u3fr_13smith_metrics3slo5testss_30test_slo_metrics_gauge_updates
FN:967,_RNvNtNtCs6Icymx2u3fr_13smith_metrics3slo5testss_30test_slo_monitor_configuration
FN:1180,_RNvNtNtCs6Icymx2u3fr_13smith_metrics3slo5testss_30test_slo_targets_serialization
FN:1200,_RNvNtNtCs6Icymx2u3fr_13smith_metrics3slo5testss_32test_slo_violation_serialization
FN:884,_RNvNtNtCs6Icymx2u3fr_13smith_metrics3slo5testss_33test_phase2_slo_target_strictness
FN:1117,_RNvNtNtCs6Icymx2u3fr_13smith_metrics3slo5testss_34test_slo_metrics_histogram_buckets
FN:682,_RNvNtNtCs6Icymx2u3fr_13smith_metrics3slo5testss_34test_slo_metrics_multiple_requests
FN:787,_RNvNtNtCs6Icymx2u3fr_13smith_metrics3slo5testss_34test_slo_monitor_complete_workflow
FN:760,_RNvNtNtCs6Icymx2u3fr_13smith_metrics3slo5testss_34test_slo_violation_severity_levels
FN:1258,_RNvNtNtCs6Icymx2u3fr_13smith_metrics3slo5testss_34test_violation_severity_comparison
FN:652,_RNvNtNtCs6Icymx2u3fr_13smith_metrics3slo5testss_37test_slo_targets_comprehensive_config
FN:1144,_RNvNtNtCs6Icymx2u3fr_13smith_metrics3slo5testss_37test_slo_violation_detection_workflow
FN:731,_RNvNtNtCs6Icymx2u3fr_13smith_metrics3slo5testss_38test_percentile_calculation_edge_cases
FN:913,_RNvNtNtCs6Icymx2u3fr_13smith_metrics3slo5testss_39test_slo_metrics_different_capabilities
FN:1034,_RNvNtNtCs6Icymx2u3fr_13smith_metrics3slo5testss_42test_slo_compliance_calculation_edge_cases
FN:1226,_RNvNtNtCs6Icymx2u3fr_13smith_metrics3slo5testss_42test_slo_monitor_start_monitoring_workflow
FN:1069,_RNvNtNtCs6Icymx2u3fr_13smith_metrics3slo5testss_43test_slo_metrics_total_requests_calculation
FN:988,_RNvNtNtCs6Icymx2u3fr_13smith_metrics3slo5testss_48test_slo_metrics_update_compliance_full_workflow
FNDA:1,_RNCNCNvNtNtCs6Icymx2u3fr_13smith_metrics3slo5testss_42test_slo_monitor_start_monitoring_workflow00B9_
FNDA:2,_RNCNvNtNtCs6Icymx2u3fr_13smith_metrics3slo5tests33create_test_slo_metrics_with_data0B7_
FNDA:1,_RNCNvNtNtCs6Icymx2u3fr_13smith_metrics3slo5testss_25test_slo_metrics_creation0B7_
FNDA:1,_RNCNvNtNtCs6Icymx2u3fr_13smith_metrics3slo5testss_34test_slo_metrics_multiple_requests0B7_
FNDA:1,_RNCNvNtNtCs6Icymx2u3fr_13smith_metrics3slo5testss_34test_slo_monitor_complete_workflow0B7_
FNDA:1,_RNCNvNtNtCs6Icymx2u3fr_13smith_metrics3slo5testss_37test_slo_violation_detection_workflow0B7_
FNDA:1,_RNCNvNtNtCs6Icymx2u3fr_13smith_metrics3slo5testss_39test_slo_metrics_different_capabilities0B7_
FNDA:1,_RNCNvNtNtCs6Icymx2u3fr_13smith_metrics3slo5testss_42test_slo_compliance_calculation_edge_cases0B7_
FNDA:1,_RNCNvNtNtCs6Icymx2u3fr_13smith_metrics3slo5testss_42test_slo_monitor_start_monitoring_workflow0B7_
FNDA:1,_RNCNvNtNtCs6Icymx2u3fr_13smith_metrics3slo5testss_48test_slo_metrics_update_compliance_full_workflow0B7_
FNDA:7,_RNvMs0_NtCs6Icymx2u3fr_13smith_metrics3sloNtB5_10SloMonitor16check_violations
FNDA:1,_RNvMs0_NtCs6Icymx2u3fr_13smith_metrics3sloNtB5_10SloMonitor16start_monitoring
FNDA:6,_RNvMs0_NtCs6Icymx2u3fr_13smith_metrics3sloNtB5_10SloMonitor20emit_violation_alert
FNDA:21,_RNvMs0_NtCs6Icymx2u3fr_13smith_metrics3sloNtB5_10SloMonitor24check_latency_violations
FNDA:21,_RNvMs0_NtCs6Icymx2u3fr_13smith_metrics3sloNtB5_10SloMonitor27check_error_rate_violations
FNDA:4,_RNvMs0_NtCs6Icymx2u3fr_13smith_metrics3sloNtB5_10SloMonitor3new
FNDA:8,_RNvMs_NtCs6Icymx2u3fr_13smith_metrics3sloNtB4_10SloMetrics12record_error
FNDA:39,_RNvMs_NtCs6Icymx2u3fr_13smith_metrics3sloNtB4_10SloMetrics14record_request
FNDA:5,_RNvMs_NtCs6Icymx2u3fr_13smith_metrics3sloNtB4_10SloMetrics16get_total_errors
FNDA:5,_RNvMs_NtCs6Icymx2u3fr_13smith_metrics3sloNtB4_10SloMetrics18get_total_requests
FNDA:9,_RNvMs_NtCs6Icymx2u3fr_13smith_metrics3sloNtB4_10SloMetrics21update_slo_compliance
FNDA:13,_RNvMs_NtCs6Icymx2u3fr_13smith_metrics3sloNtB4_10SloMetrics3new
FNDA:4,_RNvNtCs6Icymx2u3fr_13smith_metrics3slo21calculate_percentiles
FNDA:10,_RNvNtCs6Icymx2u3fr_13smith_metrics3slo22get_phase2_slo_targets
FNDA:1,_RNvXNtCs6Icymx2u3fr_13smith_metrics3sloNtB2_10SloTargetsNtNtCs66KPHxksi63_4core7default7Default7default
FNDA:7,_RNCNvMs0_NtCs6Icymx2u3fr_13smith_metrics3sloNtB7_10SloMonitor16check_violations0B9_
FNDA:1,_RNCNvMs0_NtCs6Icymx2u3fr_13smith_metrics3sloNtB7_10SloMonitor16start_monitoring0B9_
FNDA:6,_RNCNvMs0_NtCs6Icymx2u3fr_13smith_metrics3sloNtB7_10SloMonitor20emit_violation_alert0B9_
FNDA:21,_RNCNvMs0_NtCs6Icymx2u3fr_13smith_metrics3sloNtB7_10SloMonitor24check_latency_violations0B9_
FNDA:21,_RNCNvMs0_NtCs6Icymx2u3fr_13smith_metrics3sloNtB7_10SloMonitor27check_error_rate_violations0B9_
FNDA:5,_RNCNvMs_NtCs6Icymx2u3fr_13smith_metrics3sloNtB6_10SloMetrics16get_total_errors0B8_
FNDA:5,_RNCNvMs_NtCs6Icymx2u3fr_13smith_metrics3sloNtB6_10SloMetrics18get_total_requests0B8_
FNDA:5,_RNCNvMs_NtCs6Icymx2u3fr_13smith_metrics3sloNtB6_10SloMetrics18get_total_requestss_0B8_
FNDA:0,_RNCNvMs_NtCs6Icymx2u3fr_13smith_metrics3sloNtB6_10SloMetrics21update_slo_compliance0B8_
FNDA:2,_RNvNtNtCs6Icymx2u3fr_13smith_metrics3slo5tests33create_test_slo_metrics_with_data
FNDA:1,_RNvNtNtCs6Icymx2u3fr_13smith_metrics3slo5testss_20test_slo_error_types
FNDA:1,_RNvNtNtCs6Icymx2u3fr_13smith_metrics3slo5testss_23test_slo_error_handling
FNDA:1,_RNvNtNtCs6Icymx2u3fr_13smith_metrics3slo5testss_24test_slo_targets_default
FNDA:1,_RNvNtNtCs6Icymx2u3fr_13smith_metrics3slo5testss_25test_slo_metrics_creation
FNDA:1,_RNvNtNtCs6Icymx2u3fr_13smith_metrics3slo5testss_25test_slo_targets_creation
FNDA:1,_RNvNtNtCs6Icymx2u3fr_13smith_metrics3slo5testss_27test_percentile_calculation
FNDA:1,_RNvNtNtCs6Icymx2u3fr_13smith_metrics3slo5testss_27test_slo_violation_creation
FNDA:1,_RNvNtNtCs6Icymx2u3fr_13smith_metrics3slo5testss_30test_slo_metrics_gauge_updates
FNDA:1,_RNvNtNtCs6Icymx2u3fr_13smith_metrics3slo5testss_30test_slo_monitor_configuration
FNDA:1,_RNvNtNtCs6Icymx2u3fr_13smith_metrics3slo5testss_30test_slo_targets_serialization
FNDA:1,_RNvNtNtCs6Icymx2u3fr_13smith_metrics3slo5testss_32test_slo_violation_serialization
FNDA:1,_RNvNtNtCs6Icymx2u3fr_13smith_metrics3slo5testss_33test_phase2_slo_target_strictness
FNDA:1,_RNvNtNtCs6Icymx2u3fr_13smith_metrics3slo5testss_34test_slo_metrics_histogram_buckets
FNDA:1,_RNvNtNtCs6Icymx2u3fr_13smith_metrics3slo5testss_34test_slo_metrics_multiple_requests
FNDA:1,_RNvNtNtCs6Icymx2u3fr_13smith_metrics3slo5testss_34test_slo_monitor_complete_workflow
FNDA:1,_RNvNtNtCs6Icymx2u3fr_13smith_metrics3slo5testss_34test_slo_violation_severity_levels
FNDA:1,_RNvNtNtCs6Icymx2u3fr_13smith_metrics3slo5testss_34test_violation_severity_comparison
FNDA:1,_RNvNtNtCs6Icymx2u3fr_13smith_metrics3slo5testss_37test_slo_targets_comprehensive_config
FNDA:1,_RNvNtNtCs6Icymx2u3fr_13smith_metrics3slo5testss_37test_slo_violation_detection_workflow
FNDA:1,_RNvNtNtCs6Icymx2u3fr_13smith_metrics3slo5testss_38test_percentile_calculation_edge_cases
FNDA:1,_RNvNtNtCs6Icymx2u3fr_13smith_metrics3slo5testss_39test_slo_metrics_different_capabilities
FNDA:1,_RNvNtNtCs6Icymx2u3fr_13smith_metrics3slo5testss_42test_slo_compliance_calculation_edge_cases
FNDA:1,_RNvNtNtCs6Icymx2u3fr_13smith_metrics3slo5testss_42test_slo_monitor_start_monitoring_workflow
FNDA:1,_RNvNtNtCs6Icymx2u3fr_13smith_metrics3slo5testss_43test_slo_metrics_total_requests_calculation
FNDA:1,_RNvNtNtCs6Icymx2u3fr_13smith_metrics3slo5testss_48test_slo_metrics_update_compliance_full_workflow
FNF:60
FNH:59
DA:28,1
DA:29,1
DA:30,1
DA:31,1
DA:32,1
DA:33,1
DA:34,1
DA:35,1
DA:36,1
DA:40,10
DA:41,10
DA:43,10
DA:44,10
DA:45,10
DA:46,10
DA:47,10
DA:48,10
DA:49,10
DA:50,10
DA:51,10
DA:54,10
DA:55,10
DA:56,10
DA:57,10
DA:58,10
DA:59,10
DA:60,10
DA:61,10
DA:62,10
DA:65,10
DA:66,10
DA:67,10
DA:68,10
DA:69,10
DA:70,10
DA:71,10
DA:72,10
DA:73,10
DA:76,10
DA:77,10
DA:117,13
DA:119,13
DA:124,13
DA:125,13
DA:129,13
DA:130,13
DA:131,0
DA:133,13
DA:134,13
DA:138,13
DA:139,0
DA:141,13
DA:142,13
DA:146,13
DA:147,0
DA:149,13
DA:150,13
DA:154,13
DA:155,0
DA:157,13
DA:158,13
DA:162,13
DA:163,0
DA:165,13
DA:166,13
DA:170,13
DA:171,0
DA:173,13
DA:174,13
DA:178,13
DA:179,0
DA:181,13
DA:182,13
DA:186,13
DA:187,0
DA:190,13
DA:191,13
DA:192,13
DA:193,13
DA:194,13
DA:195,13
DA:196,13
DA:197,13
DA:199,13
DA:200,13
DA:201,13
DA:202,13
DA:203,13
DA:204,13
DA:205,13
DA:206,13
DA:207,13
DA:208,13
DA:209,13
DA:212,39
DA:213,39
DA:214,39
DA:215,39
DA:216,39
DA:217,39
DA:218,39
DA:219,39
DA:220,39
DA:223,39
DA:224,39
DA:225,39
DA:228,39
DA:229,39
DA:230,39
DA:233,39
DA:234,7
DA:235,7
DA:236,7
DA:237,32
DA:238,39
DA:241,8
DA:242,8
DA:243,8
DA:244,8
DA:245,8
DA:249,9
DA:250,33
DA:251,24
DA:252,24
DA:253,24
DA:254,24
DA:255,0
DA:256,0
DA:257,0
DA:258,0
DA:259,0
DA:262,24
DA:263,24
DA:264,21
DA:265,3
DA:268,3
DA:269,3
DA:271,3
DA:272,3
DA:274,0
DA:276,3
DA:277,3
DA:280,3
DA:281,3
DA:282,3
DA:284,3
DA:285,3
DA:286,3
DA:289,3
DA:290,1
DA:292,2
DA:294,3
DA:295,3
DA:297,0
DA:300,3
DA:301,3
DA:302,3
DA:304,3
DA:305,3
DA:306,3
DA:309,3
DA:310,3
DA:311,3
DA:312,3
DA:314,0
DA:317,3
DA:318,3
DA:319,3
DA:321,3
DA:322,1
DA:324,2
DA:326,3
DA:327,3
DA:328,3
DA:331,9
DA:332,9
DA:335,5
DA:336,5
DA:337,5
DA:338,5
DA:339,5
DA:340,5
DA:342,5
DA:343,5
DA:344,5
DA:345,5
DA:346,5
DA:348,5
DA:349,5
DA:352,5
DA:353,5
DA:354,5
DA:355,5
DA:356,5
DA:357,5
DA:362,4
DA:363,4
DA:364,1
DA:365,3
DA:367,3
DA:368,3
DA:370,3
DA:371,3
DA:373,8
DA:374,8
DA:376,8
DA:377,3
DA:378,5
DA:380,8
DA:381,3
DA:382,5
DA:384,8
DA:385,3
DA:386,5
DA:389,3
DA:390,4
DA:417,4
DA:418,4
DA:419,4
DA:420,4
DA:421,4
DA:422,4
DA:423,4
DA:424,4
DA:425,4
DA:426,4
DA:427,4
DA:430,1
DA:431,1
DA:434,6
DA:436,5
DA:437,0
DA:438,5
DA:440,5
DA:445,7
DA:446,28
DA:447,21
DA:448,21
DA:450,7
DA:452,21
DA:453,21
DA:454,21
DA:455,21
DA:456,21
DA:458,21
DA:459,21
DA:460,2
DA:461,2
DA:462,2
DA:463,2
DA:464,2
DA:465,2
DA:466,2
DA:467,2
DA:469,2
DA:470,19
DA:471,0
DA:473,21
DA:474,21
DA:475,21
DA:476,21
DA:478,21
DA:479,21
DA:480,2
DA:481,2
DA:482,2
DA:483,2
DA:484,2
DA:485,2
DA:486,2
DA:487,2
DA:489,2
DA:490,19
DA:491,0
DA:492,21
DA:494,21
DA:495,21
DA:496,21
DA:497,21
DA:498,21
DA:500,21
DA:501,21
DA:502,2
DA:503,2
DA:504,2
DA:505,2
DA:506,2
DA:507,2
DA:508,2
DA:509,2
DA:511,2
DA:512,19
DA:513,0
DA:514,21
DA:516,6
DA:517,6
DA:523,0
DA:528,6
DA:539,2
DA:540,2
DA:541,2
DA:544,2
DA:545,2
DA:546,2
DA:547,2
DA:550,2
DA:551,2
DA:552,2
DA:555,2
DA:556,2
DA:558,2
DA:559,2
DA:562,1
DA:563,1
DA:566,1
DA:567,1
DA:568,1
DA:571,1
DA:572,1
DA:573,1
DA:576,1
DA:577,1
DA:578,1
DA:579,1
DA:582,1
DA:583,1
DA:584,1
DA:587,1
DA:590,1
DA:591,1
DA:592,1
DA:593,1
DA:595,1
DA:596,1
DA:599,1
DA:603,1
DA:606,1
DA:607,1
DA:609,6
DA:610,6
DA:611,6
DA:612,6
DA:613,6
DA:614,6
DA:616,1
DA:621,1
DA:622,1
DA:623,1
DA:626,1
DA:627,1
DA:628,1
DA:629,1
DA:630,1
DA:631,1
DA:632,1
DA:633,1
DA:634,1
DA:636,1
DA:637,1
DA:638,1
DA:639,1
DA:642,1
DA:643,1
DA:644,1
DA:645,1
DA:646,1
DA:647,1
DA:648,1
DA:649,1
DA:652,1
DA:653,1
DA:654,1
DA:657,1
DA:658,1
DA:659,1
DA:660,1
DA:661,1
DA:662,1
DA:665,1
DA:666,1
DA:667,1
DA:668,1
DA:669,1
DA:670,1
DA:673,1
DA:674,1
DA:675,1
DA:676,1
DA:677,1
DA:678,1
DA:679,1
DA:682,1
DA:683,1
DA:684,1
DA:687,1
DA:688,1
DA:689,1
DA:690,1
DA:693,1
DA:694,1
DA:697,1
DA:698,1
DA:699,1
DA:700,1
DA:701,1
DA:703,1
DA:704,1
DA:705,1
DA:706,1
DA:707,1
DA:710,1
DA:711,1
DA:712,1
DA:713,1
DA:714,1
DA:716,1
DA:717,1
DA:718,1
DA:719,1
DA:720,1
DA:723,1
DA:724,1
DA:725,1
DA:726,1
DA:727,1
DA:728,1
DA:731,1
DA:735,1
DA:736,1
DA:737,1
DA:738,1
DA:741,1
DA:742,1
DA:743,1
DA:744,1
DA:745,1
DA:746,1
DA:747,1
DA:750,1
DA:751,1
DA:752,1
DA:753,1
DA:754,1
DA:755,1
DA:756,1
DA:757,1
DA:760,1
DA:761,1
DA:762,1
DA:763,1
DA:764,1
DA:765,1
DA:766,1
DA:767,1
DA:768,1
DA:770,1
DA:771,1
DA:772,1
DA:773,1
DA:774,1
DA:775,1
DA:776,1
DA:777,1
DA:779,1
DA:780,1
DA:783,1
DA:784,1
DA:787,1
DA:788,1
DA:789,1
DA:790,1
DA:793,1
DA:794,1
DA:795,1
DA:798,1
DA:799,1
DA:801,1
DA:805,1
DA:806,1
DA:807,1
DA:808,1
DA:811,1
DA:812,1
DA:813,1
DA:816,1
DA:817,1
DA:818,1
DA:820,1
DA:821,1
DA:822,1
DA:823,1
DA:824,1
DA:827,1
DA:828,1
DA:829,1
DA:831,1
DA:832,1
DA:833,1
DA:834,1
DA:835,1
DA:838,1
DA:839,1
DA:840,1
DA:842,1
DA:843,1
DA:844,1
DA:845,1
DA:846,1
DA:849,1
DA:850,1
DA:851,1
DA:853,1
DA:854,1
DA:855,1
DA:857,1
DA:858,1
DA:859,1
DA:860,1
DA:861,1
DA:863,1
DA:864,1
DA:865,1
DA:866,1
DA:867,1
DA:868,1
DA:871,1
DA:873,1
DA:874,1
DA:876,1
DA:877,1
DA:881,1
DA:884,1
DA:885,1
DA:888,1
DA:889,1
DA:890,1
DA:893,1
DA:894,1
DA:895,1
DA:896,1
DA:899,1
DA:900,1
DA:903,1
DA:904,1
DA:907,1
DA:908,1
DA:909,1
DA:910,1
DA:913,1
DA:914,1
DA:915,1
DA:918,1
DA:919,1
DA:920,1
DA:923,1
DA:924,1
DA:925,1
DA:928,1
DA:929,1
DA:930,1
DA:931,1
DA:932,1
DA:934,1
DA:935,1
DA:936,1
DA:937,1
DA:938,1
DA:940,1
DA:941,1
DA:942,1
DA:943,1
DA:944,1
DA:947,1
DA:948,1
DA:949,1
DA:950,1
DA:951,1
DA:953,1
DA:954,1
DA:955,1
DA:956,1
DA:957,1
DA:959,1
DA:960,1
DA:961,1
DA:962,1
DA:963,1
DA:964,1
DA:967,1
DA:968,1
DA:969,1
DA:970,1
DA:972,1
DA:974,1
DA:975,1
DA:976,1
DA:977,1
DA:978,1
DA:981,1
DA:982,1
DA:983,1
DA:985,1
DA:988,1
DA:989,1
DA:990,1
DA:993,1
DA:994,1
DA:997,1
DA:998,1
DA:999,1
DA:1000,1
DA:1002,1
DA:1003,1
DA:1006,1
DA:1007,1
DA:1008,1
DA:1009,1
DA:1011,1
DA:1012,1
DA:1015,1
DA:1016,1
DA:1017,1
DA:1018,1
DA:1020,1
DA:1021,1
DA:1024,1
DA:1025,1
DA:1026,1
DA:1027,1
DA:1029,1
DA:1030,1
DA:1031,1
DA:1034,1
DA:1035,1
DA:1036,1
DA:1037,1
DA:1040,1
DA:1041,1
DA:1044,1
DA:1047,1
DA:1048,1
DA:1051,1
DA:1052,1
DA:1054,1
DA:1055,1
DA:1058,1
DA:1059,1
DA:1060,1
DA:1061,1
DA:1063,1
DA:1065,1
DA:1066,1
DA:1069,1
DA:1070,1
DA:1071,1
DA:1074,1
DA:1075,1
DA:1076,1
DA:1077,1
DA:1080,1
DA:1081,1
DA:1084,1
DA:1085,1
DA:1088,1
DA:1089,1
DA:1091,1
DA:1092,1
DA:1093,1
DA:1096,1
DA:1097,1
DA:1098,1
DA:1101,1
DA:1102,1
DA:1103,1
DA:1106,1
DA:1107,1
DA:1108,1
DA:1111,1
DA:1112,1
DA:1113,1
DA:1114,1
DA:1117,1
DA:1118,1
DA:1119,1
DA:1123,1
DA:1124,1
DA:1125,1
DA:1126,1
DA:1127,1
DA:1128,1
DA:1130,1
DA:1131,1
DA:1132,1
DA:1133,1
DA:1135,1
DA:1138,1
DA:1139,1
DA:1140,1
DA:1141,1
DA:1144,1
DA:1145,1
DA:1146,1
DA:1148,1
DA:1152,1
DA:1153,1
DA:1154,1
DA:1156,1
DA:1157,1
DA:1158,1
DA:1160,1
DA:1161,1
DA:1162,1
DA:1165,1
DA:1171,1
DA:1172,1
DA:1173,1
DA:1176,1
DA:1177,1
DA:1180,1
DA:1181,1
DA:1182,1
DA:1185,1
DA:1186,1
DA:1187,1
DA:1190,1
DA:1191,1
DA:1192,1
DA:1193,1
DA:1194,1
DA:1195,1
DA:1196,1
DA:1197,1
DA:1200,1
DA:1201,1
DA:1202,1
DA:1203,1
DA:1204,1
DA:1205,1
DA:1206,1
DA:1207,1
DA:1208,1
DA:1211,1
DA:1212,1
DA:1213,1
DA:1214,1
DA:1215,1
DA:1218,1
DA:1219,1
DA:1220,1
DA:1221,1
DA:1222,1
DA:1223,1
DA:1226,1
DA:1227,1
DA:1228,1
DA:1229,1
DA:1232,1
DA:1236,1
DA:1238,1
DA:1239,1
DA:1241,1
DA:1242,1
DA:1244,1
DA:1246,1
DA:1248,0
DA:1251,1
DA:1253,1
DA:1254,1
DA:1255,1
DA:1258,1
DA:1259,1
DA:1260,1
DA:1261,1
DA:1264,1
DA:1265,1
DA:1266,1
DA:1267,1
DA:1268,1
DA:1269,1
DA:1270,1
DA:1271,1
DA:1273,1
DA:1274,1
DA:1275,1
DA:1276,1
DA:1277,1
DA:1278,1
DA:1279,1
DA:1280,1
DA:1282,1
DA:1283,1
DA:1284,1
BRF:0
BRH:0
LF:820
LH:796
end_of_record
SF:/home/nathan/Projects/smith/shared/smith-metrics/src/standardized.rs
FN:746,_RNvNtNtCs6Icymx2u3fr_13smith_metrics12standardized5testss_23test_use_metrics_record
FN:689,_RNvNtNtCs6Icymx2u3fr_13smith_metrics12standardized5testss_25test_red_metrics_creation
FN:696,_RNvNtNtCs6Icymx2u3fr_13smith_metrics12standardized5testss_25test_use_metrics_creation
FN:976,_RNvNtNtCs6Icymx2u3fr_13smith_metrics12standardized5testss_26test_create_counter_helper
FN:921,_RNvNtNtCs6Icymx2u3fr_13smith_metrics12standardized5testss_27test_metrics_config_builder
FN:1334,_RNvNtNtCs6Icymx2u3fr_13smith_metrics12standardized5testss_27test_red_metrics_edge_cases
FN:1362,_RNvNtNtCs6Icymx2u3fr_13smith_metrics12standardized5testss_27test_use_metrics_edge_cases
FN:957,_RNvNtNtCs6Icymx2u3fr_13smith_metrics12standardized5testss_28test_create_gauge_vec_helper
FN:726,_RNvNtNtCs6Icymx2u3fr_13smith_metrics12standardized5testss_29test_red_metrics_record_error
FN:1224,_RNvNtNtCs6Icymx2u3fr_13smith_metrics12standardized5testss_29test_standard_label_constants
FN:938,_RNvNtNtCs6Icymx2u3fr_13smith_metrics12standardized5testss_30test_create_counter_vec_helper
FN:703,_RNvNtNtCs6Icymx2u3fr_13smith_metrics12standardized5testss_30test_executor_metrics_creation
FN:1019,_RNvNtNtCs6Icymx2u3fr_13smith_metrics12standardized5testss_30test_use_metrics_comprehensive
FN:1294,_RNvNtNtCs6Icymx2u3fr_13smith_metrics12standardized5testss_31test_gauge_creation_error_paths
FN:1239,_RNvNtNtCs6Icymx2u3fr_13smith_metrics12standardized5testss_31test_metrics_registry_isolation
FN:710,_RNvNtNtCs6Icymx2u3fr_13smith_metrics12standardized5testss_31test_red_metrics_record_success
FN:1268,_RNvNtNtCs6Icymx2u3fr_13smith_metrics12standardized5testss_32test_metric_creation_error_paths
FN:990,_RNvNtNtCs6Icymx2u3fr_13smith_metrics12standardized5testss_32test_red_metrics_multiple_labels
FN:1730,_RNvNtNtCs6Icymx2u3fr_13smith_metrics12standardized5testss_33test_all_standard_constants_usage
FN:1523,_RNvNtNtCs6Icymx2u3fr_13smith_metrics12standardized5testss_33test_metrics_config_comprehensive
FN:1685,_RNvNtNtCs6Icymx2u3fr_13smith_metrics12standardized5testss_34test_concurrent_metrics_operations
FN:768,_RNvNtNtCs6Icymx2u3fr_13smith_metrics12standardized5testss_34test_nats_adapter_metrics_creation
FN:1186,_RNvNtNtCs6Icymx2u3fr_13smith_metrics12standardized5testss_35test_nats_adapter_connection_health
FN:780,_RNvNtNtCs6Icymx2u3fr_13smith_metrics12standardized5testss_38test_http_client_metrics_comprehensive
FN:1120,_RNvNtNtCs6Icymx2u3fr_13smith_metrics12standardized5testss_38test_nats_adapter_metrics_message_flow
FN:1077,_RNvNtNtCs6Icymx2u3fr_13smith_metrics12standardized5testss_39test_executor_metrics_intent_processing
FN:1562,_RNvNtNtCs6Icymx2u3fr_13smith_metrics12standardized5testss_40test_nats_adapter_comprehensive_coverage
FN:1320,_RNvNtNtCs6Icymx2u3fr_13smith_metrics12standardized5testss_40test_simple_counter_creation_error_paths
FN:1753,_RNvNtNtCs6Icymx2u3fr_13smith_metrics12standardized5testss_44test_metric_creation_with_special_characters
FN:1441,_RNvNtNtCs6Icymx2u3fr_13smith_metrics12standardized5testss_59test_executor_metrics_edge_cases_and_comprehensive_coverage
FN:1695,_RNCNCNvNtNtCs6Icymx2u3fr_13smith_metrics12standardized5testss_34test_concurrent_metrics_operations00B9_
FN:1693,_RNCNvNtNtCs6Icymx2u3fr_13smith_metrics12standardized5testss_34test_concurrent_metrics_operations0B7_
FN:62,_RNCNvMNtCs6Icymx2u3fr_13smith_metrics12standardizedNtB4_13MetricsConfig11with_labels0B6_
FN:67,_RNCNvMNtCs6Icymx2u3fr_13smith_metrics12standardizedNtB4_13MetricsConfig14labels_as_strs0B6_
FN:61,_RNvMNtCs6Icymx2u3fr_13smith_metrics12standardizedNtB2_13MetricsConfig11with_labels
FN:66,_RNvMNtCs6Icymx2u3fr_13smith_metrics12standardizedNtB2_13MetricsConfig14labels_as_strs
FN:53,_RNvMNtCs6Icymx2u3fr_13smith_metrics12standardizedNtB2_13MetricsConfig3new
FN:273,_RNvMs0_NtCs6Icymx2u3fr_13smith_metrics12standardizedNtB5_10UseMetrics12record_error
FN:263,_RNvMs0_NtCs6Icymx2u3fr_13smith_metrics12standardizedNtB5_10UseMetrics14set_saturation
FN:256,_RNvMs0_NtCs6Icymx2u3fr_13smith_metrics12standardizedNtB5_10UseMetrics15set_utilization
FN:199,_RNvMs0_NtCs6Icymx2u3fr_13smith_metrics12standardizedNtB5_10UseMetrics24create_utilization_gauge
FN:241,_RNvMs0_NtCs6Icymx2u3fr_13smith_metrics12standardizedNtB5_10UseMetrics30create_resource_errors_counter
FN:213,_RNvMs0_NtCs6Icymx2u3fr_13smith_metrics12standardizedNtB5_10UseMetrics31create_saturation_current_gauge
FN:227,_RNvMs0_NtCs6Icymx2u3fr_13smith_metrics12standardizedNtB5_10UseMetrics31create_saturation_maximum_gauge
FN:177,_RNvMs0_NtCs6Icymx2u3fr_13smith_metrics12standardizedNtB5_10UseMetrics3new
FN:313,_RNvMs1_NtCs6Icymx2u3fr_13smith_metrics12standardizedNtB5_15ExecutorMetrics18create_red_metrics
FN:329,_RNvMs1_NtCs6Icymx2u3fr_13smith_metrics12standardizedNtB5_15ExecutorMetrics18create_use_metrics
FN:402,_RNvMs1_NtCs6Icymx2u3fr_13smith_metrics12standardizedNtB5_15ExecutorMetrics20record_intent_denied
FN:385,_RNvMs1_NtCs6Icymx2u3fr_13smith_metrics12standardizedNtB5_15ExecutorMetrics22record_intent_admitted
FN:356,_RNvMs1_NtCs6Icymx2u3fr_13smith_metrics12standardizedNtB5_15ExecutorMetrics29create_intents_denied_counter
FN:376,_RNvMs1_NtCs6Icymx2u3fr_13smith_metrics12standardizedNtB5_15ExecutorMetrics29create_replay_attacks_counter
FN:345,_RNvMs1_NtCs6Icymx2u3fr_13smith_metrics12standardizedNtB5_15ExecutorMetrics31create_intents_admitted_counter
FN:367,_RNvMs1_NtCs6Icymx2u3fr_13smith_metrics12standardizedNtB5_15ExecutorMetrics33create_seccomp_violations_counter
FN:294,_RNvMs1_NtCs6Icymx2u3fr_13smith_metrics12standardizedNtB5_15ExecutorMetrics3new
FN:546,_RNvMs2_NtCs6Icymx2u3fr_13smith_metrics12standardizedNtB5_18NatsAdapterMetrics23record_message_received
FN:523,_RNvMs2_NtCs6Icymx2u3fr_13smith_metrics12standardizedNtB5_18NatsAdapterMetrics24record_message_published
FN:425,_RNvMs2_NtCs6Icymx2u3fr_13smith_metrics12standardizedNtB5_18NatsAdapterMetrics3new
FN:654,_RNvMs3_NtCs6Icymx2u3fr_13smith_metrics12standardizedNtB5_17HttpClientMetrics19record_http_request
FN:576,_RNvMs3_NtCs6Icymx2u3fr_13smith_metrics12standardizedNtB5_17HttpClientMetrics3new
FN:155,_RNvMs_NtCs6Icymx2u3fr_13smith_metrics12standardizedNtB4_10RedMetrics12record_error
FN:147,_RNvMs_NtCs6Icymx2u3fr_13smith_metrics12standardizedNtB4_10RedMetrics14record_success
FN:132,_RNvMs_NtCs6Icymx2u3fr_13smith_metrics12standardizedNtB4_10RedMetrics21create_errors_counter
FN:100,_RNvMs_NtCs6Icymx2u3fr_13smith_metrics12standardizedNtB4_10RedMetrics23create_requests_counter
FN:114,_RNvMs_NtCs6Icymx2u3fr_13smith_metrics12standardizedNtB4_10RedMetrics25create_duration_histogram
FN:80,_RNvMs_NtCs6Icymx2u3fr_13smith_metrics12standardizedNtB4_10RedMetrics3new
FN:38,_RNvNtCs6Icymx2u3fr_13smith_metrics12standardized14create_counter
FN:25,_RNvNtCs6Icymx2u3fr_13smith_metrics12standardized16create_gauge_vec
FN:12,_RNvNtCs6Icymx2u3fr_13smith_metrics12standardized18create_counter_vec
FNDA:1,_RNvNtNtCs6Icymx2u3fr_13smith_metrics12standardized5testss_23test_use_metrics_record
FNDA:1,_RNvNtNtCs6Icymx2u3fr_13smith_metrics12standardized5testss_25test_red_metrics_creation
FNDA:1,_RNvNtNtCs6Icymx2u3fr_13smith_metrics12standardized5testss_25test_use_metrics_creation
FNDA:1,_RNvNtNtCs6Icymx2u3fr_13smith_metrics12standardized5testss_26test_create_counter_helper
FNDA:1,_RNvNtNtCs6Icymx2u3fr_13smith_metrics12standardized5testss_27test_metrics_config_builder
FNDA:1,_RNvNtNtCs6Icymx2u3fr_13smith_metrics12standardized5testss_27test_red_metrics_edge_cases
FNDA:1,_RNvNtNtCs6Icymx2u3fr_13smith_metrics12standardized5testss_27test_use_metrics_edge_cases
FNDA:1,_RNvNtNtCs6Icymx2u3fr_13smith_metrics12standardized5testss_28test_create_gauge_vec_helper
FNDA:1,_RNvNtNtCs6Icymx2u3fr_13smith_metrics12standardized5testss_29test_red_metrics_record_error
FNDA:1,_RNvNtNtCs6Icymx2u3fr_13smith_metrics12standardized5testss_29test_standard_label_constants
FNDA:1,_RNvNtNtCs6Icymx2u3fr_13smith_metrics12standardized5testss_30test_create_counter_vec_helper
FNDA:1,_RNvNtNtCs6Icymx2u3fr_13smith_metrics12standardized5testss_30test_executor_metrics_creation
FNDA:1,_RNvNtNtCs6Icymx2u3fr_13smith_metrics12standardized5testss_30test_use_metrics_comprehensive
FNDA:1,_RNvNtNtCs6Icymx2u3fr_13smith_metrics12standardized5testss_31test_gauge_creation_error_paths
FNDA:1,_RNvNtNtCs6Icymx2u3fr_13smith_metrics12standardized5testss_31test_metrics_registry_isolation
FNDA:1,_RNvNtNtCs6Icymx2u3fr_13smith_metrics12standardized5testss_31test_red_metrics_record_success
FNDA:1,_RNvNtNtCs6Icymx2u3fr_13smith_metrics12standardized5testss_32test_metric_creation_error_paths
FNDA:1,_RNvNtNtCs6Icymx2u3fr_13smith_metrics12standardized5testss_32test_red_metrics_multiple_labels
FNDA:1,_RNvNtNtCs6Icymx2u3fr_13smith_metrics12standardized5testss_33test_all_standard_constants_usage
FNDA:1,_RNvNtNtCs6Icymx2u3fr_13smith_metrics12standardized5testss_33test_metrics_config_comprehensive
FNDA:1,_RNvNtNtCs6Icymx2u3fr_13smith_metrics12standardized5testss_34test_concurrent_metrics_operations
FNDA:1,_RNvNtNtCs6Icymx2u3fr_13smith_metrics12standardized5testss_34test_nats_adapter_metrics_creation
FNDA:1,_RNvNtNtCs6Icymx2u3fr_13smith_metrics12standardized5testss_35test_nats_adapter_connection_health
FNDA:1,_RNvNtNtCs6Icymx2u3fr_13smith_metrics12standardized5testss_38test_http_client_metrics_comprehensive
FNDA:1,_RNvNtNtCs6Icymx2u3fr_13smith_metrics12standardized5testss_38test_nats_adapter_metrics_message_flow
FNDA:1,_RNvNtNtCs6Icymx2u3fr_13smith_metrics12standardized5testss_39test_executor_metrics_intent_processing
FNDA:1,_RNvNtNtCs6Icymx2u3fr_13smith_metrics12standardized5testss_40test_nats_adapter_comprehensive_coverage
FNDA:1,_RNvNtNtCs6Icymx2u3fr_13smith_metrics12standardized5testss_40test_simple_counter_creation_error_paths
FNDA:1,_RNvNtNtCs6Icymx2u3fr_13smith_metrics12standardized5testss_44test_metric_creation_with_special_characters
FNDA:1,_RNvNtNtCs6Icymx2u3fr_13smith_metrics12standardized5testss_59test_executor_metrics_edge_cases_and_comprehensive_coverage
FNDA:10,_RNCNCNvNtNtCs6Icymx2u3fr_13smith_metrics12standardized5testss_34test_concurrent_metrics_operations00B9_
FNDA:10,_RNCNvNtNtCs6Icymx2u3fr_13smith_metrics12standardized5testss_34test_concurrent_metrics_operations0B7_
FNDA:81,_RNCNvMNtCs6Icymx2u3fr_13smith_metrics12standardizedNtB4_13MetricsConfig11with_labels0B6_
FNDA:250,_RNCNvMNtCs6Icymx2u3fr_13smith_metrics12standardizedNtB4_13MetricsConfig14labels_as_strs0B6_
FNDA:54,_RNvMNtCs6Icymx2u3fr_13smith_metrics12standardizedNtB2_13MetricsConfig11with_labels
FNDA:177,_RNvMNtCs6Icymx2u3fr_13smith_metrics12standardizedNtB2_13MetricsConfig14labels_as_strs
FNDA:54,_RNvMNtCs6Icymx2u3fr_13smith_metrics12standardizedNtB2_13MetricsConfig3new
FNDA:7,_RNvMs0_NtCs6Icymx2u3fr_13smith_metrics12standardizedNtB5_10UseMetrics12record_error
FNDA:7,_RNvMs0_NtCs6Icymx2u3fr_13smith_metrics12standardizedNtB5_10UseMetrics14set_saturation
FNDA:9,_RNvMs0_NtCs6Icymx2u3fr_13smith_metrics12standardizedNtB5_10UseMetrics15set_utilization
FNDA:22,_RNvMs0_NtCs6Icymx2u3fr_13smith_metrics12standardizedNtB5_10UseMetrics24create_utilization_gauge
FNDA:22,_RNvMs0_NtCs6Icymx2u3fr_13smith_metrics12standardizedNtB5_10UseMetrics30create_resource_errors_counter
FNDA:22,_RNvMs0_NtCs6Icymx2u3fr_13smith_metrics12standardizedNtB5_10UseMetrics31create_saturation_current_gauge
FNDA:22,_RNvMs0_NtCs6Icymx2u3fr_13smith_metrics12standardizedNtB5_10UseMetrics31create_saturation_maximum_gauge
FNDA:22,_RNvMs0_NtCs6Icymx2u3fr_13smith_metrics12standardizedNtB5_10UseMetrics3new
FNDA:3,_RNvMs1_NtCs6Icymx2u3fr_13smith_metrics12standardizedNtB5_15ExecutorMetrics18create_red_metrics
FNDA:3,_RNvMs1_NtCs6Icymx2u3fr_13smith_metrics12standardizedNtB5_15ExecutorMetrics18create_use_metrics
FNDA:5,_RNvMs1_NtCs6Icymx2u3fr_13smith_metrics12standardizedNtB5_15ExecutorMetrics20record_intent_denied
FNDA:5,_RNvMs1_NtCs6Icymx2u3fr_13smith_metrics12standardizedNtB5_15ExecutorMetrics22record_intent_admitted
FNDA:3,_RNvMs1_NtCs6Icymx2u3fr_13smith_metrics12standardizedNtB5_15ExecutorMetrics29create_intents_denied_counter
FNDA:3,_RNvMs1_NtCs6Icymx2u3fr_13smith_metrics12standardizedNtB5_15ExecutorMetrics29create_replay_attacks_counter
FNDA:3,_RNvMs1_NtCs6Icymx2u3fr_13smith_metrics12standardizedNtB5_15ExecutorMetrics31create_intents_admitted_counter
FNDA:3,_RNvMs1_NtCs6Icymx2u3fr_13smith_metrics12standardizedNtB5_15ExecutorMetrics33create_seccomp_violations_counter
FNDA:3,_RNvMs1_NtCs6Icymx2u3fr_13smith_metrics12standardizedNtB5_15ExecutorMetrics3new
FNDA:3,_RNvMs2_NtCs6Icymx2u3fr_13smith_metrics12standardizedNtB5_18NatsAdapterMetrics23record_message_received
FNDA:4,_RNvMs2_NtCs6Icymx2u3fr_13smith_metrics12standardizedNtB5_18NatsAdapterMetrics24record_message_published
FNDA:4,_RNvMs2_NtCs6Icymx2u3fr_13smith_metrics12standardizedNtB5_18NatsAdapterMetrics3new
FNDA:4,_RNvMs3_NtCs6Icymx2u3fr_13smith_metrics12standardizedNtB5_17HttpClientMetrics19record_http_request
FNDA:1,_RNvMs3_NtCs6Icymx2u3fr_13smith_metrics12standardizedNtB5_17HttpClientMetrics3new
FNDA:106,_RNvMs_NtCs6Icymx2u3fr_13smith_metrics12standardizedNtB4_10RedMetrics12record_error
FNDA:1125,_RNvMs_NtCs6Icymx2u3fr_13smith_metrics12standardizedNtB4_10RedMetrics14record_success
FNDA:29,_RNvMs_NtCs6Icymx2u3fr_13smith_metrics12standardizedNtB4_10RedMetrics21create_errors_counter
FNDA:29,_RNvMs_NtCs6Icymx2u3fr_13smith_metrics12standardizedNtB4_10RedMetrics23create_requests_counter
FNDA:29,_RNvMs_NtCs6Icymx2u3fr_13smith_metrics12standardizedNtB4_10RedMetrics25create_duration_histogram
FNDA:29,_RNvMs_NtCs6Icymx2u3fr_13smith_metrics12standardizedNtB4_10RedMetrics3new
FNDA:9,_RNvNtCs6Icymx2u3fr_13smith_metrics12standardized14create_counter
FNDA:69,_RNvNtCs6Icymx2u3fr_13smith_metrics12standardized16create_gauge_vec
FNDA:89,_RNvNtCs6Icymx2u3fr_13smith_metrics12standardized18create_counter_vec
FNF:68
FNH:68
DA:12,89
DA:13,89
DA:14,89
DA:15,89
DA:16,89
DA:17,89
DA:18,89
DA:19,89
DA:20,89
DA:21,88
DA:22,89
DA:25,69
DA:26,69
DA:27,69
DA:28,69
DA:29,69
DA:30,69
DA:31,69
DA:32,69
DA:33,69
DA:34,68
DA:35,69
DA:38,9
DA:39,9
DA:40,9
DA:41,8
DA:42,9
DA:53,54
DA:54,54
DA:55,54
DA:56,54
DA:57,54
DA:58,54
DA:59,54
DA:61,54
DA:62,81
DA:63,54
DA:64,54
DA:66,177
DA:67,250
DA:68,177
DA:80,29
DA:81,29
DA:82,29
DA:83,29
DA:84,29
DA:85,29
DA:86,29
DA:88,29
DA:89,29
DA:90,29
DA:92,29
DA:93,29
DA:94,29
DA:95,29
DA:96,29
DA:97,29
DA:100,29
DA:101,29
DA:102,29
DA:103,29
DA:104,29
DA:105,29
DA:106,29
DA:107,29
DA:108,29
DA:109,29
DA:111,29
DA:114,29
DA:115,29
DA:116,29
DA:117,29
DA:118,29
DA:119,29
DA:120,29
DA:121,29
DA:122,29
DA:124,29
DA:125,29
DA:126,0
DA:127,29
DA:128,29
DA:129,29
DA:132,29
DA:133,29
DA:134,29
DA:135,29
DA:136,29
DA:137,29
DA:138,29
DA:139,29
DA:140,29
DA:141,29
DA:142,29
DA:144,29
DA:147,1125
DA:148,1125
DA:149,1125
DA:150,1125
DA:151,1125
DA:152,1125
DA:155,106
DA:157,106
DA:160,106
DA:161,106
DA:162,106
DA:163,106
DA:164,106
DA:177,22
DA:178,22
DA:179,22
DA:180,22
DA:181,22
DA:182,22
DA:183,22
DA:185,22
DA:186,22
DA:187,22
DA:188,22
DA:190,22
DA:191,22
DA:192,22
DA:193,22
DA:194,22
DA:195,22
DA:196,22
DA:199,22
DA:200,22
DA:201,22
DA:202,22
DA:203,22
DA:204,22
DA:205,22
DA:206,22
DA:207,22
DA:208,22
DA:210,22
DA:213,22
DA:214,22
DA:215,22
DA:216,22
DA:217,22
DA:218,22
DA:219,22
DA:220,22
DA:221,22
DA:222,22
DA:224,22
DA:227,22
DA:228,22
DA:229,22
DA:230,22
DA:231,22
DA:232,22
DA:233,22
DA:234,22
DA:235,22
DA:236,22
DA:238,22
DA:241,22
DA:242,22
DA:243,22
DA:244,22
DA:245,22
DA:246,22
DA:247,22
DA:248,22
DA:249,22
DA:250,22
DA:251,22
DA:253,22
DA:256,9
DA:257,9
DA:258,9
DA:259,9
DA:260,9
DA:263,7
DA:264,7
DA:265,7
DA:266,7
DA:267,7
DA:268,7
DA:269,7
DA:270,7
DA:273,7
DA:274,7
DA:275,7
DA:276,7
DA:294,3
DA:295,3
DA:296,3
DA:297,3
DA:298,3
DA:299,3
DA:300,3
DA:302,3
DA:303,3
DA:304,3
DA:305,3
DA:306,3
DA:307,3
DA:308,3
DA:309,3
DA:310,3
DA:313,3
DA:314,3
DA:316,3
DA:317,3
DA:318,3
DA:320,3
DA:321,3
DA:322,3
DA:325,3
DA:326,3
DA:329,3
DA:330,3
DA:332,3
DA:333,3
DA:334,3
DA:336,3
DA:337,3
DA:338,3
DA:341,3
DA:342,3
DA:345,3
DA:346,3
DA:347,3
DA:348,3
DA:349,3
DA:350,3
DA:351,3
DA:353,3
DA:356,3
DA:357,3
DA:358,3
DA:359,3
DA:360,3
DA:361,3
DA:362,3
DA:364,3
DA:367,3
DA:368,3
DA:369,3
DA:370,3
DA:371,3
DA:373,3
DA:376,3
DA:377,3
DA:378,3
DA:379,3
DA:380,3
DA:382,3
DA:385,5
DA:386,5
DA:387,5
DA:388,5
DA:389,5
DA:390,5
DA:391,5
DA:392,5
DA:393,5
DA:394,5
DA:396,5
DA:397,5
DA:398,5
DA:399,5
DA:402,5
DA:403,5
DA:404,5
DA:405,5
DA:406,5
DA:425,4
DA:426,4
DA:427,4
DA:430,4
DA:431,4
DA:432,4
DA:433,4
DA:434,4
DA:435,4
DA:436,4
DA:437,0
DA:439,4
DA:440,4
DA:441,4
DA:442,4
DA:443,4
DA:444,4
DA:445,4
DA:446,0
DA:450,4
DA:451,4
DA:452,4
DA:454,4
DA:455,4
DA:456,4
DA:460,4
DA:461,4
DA:462,4
DA:463,4
DA:464,4
DA:466,4
DA:467,0
DA:468,4
DA:470,4
DA:471,4
DA:472,4
DA:473,4
DA:474,4
DA:476,4
DA:477,0
DA:478,4
DA:480,4
DA:481,4
DA:482,4
DA:483,4
DA:484,4
DA:486,4
DA:487,0
DA:488,4
DA:491,4
DA:492,4
DA:493,4
DA:494,4
DA:495,4
DA:497,4
DA:498,0
DA:499,4
DA:501,4
DA:502,4
DA:503,4
DA:504,4
DA:505,4
DA:507,4
DA:508,0
DA:509,4
DA:511,4
DA:512,4
DA:513,4
DA:514,4
DA:515,4
DA:516,4
DA:517,4
DA:518,4
DA:519,4
DA:520,4
DA:523,4
DA:524,4
DA:525,4
DA:526,4
DA:527,4
DA:528,4
DA:529,4
DA:530,4
DA:531,4
DA:532,4
DA:533,4
DA:534,4
DA:536,4
DA:537,4
DA:538,4
DA:540,4
DA:541,4
DA:542,4
DA:543,4
DA:546,3
DA:547,3
DA:548,3
DA:549,3
DA:550,3
DA:551,3
DA:552,3
DA:553,3
DA:554,3
DA:555,3
DA:556,3
DA:558,3
DA:559,3
DA:560,3
DA:561,3
DA:576,1
DA:577,1
DA:578,1
DA:581,1
DA:582,1
DA:583,1
DA:584,1
DA:585,1
DA:586,1
DA:587,1
DA:588,0
DA:590,1
DA:591,1
DA:592,1
DA:593,1
DA:594,1
DA:595,1
DA:596,1
DA:597,0
DA:601,1
DA:602,1
DA:603,1
DA:607,1
DA:608,1
DA:609,1
DA:610,1
DA:611,1
DA:613,1
DA:614,1
DA:615,1
DA:616,1
DA:617,1
DA:618,1
DA:619,1
DA:620,1
DA:621,0
DA:622,1
DA:624,1
DA:625,1
DA:626,1
DA:627,1
DA:628,1
DA:630,1
DA:631,0
DA:632,1
DA:634,1
DA:635,1
DA:636,1
DA:637,1
DA:638,1
DA:640,1
DA:641,0
DA:642,1
DA:644,1
DA:645,1
DA:646,1
DA:647,1
DA:648,1
DA:649,1
DA:650,1
DA:651,1
DA:654,4
DA:655,4
DA:656,4
DA:657,4
DA:658,4
DA:659,4
DA:660,4
DA:661,4
DA:662,4
DA:663,4
DA:664,4
DA:665,4
DA:666,4
DA:668,4
DA:669,4
DA:670,4
DA:671,2
DA:672,2
DA:673,2
DA:674,2
DA:675,2
DA:676,2
DA:677,2
DA:678,2
DA:679,0
DA:680,4
DA:689,1
DA:690,1
DA:691,1
DA:692,1
DA:693,1
DA:696,1
DA:697,1
DA:698,1
DA:699,1
DA:700,1
DA:703,1
DA:704,1
DA:705,1
DA:706,1
DA:707,1
DA:710,1
DA:711,1
DA:712,1
DA:714,1
DA:717,1
DA:718,1
DA:721,1
DA:722,1
DA:723,1
DA:726,1
DA:727,1
DA:728,1
DA:730,1
DA:733,1
DA:734,1
DA:737,1
DA:738,1
DA:741,1
DA:742,1
DA:743,1
DA:746,1
DA:747,1
DA:748,1
DA:750,1
DA:751,1
DA:752,1
DA:755,1
DA:756,1
DA:759,1
DA:760,1
DA:763,1
DA:764,1
DA:765,1
DA:768,1
DA:769,1
DA:770,1
DA:771,1
DA:774,1
DA:775,1
DA:776,1
DA:777,1
DA:780,1
DA:781,1
DA:782,1
DA:783,1
DA:785,1
DA:788,1
DA:789,1
DA:790,1
DA:793,1
DA:794,1
DA:795,1
DA:796,1
DA:797,1
DA:798,1
DA:799,1
DA:803,1
DA:804,1
DA:805,1
DA:806,1
DA:807,1
DA:808,1
DA:809,1
DA:814,1
DA:815,1
DA:816,1
DA:817,1
DA:818,1
DA:819,1
DA:820,1
DA:824,1
DA:825,1
DA:826,1
DA:827,1
DA:828,1
DA:829,1
DA:830,1
DA:835,1
DA:836,1
DA:837,1
DA:839,1
DA:840,1
DA:841,1
DA:844,1
DA:845,1
DA:846,1
DA:848,1
DA:849,1
DA:850,1
DA:853,1
DA:854,1
DA:855,1
DA:856,1
DA:860,1
DA:861,1
DA:862,1
DA:863,1
DA:868,1
DA:869,1
DA:870,1
DA:874,1
DA:875,1
DA:876,1
DA:881,1
DA:882,1
DA:883,1
DA:887,1
DA:888,1
DA:889,1
DA:894,1
DA:895,1
DA:896,1
DA:897,1
DA:898,1
DA:900,1
DA:901,1
DA:902,1
DA:903,1
DA:904,0
DA:907,1
DA:908,1
DA:909,1
DA:910,1
DA:911,1
DA:913,1
DA:914,1
DA:915,1
DA:916,1
DA:917,0
DA:918,1
DA:921,1
DA:922,1
DA:923,1
DA:924,1
DA:925,1
DA:927,1
DA:928,1
DA:929,1
DA:930,1
DA:931,1
DA:933,1
DA:934,1
DA:935,1
DA:938,1
DA:939,1
DA:940,1
DA:941,1
DA:942,1
DA:943,1
DA:944,1
DA:945,1
DA:948,1
DA:949,1
DA:952,1
DA:953,1
DA:954,1
DA:957,1
DA:958,1
DA:959,1
DA:960,1
DA:961,1
DA:962,1
DA:963,1
DA:964,1
DA:967,1
DA:968,1
DA:971,1
DA:972,1
DA:973,1
DA:976,1
DA:977,1
DA:978,1
DA:980,1
DA:981,1
DA:984,1
DA:985,1
DA:986,1
DA:987,1
DA:990,1
DA:991,1
DA:992,1
DA:993,1
DA:994,1
DA:995,1
DA:996,1
DA:997,1
DA:1000,1
DA:1001,1
DA:1004,1
DA:1005,1
DA:1007,1
DA:1008,1
DA:1011,1
DA:1012,1
DA:1014,1
DA:1015,1
DA:1016,1
DA:1019,1
DA:1020,1
DA:1021,1
DA:1022,1
DA:1023,1
DA:1024,1
DA:1025,1
DA:1026,1
DA:1029,1
DA:1030,1
DA:1033,1
DA:1034,1
DA:1037,1
DA:1038,1
DA:1039,1
DA:1042,1
DA:1043,1
DA:1046,1
DA:1047,1
DA:1052,1
DA:1053,1
DA:1056,1
DA:1057,1
DA:1062,1
DA:1063,1
DA:1066,1
DA:1067,1
DA:1070,1
DA:1071,1
DA:1074,1
DA:1077,1
DA:1078,1
DA:1079,1
DA:1082,1
DA:1083,1
DA:1084,1
DA:1087,1
DA:1088,1
DA:1091,1
DA:1092,1
DA:1095,1
DA:1096,1
DA:1101,1
DA:1102,1
DA:1105,1
DA:1106,1
DA:1111,1
DA:1112,1
DA:1113,1
DA:1115,1
DA:1116,1
DA:1117,1
DA:1120,1
DA:1121,1
DA:1122,1
DA:1125,1
DA:1126,1
DA:1127,1
DA:1128,1
DA:1129,1
DA:1134,1
DA:1135,1
DA:1136,1
DA:1137,1
DA:1138,1
DA:1144,1
DA:1145,1
DA:1146,1
DA:1147,1
DA:1148,1
DA:1153,1
DA:1154,1
DA:1157,1
DA:1158,1
DA:1163,1
DA:1164,1
DA:1169,1
DA:1170,1
DA:1173,1
DA:1174,1
DA:1179,1
DA:1180,1
DA:1181,1
DA:1182,0
DA:1183,1
DA:1186,1
DA:1187,1
DA:1188,1
DA:1191,1
DA:1192,1
DA:1195,1
DA:1196,1
DA:1197,1
DA:1198,1
DA:1199,1
DA:1200,1
DA:1203,1
DA:1204,1
DA:1207,1
DA:1208,1
DA:1213,1
DA:1214,1
DA:1217,1
DA:1218,1
DA:1221,1
DA:1224,1
DA:1226,1
DA:1227,1
DA:1230,1
DA:1231,1
DA:1232,1
DA:1234,1
DA:1235,1
DA:1236,1
DA:1239,1
DA:1241,1
DA:1242,1
DA:1244,1
DA:1245,1
DA:1248,1
DA:1249,1
DA:1252,1
DA:1253,1
DA:1256,1
DA:1257,1
DA:1259,1
DA:1260,1
DA:1262,1
DA:1268,1
DA:1270,1
DA:1273,1
DA:1274,1
DA:1275,1
DA:1276,1
DA:1277,1
DA:1278,1
DA:1280,1
DA:1283,1
DA:1284,1
DA:1285,1
DA:1286,1
DA:1287,1
DA:1288,1
DA:1290,1
DA:1291,1
DA:1294,1
DA:1296,1
DA:1299,1
DA:1300,1
DA:1301,1
DA:1302,1
DA:1303,1
DA:1304,1
DA:1306,1
DA:1309,1
DA:1310,1
DA:1311,1
DA:1312,1
DA:1313,1
DA:1314,1
DA:1316,1
DA:1317,1
DA:1320,1
DA:1322,1
DA:1325,1
DA:1326,1
DA:1329,1
DA:1330,1
DA:1331,1
DA:1334,1
DA:1335,1
DA:1336,1
DA:1339,1
DA:1342,1
DA:1345,1
DA:1348,1
DA:1351,1
DA:1352,1
DA:1354,1
DA:1355,1
DA:1357,1
DA:1358,1
DA:1359,1
DA:1362,1
DA:1363,1
DA:1364,1
DA:1365,1
DA:1366,1
DA:1367,1
DA:1368,1
DA:1369,1
DA:1372,1
DA:1375,1
DA:1378,1
DA:1381,1
DA:1384,1
DA:1387,1
DA:1390,1
DA:1393,1
DA:1394,1
DA:1395,1
DA:1398,1
DA:1399,1
DA:1402,1
DA:1403,1
DA:1406,1
DA:1407,1
DA:1410,1
DA:1411,1
DA:1416,1
DA:1417,1
DA:1420,1
DA:1421,1
DA:1424,1
DA:1425,1
DA:1430,1
DA:1431,1
DA:1434,1
DA:1435,1
DA:1438,1
DA:1441,1
DA:1442,1
DA:1443,1
DA:1446,1
DA:1447,1
DA:1449,1
DA:1452,1
DA:1453,1
DA:1456,1
DA:1457,1
DA:1458,1
DA:1461,1
DA:1462,1
DA:1465,1
DA:1466,1
DA:1469,1
DA:1470,1
DA:1475,1
DA:1476,1
DA:1479,1
DA:1480,1
DA:1483,1
DA:1484,1
DA:1489,1
DA:1490,1
DA:1491,1
DA:1493,1
DA:1494,1
DA:1496,1
DA:1497,1
DA:1498,0
DA:1501,1
DA:1502,1
DA:1505,1
DA:1506,1
DA:1507,1
DA:1508,1
DA:1511,0
DA:1513,1
DA:1514,1
DA:1515,1
DA:1516,1
DA:1519,0
DA:1520,1
DA:1523,1
DA:1525,1
DA:1526,1
DA:1527,1
DA:1528,1
DA:1531,1
DA:1532,1
DA:1533,1
DA:1534,1
DA:1537,1
DA:1538,1
DA:1541,1
DA:1542,1
DA:1543,1
DA:1544,1
DA:1545,1
DA:1546,1
DA:1549,1
DA:1550,1
DA:1551,1
DA:1552,1
DA:1555,1
DA:1556,1
DA:1557,1
DA:1558,1
DA:1559,1
DA:1562,1
DA:1563,1
DA:1564,1
DA:1567,1
DA:1568,1
DA:1569,1
DA:1570,1
DA:1571,1
DA:1576,1
DA:1577,1
DA:1578,1
DA:1579,1
DA:1580,1
DA:1586,1
DA:1587,1
DA:1588,1
DA:1589,1
DA:1590,1
DA:1594,1
DA:1595,1
DA:1596,1
DA:1597,1
DA:1598,1
DA:1603,1
DA:1604,1
DA:1605,1
DA:1606,1
DA:1610,1
DA:1611,1
DA:1616,1
DA:1617,1
DA:1618,1
DA:1619,1
DA:1623,1
DA:1624,1
DA:1629,1
DA:1630,1
DA:1631,1
DA:1632,1
DA:1636,1
DA:1637,1
DA:1641,1
DA:1642,1
DA:1643,1
DA:1644,1
DA:1649,1
DA:1650,1
DA:1652,1
DA:1653,1
DA:1654,1
DA:1657,1
DA:1658,1
DA:1661,1
DA:1662,1
DA:1667,1
DA:1668,1
DA:1669,1
DA:1670,1
DA:1671,1
DA:1672,0
DA:1675,1
DA:1676,1
DA:1677,1
DA:1678,1
DA:1681,0
DA:1682,1
DA:1685,1
DA:1689,1
DA:1690,1
DA:1693,10
DA:1694,10
DA:1695,10
DA:1696,10
DA:1697,10
DA:1700,1010
DA:1701,1000
DA:1702,1000
DA:1703,100
DA:1704,900
DA:1706,10
DA:1707,10
DA:1710,11
DA:1711,10
DA:1712,10
DA:1715,11
DA:1716,10
DA:1717,10
DA:1718,10
DA:1719,10
DA:1721,10
DA:1722,10
DA:1724,10
DA:1725,10
DA:1727,1
DA:1730,1
DA:1732,2
DA:1733,2
DA:1734,2
DA:1735,2
DA:1739,2
DA:1740,2
DA:1741,2
DA:1742,2
DA:1746,1
DA:1747,1
DA:1748,1
DA:1749,1
DA:1750,1
DA:1753,1
DA:1754,1
DA:1757,1
DA:1758,1
DA:1759,1
DA:1760,1
DA:1761,1
DA:1763,1
DA:1766,1
DA:1767,1
DA:1768,1
DA:1771,1
DA:1772,1
DA:1774,1
DA:1775,1
DA:1776,1
DA:1777,1
DA:1778,1
BRF:0
BRH:0
LF:1100
LH:1078
end_of_record
SF:/home/nathan/Projects/smith/shared/smith-protocol/src/benchmark.rs
FN:330,_RNvMs1_NtCsio95dFbZOmL_14smith_protocol9benchmarkNtB5_9RunConfig4hash
FN:342,_RNvMs1_NtCsio95dFbZOmL_14smith_protocol9benchmarkNtB5_9RunConfig8env_hash
FN:389,_RNvMs2_NtCsio95dFbZOmL_14smith_protocol9benchmarkNtB5_14BenchmarkEvent15event_type_name
FN:359,_RNvMs2_NtCsio95dFbZOmL_14smith_protocol9benchmarkNtB5_14BenchmarkEvent3new
FN:384,_RNvMs2_NtCsio95dFbZOmL_14smith_protocol9benchmarkNtB5_14BenchmarkEvent7to_json
FN:279,_RNvXNtCsio95dFbZOmL_14smith_protocol9benchmarkNtB2_11RetryPolicyNtNtCs66KPHxksi63_4core7default7Default7default
FN:303,_RNvXs0_NtCsio95dFbZOmL_14smith_protocol9benchmarkNtB5_9RunConfigNtNtCs66KPHxksi63_4core7default7Default7default
FN:291,_RNvXs_NtCsio95dFbZOmL_14smith_protocol9benchmarkNtB4_13SandboxLimitsNtNtCs66KPHxksi63_4core7default7Default7default
FNDA:0,_RNvMs1_NtCsio95dFbZOmL_14smith_protocol9benchmarkNtB5_9RunConfig4hash
FNDA:0,_RNvMs1_NtCsio95dFbZOmL_14smith_protocol9benchmarkNtB5_9RunConfig8env_hash
FNDA:116,_RNvMs2_NtCsio95dFbZOmL_14smith_protocol9benchmarkNtB5_14BenchmarkEvent15event_type_name
FNDA:121,_RNvMs2_NtCsio95dFbZOmL_14smith_protocol9benchmarkNtB5_14BenchmarkEvent3new
FNDA:0,_RNvMs2_NtCsio95dFbZOmL_14smith_protocol9benchmarkNtB5_14BenchmarkEvent7to_json
FNDA:5,_RNvXNtCsio95dFbZOmL_14smith_protocol9benchmarkNtB2_11RetryPolicyNtNtCs66KPHxksi63_4core7default7Default7default
FNDA:5,_RNvXs0_NtCsio95dFbZOmL_14smith_protocol9benchmarkNtB5_9RunConfigNtNtCs66KPHxksi63_4core7default7Default7default
FNDA:5,_RNvXs_NtCsio95dFbZOmL_14smith_protocol9benchmarkNtB4_13SandboxLimitsNtNtCs66KPHxksi63_4core7default7Default7default
FNF:8
FNH:5
DA:279,5
DA:280,5
DA:281,5
DA:282,5
DA:283,5
DA:284,5
DA:285,5
DA:286,5
DA:287,5
DA:291,5
DA:292,5
DA:293,5
DA:294,5
DA:295,5
DA:296,5
DA:297,5
DA:298,5
DA:299,5
DA:303,5
DA:304,5
DA:305,5
DA:306,5
DA:307,5
DA:308,5
DA:309,5
DA:310,5
DA:311,5
DA:312,5
DA:313,5
DA:314,5
DA:315,5
DA:316,5
DA:317,5
DA:318,5
DA:319,5
DA:320,5
DA:321,5
DA:322,5
DA:323,5
DA:324,5
DA:325,5
DA:330,0
DA:334,0
DA:336,0
DA:337,0
DA:338,0
DA:339,0
DA:342,0
DA:343,0
DA:344,0
DA:351,0
DA:352,0
DA:353,0
DA:354,0
DA:359,121
DA:360,121
DA:361,121
DA:362,121
DA:363,121
DA:364,121
DA:365,121
DA:366,121
DA:367,121
DA:368,121
DA:369,121
DA:370,121
DA:371,121
DA:372,121
DA:373,121
DA:374,121
DA:375,121
DA:376,121
DA:377,121
DA:378,121
DA:379,121
DA:380,121
DA:381,121
DA:384,0
DA:385,0
DA:386,0
DA:389,116
DA:390,116
DA:391,105
DA:392,2
DA:393,2
DA:394,1
DA:395,2
DA:396,2
DA:397,2
DA:399,116
BRF:0
BRH:0
LF:90
LH:74
end_of_record
SF:/home/nathan/Projects/smith/shared/smith-protocol/src/client.rs
FN:106,_RINvMs0_NtCsio95dFbZOmL_14smith_protocol6clientNtB6_11SmithClient12connect_unixpEB8_
FN:83,_RINvMs_NtCsio95dFbZOmL_14smith_protocol6clientNtB5_9IpcClient14process_eventsppEB7_
FN:48,_RINvMs_NtCsio95dFbZOmL_14smith_protocol6clientNtB5_9IpcClient7connectpEB7_
FN:106,_RNCINvMs0_NtCsio95dFbZOmL_14smith_protocol6clientNtB8_11SmithClient12connect_unixpE0Ba_
FN:87,_RNCINvMs_NtCsio95dFbZOmL_14smith_protocol6clientNtB7_9IpcClient14process_eventsppE0B9_
FN:48,_RNCINvMs_NtCsio95dFbZOmL_14smith_protocol6clientNtB7_9IpcClient7connectpE0B9_
FN:198,_RNCNCNvMs0_NtCsio95dFbZOmL_14smith_protocol6clientNtB9_11SmithClient13receive_event00Bb_
FN:124,_RNCNCNvMs0_NtCsio95dFbZOmL_14smith_protocol6clientNtB9_11SmithClient15from_connection00Bb_
FN:154,_RNCNCNvMs0_NtCsio95dFbZOmL_14smith_protocol6clientNtB9_11SmithClient15from_connection0s_0Bb_
FN:27,_RNCNvMNtCsio95dFbZOmL_14smith_protocol6clientNtB4_10Connection5flush0B6_
FN:20,_RNCNvMNtCsio95dFbZOmL_14smith_protocol6clientNtB4_10Connection9write_all0B6_
FN:96,_RNCNvMs0_NtCsio95dFbZOmL_14smith_protocol6clientNtB7_11SmithClient11connect_tcp0B9_
FN:170,_RNCNvMs0_NtCsio95dFbZOmL_14smith_protocol6clientNtB7_11SmithClient12send_command0B9_
FN:193,_RNCNvMs0_NtCsio95dFbZOmL_14smith_protocol6clientNtB7_11SmithClient13receive_event0B9_
FN:179,_RNCNvMs0_NtCsio95dFbZOmL_14smith_protocol6clientNtB7_11SmithClient14receive_events0B9_
FN:116,_RNCNvMs0_NtCsio95dFbZOmL_14smith_protocol6clientNtB7_11SmithClient15from_connection0B9_
FN:61,_RNCNvMs_NtCsio95dFbZOmL_14smith_protocol6clientNtB6_9IpcClient12send_command0B8_
FNDA:0,_RINvMs0_NtCsio95dFbZOmL_14smith_protocol6clientNtB6_11SmithClient12connect_unixpEB8_
FNDA:0,_RINvMs_NtCsio95dFbZOmL_14smith_protocol6clientNtB5_9IpcClient14process_eventsppEB7_
FNDA:0,_RINvMs_NtCsio95dFbZOmL_14smith_protocol6clientNtB5_9IpcClient7connectpEB7_
FNDA:0,_RNCINvMs0_NtCsio95dFbZOmL_14smith_protocol6clientNtB8_11SmithClient12connect_unixpE0Ba_
FNDA:0,_RNCINvMs_NtCsio95dFbZOmL_14smith_protocol6clientNtB7_9IpcClient14process_eventsppE0B9_
FNDA:0,_RNCINvMs_NtCsio95dFbZOmL_14smith_protocol6clientNtB7_9IpcClient7connectpE0B9_
FNDA:0,_RNCNCNvMs0_NtCsio95dFbZOmL_14smith_protocol6clientNtB9_11SmithClient13receive_event00Bb_
FNDA:0,_RNCNCNvMs0_NtCsio95dFbZOmL_14smith_protocol6clientNtB9_11SmithClient15from_connection00Bb_
FNDA:0,_RNCNCNvMs0_NtCsio95dFbZOmL_14smith_protocol6clientNtB9_11SmithClient15from_connection0s_0Bb_
FNDA:0,_RNCNvMNtCsio95dFbZOmL_14smith_protocol6clientNtB4_10Connection5flush0B6_
FNDA:0,_RNCNvMNtCsio95dFbZOmL_14smith_protocol6clientNtB4_10Connection9write_all0B6_
FNDA:0,_RNCNvMs0_NtCsio95dFbZOmL_14smith_protocol6clientNtB7_11SmithClient11connect_tcp0B9_
FNDA:0,_RNCNvMs0_NtCsio95dFbZOmL_14smith_protocol6clientNtB7_11SmithClient12send_command0B9_
FNDA:0,_RNCNvMs0_NtCsio95dFbZOmL_14smith_protocol6clientNtB7_11SmithClient13receive_event0B9_
FNDA:0,_RNCNvMs0_NtCsio95dFbZOmL_14smith_protocol6clientNtB7_11SmithClient14receive_events0B9_
FNDA:0,_RNCNvMs0_NtCsio95dFbZOmL_14smith_protocol6clientNtB7_11SmithClient15from_connection0B9_
FNDA:0,_RNCNvMs_NtCsio95dFbZOmL_14smith_protocol6clientNtB6_9IpcClient12send_command0B8_
FNF:17
FNH:0
DA:20,0
DA:21,0
DA:22,0
DA:23,0
DA:25,0
DA:27,0
DA:28,0
DA:29,0
DA:30,0
DA:32,0
DA:48,0
DA:49,0
DA:50,0
DA:51,0
DA:53,0
DA:55,0
DA:56,0
DA:57,0
DA:58,0
DA:61,0
DA:62,0
DA:64,0
DA:65,0
DA:66,0
DA:67,0
DA:68,0
DA:69,0
DA:70,0
DA:71,0
DA:72,0
DA:73,0
DA:74,0
DA:75,0
DA:76,0
DA:78,0
DA:79,0
DA:80,0
DA:83,0
DA:84,0
DA:85,0
DA:86,0
DA:87,0
DA:89,0
DA:90,0
DA:91,0
DA:96,0
DA:97,0
DA:98,0
DA:99,0
DA:101,0
DA:102,0
DA:103,0
DA:106,0
DA:107,0
DA:108,0
DA:109,0
DA:111,0
DA:112,0
DA:113,0
DA:116,0
DA:117,0
DA:118,0
DA:121,0
DA:122,0
DA:124,0
DA:125,0
DA:126,0
DA:127,0
DA:128,0
DA:129,0
DA:130,0
DA:134,0
DA:135,0
DA:136,0
DA:137,0
DA:138,0
DA:139,0
DA:140,0
DA:141,0
DA:142,0
DA:143,0
DA:144,0
DA:145,0
DA:146,0
DA:148,0
DA:150,0
DA:154,0
DA:158,0
DA:163,0
DA:164,0
DA:165,0
DA:166,0
DA:167,0
DA:170,0
DA:171,0
DA:172,0
DA:173,0
DA:174,0
DA:175,0
DA:176,0
DA:179,0
DA:180,0
DA:183,0
DA:184,0
DA:185,0
DA:186,0
DA:187,0
DA:189,0
DA:190,0
DA:193,0
DA:194,0
DA:195,0
DA:196,0
DA:197,0
DA:198,0
DA:200,0
DA:202,0
BRF:0
BRH:0
LF:122
LH:0
end_of_record
SF:/home/nathan/Projects/smith/shared/smith-protocol/src/idempotency.rs
FN:341,_RINvNtNtCsio95dFbZOmL_14smith_protocol11idempotency7helpers18execute_idempotentpppEB6_
FN:351,_RNCINvNtNtCsio95dFbZOmL_14smith_protocol11idempotency7helpers18execute_idempotentpppE0B8_
FN:333,_RNCNvNtNtCsio95dFbZOmL_14smith_protocol11idempotency7helpers17check_idempotency0B7_
FN:58,_RNvMNtCsio95dFbZOmL_14smith_protocol11idempotencyNtB2_14IdempotencyKey11from_string
FN:53,_RNvMNtCsio95dFbZOmL_14smith_protocol11idempotencyNtB2_14IdempotencyKey11into_string
FN:79,_RNvMNtCsio95dFbZOmL_14smith_protocol11idempotencyNtB2_14IdempotencyKey12context_hint
FN:36,_RNvMNtCsio95dFbZOmL_14smith_protocol11idempotencyNtB2_14IdempotencyKey20from_intent_metadata
FN:48,_RNvMNtCsio95dFbZOmL_14smith_protocol11idempotencyNtB2_14IdempotencyKey6as_str
FN:23,_RNvMNtCsio95dFbZOmL_14smith_protocol11idempotencyNtB2_14IdempotencyKey8generate
FN:181,_RNvMs1_NtCsio95dFbZOmL_14smith_protocol11idempotencyNtB5_16IdempotentResult10is_expired
FN:186,_RNvMs1_NtCsio95dFbZOmL_14smith_protocol11idempotencyNtB5_16IdempotentResult16increment_access
FN:159,_RNvMs1_NtCsio95dFbZOmL_14smith_protocol11idempotencyNtB5_16IdempotentResult5error
FN:141,_RNvMs1_NtCsio95dFbZOmL_14smith_protocol11idempotencyNtB5_16IdempotentResult7success
FN:229,_RNvMs2_NtCsio95dFbZOmL_14smith_protocol11idempotencyNtB5_24InMemoryIdempotencyStore3new
FN:239,_RNvXs3_NtCsio95dFbZOmL_14smith_protocol11idempotencyNtB5_24InMemoryIdempotencyStoreNtNtCs66KPHxksi63_4core7default7Default7default
FN:85,_RNvXs_NtCsio95dFbZOmL_14smith_protocol11idempotencyNtB4_14IdempotencyKeyNtNtCs66KPHxksi63_4core3fmt7Display3fmt
FN:256,_RNvXsk_NtCsio95dFbZOmL_14smith_protocol11idempotencyNtB5_24InMemoryIdempotencyStoreNtB5_16IdempotencyStore10get_result
FN:246,_RNvXsk_NtCsio95dFbZOmL_14smith_protocol11idempotencyNtB5_24InMemoryIdempotencyStoreNtB5_16IdempotencyStore13upsert_result
FN:271,_RNvXsk_NtCsio95dFbZOmL_14smith_protocol11idempotencyNtB5_24InMemoryIdempotencyStoreNtB5_16IdempotencyStore15cleanup_expired
FN:289,_RNvXsk_NtCsio95dFbZOmL_14smith_protocol11idempotencyNtB5_24InMemoryIdempotencyStoreNtB5_16IdempotencyStore5stats
FN:91,_RNvXs0_NtCsio95dFbZOmL_14smith_protocol11idempotencyNtNtCs8Ty2CzGA6U3_5alloc6string6StringINtNtCs66KPHxksi63_4core7convert4FromNtB5_14IdempotencyKeyE4from
FN:293,_RNCNCNvXsk_NtCsio95dFbZOmL_14smith_protocol11idempotencyNtB9_24InMemoryIdempotencyStoreNtB9_16IdempotencyStore5stats00Bb_
FN:309,_RNCNCNvXsk_NtCsio95dFbZOmL_14smith_protocol11idempotencyNtB9_24InMemoryIdempotencyStoreNtB9_16IdempotencyStore5stats0s0_0Bb_
FN:297,_RNCNCNvXsk_NtCsio95dFbZOmL_14smith_protocol11idempotencyNtB9_24InMemoryIdempotencyStoreNtB9_16IdempotencyStore5stats0s_0Bb_
FN:70,_RNCNvMNtCsio95dFbZOmL_14smith_protocol11idempotencyNtB4_14IdempotencyKey11from_string0B6_
FNDA:0,_RINvNtNtCsio95dFbZOmL_14smith_protocol11idempotency7helpers18execute_idempotentpppEB6_
FNDA:0,_RNCINvNtNtCsio95dFbZOmL_14smith_protocol11idempotency7helpers18execute_idempotentpppE0B8_
FNDA:0,_RNCNvNtNtCsio95dFbZOmL_14smith_protocol11idempotency7helpers17check_idempotency0B7_
FNDA:0,_RNvMNtCsio95dFbZOmL_14smith_protocol11idempotencyNtB2_14IdempotencyKey11from_string
FNDA:0,_RNvMNtCsio95dFbZOmL_14smith_protocol11idempotencyNtB2_14IdempotencyKey11into_string
FNDA:0,_RNvMNtCsio95dFbZOmL_14smith_protocol11idempotencyNtB2_14IdempotencyKey12context_hint
FNDA:0,_RNvMNtCsio95dFbZOmL_14smith_protocol11idempotencyNtB2_14IdempotencyKey20from_intent_metadata
FNDA:0,_RNvMNtCsio95dFbZOmL_14smith_protocol11idempotencyNtB2_14IdempotencyKey6as_str
FNDA:0,_RNvMNtCsio95dFbZOmL_14smith_protocol11idempotencyNtB2_14IdempotencyKey8generate
FNDA:0,_RNvMs1_NtCsio95dFbZOmL_14smith_protocol11idempotencyNtB5_16IdempotentResult10is_expired
FNDA:0,_RNvMs1_NtCsio95dFbZOmL_14smith_protocol11idempotencyNtB5_16IdempotentResult16increment_access
FNDA:0,_RNvMs1_NtCsio95dFbZOmL_14smith_protocol11idempotencyNtB5_16IdempotentResult5error
FNDA:0,_RNvMs1_NtCsio95dFbZOmL_14smith_protocol11idempotencyNtB5_16IdempotentResult7success
FNDA:0,_RNvMs2_NtCsio95dFbZOmL_14smith_protocol11idempotencyNtB5_24InMemoryIdempotencyStore3new
FNDA:0,_RNvXs3_NtCsio95dFbZOmL_14smith_protocol11idempotencyNtB5_24InMemoryIdempotencyStoreNtNtCs66KPHxksi63_4core7default7Default7default
FNDA:0,_RNvXs_NtCsio95dFbZOmL_14smith_protocol11idempotencyNtB4_14IdempotencyKeyNtNtCs66KPHxksi63_4core3fmt7Display3fmt
FNDA:0,_RNvXsk_NtCsio95dFbZOmL_14smith_protocol11idempotencyNtB5_24InMemoryIdempotencyStoreNtB5_16IdempotencyStore10get_result
FNDA:0,_RNvXsk_NtCsio95dFbZOmL_14smith_protocol11idempotencyNtB5_24InMemoryIdempotencyStoreNtB5_16IdempotencyStore13upsert_result
FNDA:0,_RNvXsk_NtCsio95dFbZOmL_14smith_protocol11idempotencyNtB5_24InMemoryIdempotencyStoreNtB5_16IdempotencyStore15cleanup_expired
FNDA:0,_RNvXsk_NtCsio95dFbZOmL_14smith_protocol11idempotencyNtB5_24InMemoryIdempotencyStoreNtB5_16IdempotencyStore5stats
FNDA:0,_RNvXs0_NtCsio95dFbZOmL_14smith_protocol11idempotencyNtNtCs8Ty2CzGA6U3_5alloc6string6StringINtNtCs66KPHxksi63_4core7convert4FromNtB5_14IdempotencyKeyE4from
FNDA:0,_RNCNCNvXsk_NtCsio95dFbZOmL_14smith_protocol11idempotencyNtB9_24InMemoryIdempotencyStoreNtB9_16IdempotencyStore5stats00Bb_
FNDA:0,_RNCNCNvXsk_NtCsio95dFbZOmL_14smith_protocol11idempotencyNtB9_24InMemoryIdempotencyStoreNtB9_16IdempotencyStore5stats0s0_0Bb_
FNDA:0,_RNCNCNvXsk_NtCsio95dFbZOmL_14smith_protocol11idempotencyNtB9_24InMemoryIdempotencyStoreNtB9_16IdempotencyStore5stats0s_0Bb_
FNDA:0,_RNCNvMNtCsio95dFbZOmL_14smith_protocol11idempotencyNtB4_14IdempotencyKey11from_string0B6_
FNF:25
FNH:0
DA:23,0
DA:24,0
DA:25,0
DA:26,0
DA:27,0
DA:28,0
DA:29,0
DA:31,0
DA:32,0
DA:33,0
DA:36,0
DA:37,0
DA:38,0
DA:39,0
DA:40,0
DA:41,0
DA:42,0
DA:43,0
DA:44,0
DA:45,0
DA:48,0
DA:49,0
DA:50,0
DA:53,0
DA:54,0
DA:55,0
DA:58,0
DA:59,0
DA:60,0
DA:61,0
DA:63,0
DA:65,0
DA:66,0
DA:69,0
DA:70,0
DA:71,0
DA:72,0
DA:74,0
DA:75,0
DA:79,0
DA:80,0
DA:81,0
DA:85,0
DA:86,0
DA:87,0
DA:91,0
DA:92,0
DA:93,0
DA:141,0
DA:142,0
DA:143,0
DA:144,0
DA:145,0
DA:146,0
DA:147,0
DA:148,0
DA:149,0
DA:150,0
DA:151,0
DA:152,0
DA:153,0
DA:154,0
DA:155,0
DA:156,0
DA:159,0
DA:160,0
DA:161,0
DA:162,0
DA:163,0
DA:164,0
DA:165,0
DA:166,0
DA:167,0
DA:168,0
DA:169,0
DA:170,0
DA:171,0
DA:172,0
DA:173,0
DA:174,0
DA:175,0
DA:176,0
DA:177,0
DA:178,0
DA:181,0
DA:182,0
DA:183,0
DA:186,0
DA:187,0
DA:188,0
DA:229,0
DA:230,0
DA:231,0
DA:232,0
DA:233,0
DA:234,0
DA:235,0
DA:239,0
DA:240,0
DA:241,0
DA:246,0
DA:251,0
DA:256,0
DA:269,0
DA:271,0
DA:287,0
DA:289,0
DA:293,0
DA:297,0
DA:309,0
DA:322,0
DA:333,0
DA:334,0
DA:335,0
DA:336,0
DA:337,0
DA:338,0
DA:341,0
DA:342,0
DA:343,0
DA:344,0
DA:345,0
DA:346,0
DA:347,0
DA:348,0
DA:349,0
DA:350,0
DA:351,0
DA:353,0
DA:354,0
DA:355,0
DA:358,0
DA:359,0
DA:360,0
DA:361,0
DA:366,0
DA:368,0
DA:369,0
BRF:0
BRH:0
LF:139
LH:0
end_of_record
SF:/home/nathan/Projects/smith/shared/smith-protocol/src/lib.rs
FN:729,_RINvMs3_Csio95dFbZOmL_14smith_protocolNtB6_6Intent14sort_json_keysBA_EB6_
FN:738,_RNCINvMs3_Csio95dFbZOmL_14smith_protocolNtB8_6Intent14sort_json_keysBC_E0B8_
FN:316,_RNvMs0_Csio95dFbZOmL_14smith_protocolNtB5_10Capability16all_capabilities
FN:329,_RNvMs0_Csio95dFbZOmL_14smith_protocolNtB5_10Capability19is_valid_capability
FN:302,_RNvMs0_Csio95dFbZOmL_14smith_protocolNtB5_10Capability23parse_capability_string
FN:360,_RNvMs1_Csio95dFbZOmL_14smith_protocolNtB5_6Intent16verify_signature
FN:427,_RNvMs2_Csio95dFbZOmL_14smith_protocolNtB5_14RunnerMetadata5empty
FN:745,_RNvMs3_Csio95dFbZOmL_14smith_protocolNtB5_6Intent10is_expired
FN:715,_RNvMs3_Csio95dFbZOmL_14smith_protocolNtB5_6Intent14canonical_json
FN:702,_RNvMs3_Csio95dFbZOmL_14smith_protocolNtB5_6Intent14generate_nonce
FN:762,_RNvMs3_Csio95dFbZOmL_14smith_protocolNtB5_6Intent14result_subject
FN:697,_RNvMs3_Csio95dFbZOmL_14smith_protocolNtB5_6Intent18generate_intent_id
FN:752,_RNvMs3_Csio95dFbZOmL_14smith_protocolNtB5_6Intent18ttl_as_nanoseconds
FN:722,_RNvMs3_Csio95dFbZOmL_14smith_protocolNtB5_6Intent20create_unsigned_copy
FN:707,_RNvMs3_Csio95dFbZOmL_14smith_protocolNtB5_6Intent20current_timestamp_ns
FN:672,_RNvMs3_Csio95dFbZOmL_14smith_protocolNtB5_6Intent3new
FN:757,_RNvMs3_Csio95dFbZOmL_14smith_protocolNtB5_6Intent7subject
FN:838,_RNvMs4_Csio95dFbZOmL_14smith_protocolNtB5_12IntentResult13create_result
FN:790,_RNvMs4_Csio95dFbZOmL_14smith_protocolNtB5_12IntentResult5error
FN:817,_RNvMs4_Csio95dFbZOmL_14smith_protocolNtB5_12IntentResult6denied
FN:769,_RNvMs4_Csio95dFbZOmL_14smith_protocolNtB5_12IntentResult7success
FN:279,_RNvXCsio95dFbZOmL_14smith_protocolNtB2_10CapabilityNtNtCs66KPHxksi63_4core3fmt7Display3fmt
FN:295,_RNvXs_Csio95dFbZOmL_14smith_protocolNtB4_10CapabilityNtNtNtCs66KPHxksi63_4core3str6traits7FromStr8from_str
FNDA:0,_RINvMs3_Csio95dFbZOmL_14smith_protocolNtB6_6Intent14sort_json_keysBA_EB6_
FNDA:0,_RNCINvMs3_Csio95dFbZOmL_14smith_protocolNtB8_6Intent14sort_json_keysBC_E0B8_
FNDA:0,_RNvMs0_Csio95dFbZOmL_14smith_protocolNtB5_10Capability16all_capabilities
FNDA:0,_RNvMs0_Csio95dFbZOmL_14smith_protocolNtB5_10Capability19is_valid_capability
FNDA:0,_RNvMs0_Csio95dFbZOmL_14smith_protocolNtB5_10Capability23parse_capability_string
FNDA:0,_RNvMs1_Csio95dFbZOmL_14smith_protocolNtB5_6Intent16verify_signature
FNDA:0,_RNvMs2_Csio95dFbZOmL_14smith_protocolNtB5_14RunnerMetadata5empty
FNDA:0,_RNvMs3_Csio95dFbZOmL_14smith_protocolNtB5_6Intent10is_expired
FNDA:0,_RNvMs3_Csio95dFbZOmL_14smith_protocolNtB5_6Intent14canonical_json
FNDA:0,_RNvMs3_Csio95dFbZOmL_14smith_protocolNtB5_6Intent14generate_nonce
FNDA:0,_RNvMs3_Csio95dFbZOmL_14smith_protocolNtB5_6Intent14result_subject
FNDA:0,_RNvMs3_Csio95dFbZOmL_14smith_protocolNtB5_6Intent18generate_intent_id
FNDA:0,_RNvMs3_Csio95dFbZOmL_14smith_protocolNtB5_6Intent18ttl_as_nanoseconds
FNDA:0,_RNvMs3_Csio95dFbZOmL_14smith_protocolNtB5_6Intent20create_unsigned_copy
FNDA:0,_RNvMs3_Csio95dFbZOmL_14smith_protocolNtB5_6Intent20current_timestamp_ns
FNDA:0,_RNvMs3_Csio95dFbZOmL_14smith_protocolNtB5_6Intent3new
FNDA:0,_RNvMs3_Csio95dFbZOmL_14smith_protocolNtB5_6Intent7subject
FNDA:0,_RNvMs4_Csio95dFbZOmL_14smith_protocolNtB5_12IntentResult13create_result
FNDA:0,_RNvMs4_Csio95dFbZOmL_14smith_protocolNtB5_12IntentResult5error
FNDA:0,_RNvMs4_Csio95dFbZOmL_14smith_protocolNtB5_12IntentResult6denied
FNDA:0,_RNvMs4_Csio95dFbZOmL_14smith_protocolNtB5_12IntentResult7success
FNDA:0,_RNvXCsio95dFbZOmL_14smith_protocolNtB2_10CapabilityNtNtCs66KPHxksi63_4core3fmt7Display3fmt
FNDA:0,_RNvXs_Csio95dFbZOmL_14smith_protocolNtB4_10CapabilityNtNtNtCs66KPHxksi63_4core3str6traits7FromStr8from_str
FNF:23
FNH:0
DA:279,0
DA:280,0
DA:281,0
DA:282,0
DA:283,0
DA:284,0
DA:285,0
DA:286,0
DA:287,0
DA:289,0
DA:295,0
DA:296,0
DA:297,0
DA:302,0
DA:303,0
DA:304,0
DA:305,0
DA:306,0
DA:307,0
DA:308,0
DA:309,0
DA:310,0
DA:311,0
DA:313,0
DA:316,0
DA:317,0
DA:318,0
DA:319,0
DA:320,0
DA:321,0
DA:322,0
DA:323,0
DA:324,0
DA:326,0
DA:329,0
DA:330,0
DA:331,0
DA:360,0
DA:363,0
DA:364,0
DA:427,0
DA:428,0
DA:429,0
DA:430,0
DA:431,0
DA:432,0
DA:433,0
DA:434,0
DA:672,0
DA:673,0
DA:674,0
DA:675,0
DA:676,0
DA:677,0
DA:678,0
DA:679,0
DA:680,0
DA:681,0
DA:683,0
DA:684,0
DA:685,0
DA:686,0
DA:687,0
DA:688,0
DA:689,0
DA:690,0
DA:691,0
DA:692,0
DA:693,0
DA:694,0
DA:697,0
DA:698,0
DA:699,0
DA:702,0
DA:703,0
DA:704,0
DA:707,0
DA:708,0
DA:709,0
DA:710,0
DA:711,0
DA:712,0
DA:715,0
DA:716,0
DA:717,0
DA:718,0
DA:719,0
DA:722,0
DA:723,0
DA:724,0
DA:725,0
DA:726,0
DA:729,0
DA:730,0
DA:731,0
DA:733,0
DA:735,0
DA:736,0
DA:737,0
DA:738,0
DA:739,0
DA:740,0
DA:741,0
DA:742,0
DA:745,0
DA:746,0
DA:747,0
DA:748,0
DA:749,0
DA:752,0
DA:753,0
DA:754,0
DA:757,0
DA:758,0
DA:759,0
DA:762,0
DA:763,0
DA:764,0
DA:769,0
DA:770,0
DA:771,0
DA:772,0
DA:773,0
DA:774,0
DA:775,0
DA:776,0
DA:777,0
DA:778,0
DA:779,0
DA:780,0
DA:781,0
DA:782,0
DA:783,0
DA:784,0
DA:785,0
DA:787,0
DA:790,0
DA:791,0
DA:792,0
DA:793,0
DA:794,0
DA:795,0
DA:796,0
DA:797,0
DA:798,0
DA:799,0
DA:800,0
DA:801,0
DA:802,0
DA:804,0
DA:805,0
DA:806,0
DA:807,0
DA:808,0
DA:809,0
DA:810,0
DA:811,0
DA:812,0
DA:814,0
DA:817,0
DA:818,0
DA:819,0
DA:820,0
DA:821,0
DA:822,0
DA:823,0
DA:825,0
DA:826,0
DA:827,0
DA:828,0
DA:829,0
DA:830,0
DA:831,0
DA:832,0
DA:833,0
DA:835,0
DA:838,0
DA:839,0
DA:840,0
DA:841,0
DA:842,0
DA:843,0
DA:844,0
DA:845,0
DA:846,0
DA:847,0
DA:848,0
DA:849,0
DA:850,0
DA:851,0
DA:852,0
DA:853,0
DA:854,0
DA:855,0
DA:856,0
DA:857,0
DA:858,0
BRF:0
BRH:0
LF:198
LH:0
end_of_record
SF:/home/nathan/Projects/smith/shared/smith-protocol/src/negotiation.rs
FN:133,_RNCNvMNtCsio95dFbZOmL_14smith_protocol11negotiationNtB4_18ProtocolNegotiator19filter_capabilities0B6_
FN:49,_RNCNvMNtCsio95dFbZOmL_14smith_protocol11negotiationNtB4_18ProtocolNegotiator3new0B6_
FN:53,_RNCNvMNtCsio95dFbZOmL_14smith_protocol11negotiationNtB4_18ProtocolNegotiator3news_0B6_
FNDA:0,_RNCNvMNtCsio95dFbZOmL_14smith_protocol11negotiationNtB4_18ProtocolNegotiator19filter_capabilities0B6_
FNDA:0,_RNCNvMNtCsio95dFbZOmL_14smith_protocol11negotiationNtB4_18ProtocolNegotiator3new0B6_
FNDA:0,_RNCNvMNtCsio95dFbZOmL_14smith_protocol11negotiationNtB4_18ProtocolNegotiator3news_0B6_
FNF:3
FNH:0
DA:49,0
DA:53,0
DA:133,0
BRF:0
BRH:0
LF:3
LH:0
end_of_record
SF:/home/nathan/Projects/smith/shared/smith-protocol/src/policy_abi.rs
FN:64,_RNCNvMNtCsio95dFbZOmL_14smith_protocol10policy_abiNtB4_16PolicyAbiVersion19from_version_string0B6_
FN:70,_RNCNvMNtCsio95dFbZOmL_14smith_protocol10policy_abiNtB4_16PolicyAbiVersion19from_version_strings0_0B6_
FN:67,_RNCNvMNtCsio95dFbZOmL_14smith_protocol10policy_abiNtB4_16PolicyAbiVersion19from_version_strings_0B6_
FN:189,_RNCNvMs0_NtCsio95dFbZOmL_14smith_protocol10policy_abiNtB7_18PolicyAbiValidator19extract_abi_version0B9_
FN:150,_RNCNvMs0_NtCsio95dFbZOmL_14smith_protocol10policy_abiNtB7_18PolicyAbiValidator30validate_startup_compatibility0B9_
FN:170,_RNCNvMs0_NtCsio95dFbZOmL_14smith_protocol10policy_abiNtB7_18PolicyAbiValidator30validate_startup_compatibilitys_0B9_
FN:234,_RNvXs1_NtCsio95dFbZOmL_14smith_protocol10policy_abiNtNtCs8Ty2CzGA6U3_5alloc6string6StringNtB5_22CapabilityBundleValidation26validate_abi_compatibility
FN:46,_RNvMNtCsio95dFbZOmL_14smith_protocol10policy_abiNtB2_16PolicyAbiVersion10is_current
FN:41,_RNvMNtCsio95dFbZOmL_14smith_protocol10policy_abiNtB2_16PolicyAbiVersion13is_compatible
FN:51,_RNvMNtCsio95dFbZOmL_14smith_protocol10policy_abiNtB2_16PolicyAbiVersion17to_version_string
FN:56,_RNvMNtCsio95dFbZOmL_14smith_protocol10policy_abiNtB2_16PolicyAbiVersion19from_version_string
FN:27,_RNvMNtCsio95dFbZOmL_14smith_protocol10policy_abiNtB2_16PolicyAbiVersion3new
FN:36,_RNvMNtCsio95dFbZOmL_14smith_protocol10policy_abiNtB2_16PolicyAbiVersion7current
FN:198,_RNvMs0_NtCsio95dFbZOmL_14smith_protocol10policy_abiNtB5_18PolicyAbiValidator17generate_abi_hash
FN:176,_RNvMs0_NtCsio95dFbZOmL_14smith_protocol10policy_abiNtB5_18PolicyAbiValidator19extract_abi_version
FN:215,_RNvMs0_NtCsio95dFbZOmL_14smith_protocol10policy_abiNtB5_18PolicyAbiValidator22validate_abi_stability
FN:145,_RNvMs0_NtCsio95dFbZOmL_14smith_protocol10policy_abiNtB5_18PolicyAbiValidator30validate_startup_compatibility
FN:241,_RNvXs2_NtCsio95dFbZOmL_14smith_protocol10policy_abiReNtB5_22CapabilityBundleValidation26validate_abi_compatibility
FN:77,_RNvXs_NtCsio95dFbZOmL_14smith_protocol10policy_abiNtB4_16PolicyAbiVersionNtNtCs66KPHxksi63_4core3fmt7Display3fmt
FNDA:0,_RNCNvMNtCsio95dFbZOmL_14smith_protocol10policy_abiNtB4_16PolicyAbiVersion19from_version_string0B6_
FNDA:0,_RNCNvMNtCsio95dFbZOmL_14smith_protocol10policy_abiNtB4_16PolicyAbiVersion19from_version_strings0_0B6_
FNDA:0,_RNCNvMNtCsio95dFbZOmL_14smith_protocol10policy_abiNtB4_16PolicyAbiVersion19from_version_strings_0B6_
FNDA:0,_RNCNvMs0_NtCsio95dFbZOmL_14smith_protocol10policy_abiNtB7_18PolicyAbiValidator19extract_abi_version0B9_
FNDA:0,_RNCNvMs0_NtCsio95dFbZOmL_14smith_protocol10policy_abiNtB7_18PolicyAbiValidator30validate_startup_compatibility0B9_
FNDA:0,_RNCNvMs0_NtCsio95dFbZOmL_14smith_protocol10policy_abiNtB7_18PolicyAbiValidator30validate_startup_compatibilitys_0B9_
FNDA:0,_RNvXs1_NtCsio95dFbZOmL_14smith_protocol10policy_abiNtNtCs8Ty2CzGA6U3_5alloc6string6StringNtB5_22CapabilityBundleValidation26validate_abi_compatibility
FNDA:0,_RNvMNtCsio95dFbZOmL_14smith_protocol10policy_abiNtB2_16PolicyAbiVersion10is_current
FNDA:0,_RNvMNtCsio95dFbZOmL_14smith_protocol10policy_abiNtB2_16PolicyAbiVersion13is_compatible
FNDA:0,_RNvMNtCsio95dFbZOmL_14smith_protocol10policy_abiNtB2_16PolicyAbiVersion17to_version_string
FNDA:0,_RNvMNtCsio95dFbZOmL_14smith_protocol10policy_abiNtB2_16PolicyAbiVersion19from_version_string
FNDA:0,_RNvMNtCsio95dFbZOmL_14smith_protocol10policy_abiNtB2_16PolicyAbiVersion3new
FNDA:0,_RNvMNtCsio95dFbZOmL_14smith_protocol10policy_abiNtB2_16PolicyAbiVersion7current
FNDA:0,_RNvMs0_NtCsio95dFbZOmL_14smith_protocol10policy_abiNtB5_18PolicyAbiValidator17generate_abi_hash
FNDA:0,_RNvMs0_NtCsio95dFbZOmL_14smith_protocol10policy_abiNtB5_18PolicyAbiValidator19extract_abi_version
FNDA:0,_RNvMs0_NtCsio95dFbZOmL_14smith_protocol10policy_abiNtB5_18PolicyAbiValidator22validate_abi_stability
FNDA:0,_RNvMs0_NtCsio95dFbZOmL_14smith_protocol10policy_abiNtB5_18PolicyAbiValidator30validate_startup_compatibility
FNDA:0,_RNvXs2_NtCsio95dFbZOmL_14smith_protocol10policy_abiReNtB5_22CapabilityBundleValidation26validate_abi_compatibility
FNDA:0,_RNvXs_NtCsio95dFbZOmL_14smith_protocol10policy_abiNtB4_16PolicyAbiVersionNtNtCs66KPHxksi63_4core3fmt7Display3fmt
FNF:19
FNH:0
DA:27,0
DA:28,0
DA:29,0
DA:30,0
DA:31,0
DA:32,0
DA:33,0
DA:36,0
DA:37,0
DA:38,0
DA:41,0
DA:42,0
DA:43,0
DA:46,0
DA:47,0
DA:48,0
DA:51,0
DA:52,0
DA:53,0
DA:56,0
DA:57,0
DA:58,0
DA:59,0
DA:60,0
DA:62,0
DA:63,0
DA:64,0
DA:65,0
DA:66,0
DA:67,0
DA:68,0
DA:69,0
DA:70,0
DA:72,0
DA:73,0
DA:77,0
DA:78,0
DA:79,0
DA:145,0
DA:146,0
DA:147,0
DA:149,0
DA:150,0
DA:153,0
DA:156,0
DA:157,0
DA:158,0
DA:159,0
DA:160,0
DA:161,0
DA:164,0
DA:165,0
DA:166,0
DA:167,0
DA:168,0
DA:170,0
DA:172,0
DA:173,0
DA:176,0
DA:177,0
DA:178,0
DA:179,0
DA:180,0
DA:181,0
DA:183,0
DA:184,0
DA:185,0
DA:186,0
DA:187,0
DA:189,0
DA:191,0
DA:192,0
DA:198,0
DA:202,0
DA:203,0
DA:205,0
DA:209,0
DA:210,0
DA:211,0
DA:212,0
DA:215,0
DA:216,0
DA:217,0
DA:218,0
DA:219,0
DA:220,0
DA:221,0
DA:222,0
DA:223,0
DA:234,0
DA:235,0
DA:236,0
DA:237,0
DA:241,0
DA:242,0
DA:243,0
DA:244,0
BRF:0
BRH:0
LF:103
LH:0
end_of_record
SF:/home/nathan/Projects/smith/shared/smith-protocol/src/result_schema.rs
FN:159,_RNCNvMNtCsio95dFbZOmL_14smith_protocol13result_schemaNtB4_14ResultSchemaV18validate0B6_
FN:171,_RNCNvMNtCsio95dFbZOmL_14smith_protocol13result_schemaNtB4_14ResultSchemaV18validates_0B6_
FN:234,_RNCNvMs_NtCsio95dFbZOmL_14smith_protocol13result_schemaNtB6_21ResultSchemaValidator13validate_json0B8_
FN:264,_RNCNvMs_NtCsio95dFbZOmL_14smith_protocol13result_schemaNtB6_21ResultSchemaValidator13validate_jsons_0B8_
FN:60,_RNvMNtCsio95dFbZOmL_14smith_protocol13result_schemaNtB2_14ResultSchemaV13new
FN:96,_RNvMNtCsio95dFbZOmL_14smith_protocol13result_schemaNtB2_14ResultSchemaV18get_meta
FN:101,_RNvMNtCsio95dFbZOmL_14smith_protocol13result_schemaNtB2_14ResultSchemaV18validate
FN:90,_RNvMNtCsio95dFbZOmL_14smith_protocol13result_schemaNtB2_14ResultSchemaV19with_meta
FN:290,_RNvMs_NtCsio95dFbZOmL_14smith_protocol13result_schemaNtB4_21ResultSchemaValidator11schema_hash
FN:231,_RNvMs_NtCsio95dFbZOmL_14smith_protocol13result_schemaNtB4_21ResultSchemaValidator13validate_json
FN:273,_RNvMs_NtCsio95dFbZOmL_14smith_protocol13result_schemaNtB4_21ResultSchemaValidator15validate_struct
FN:278,_RNvMs_NtCsio95dFbZOmL_14smith_protocol13result_schemaNtB4_21ResultSchemaValidator28check_backward_compatibility
FNDA:0,_RNCNvMNtCsio95dFbZOmL_14smith_protocol13result_schemaNtB4_14ResultSchemaV18validate0B6_
FNDA:0,_RNCNvMNtCsio95dFbZOmL_14smith_protocol13result_schemaNtB4_14ResultSchemaV18validates_0B6_
FNDA:0,_RNCNvMs_NtCsio95dFbZOmL_14smith_protocol13result_schemaNtB6_21ResultSchemaValidator13validate_json0B8_
FNDA:0,_RNCNvMs_NtCsio95dFbZOmL_14smith_protocol13result_schemaNtB6_21ResultSchemaValidator13validate_jsons_0B8_
FNDA:0,_RNvMNtCsio95dFbZOmL_14smith_protocol13result_schemaNtB2_14ResultSchemaV13new
FNDA:0,_RNvMNtCsio95dFbZOmL_14smith_protocol13result_schemaNtB2_14ResultSchemaV18get_meta
FNDA:0,_RNvMNtCsio95dFbZOmL_14smith_protocol13result_schemaNtB2_14ResultSchemaV18validate
FNDA:0,_RNvMNtCsio95dFbZOmL_14smith_protocol13result_schemaNtB2_14ResultSchemaV19with_meta
FNDA:0,_RNvMs_NtCsio95dFbZOmL_14smith_protocol13result_schemaNtB4_21ResultSchemaValidator11schema_hash
FNDA:0,_RNvMs_NtCsio95dFbZOmL_14smith_protocol13result_schemaNtB4_21ResultSchemaValidator13validate_json
FNDA:0,_RNvMs_NtCsio95dFbZOmL_14smith_protocol13result_schemaNtB4_21ResultSchemaValidator15validate_struct
FNDA:0,_RNvMs_NtCsio95dFbZOmL_14smith_protocol13result_schemaNtB4_21ResultSchemaValidator28check_backward_compatibility
FNF:12
FNH:0
DA:60,0
DA:61,0
DA:62,0
DA:63,0
DA:64,0
DA:65,0
DA:66,0
DA:67,0
DA:68,0
DA:69,0
DA:70,0
DA:71,0
DA:72,0
DA:73,0
DA:74,0
DA:75,0
DA:76,0
DA:77,0
DA:78,0
DA:79,0
DA:80,0
DA:81,0
DA:82,0
DA:83,0
DA:84,0
DA:85,0
DA:86,0
DA:87,0
DA:90,0
DA:91,0
DA:92,0
DA:93,0
DA:96,0
DA:97,0
DA:98,0
DA:101,0
DA:103,0
DA:104,0
DA:105,0
DA:106,0
DA:107,0
DA:108,0
DA:109,0
DA:110,0
DA:111,0
DA:112,0
DA:113,0
DA:114,0
DA:115,0
DA:116,0
DA:117,0
DA:118,0
DA:119,0
DA:120,0
DA:121,0
DA:122,0
DA:123,0
DA:124,0
DA:125,0
DA:126,0
DA:127,0
DA:128,0
DA:129,0
DA:130,0
DA:133,0
DA:134,0
DA:135,0
DA:136,0
DA:137,0
DA:138,0
DA:139,0
DA:140,0
DA:141,0
DA:142,0
DA:143,0
DA:145,0
DA:146,0
DA:147,0
DA:148,0
DA:149,0
DA:150,0
DA:151,0
DA:152,0
DA:153,0
DA:154,0
DA:155,0
DA:158,0
DA:159,0
DA:161,0
DA:162,0
DA:163,0
DA:164,0
DA:165,0
DA:166,0
DA:169,0
DA:170,0
DA:171,0
DA:173,0
DA:174,0
DA:175,0
DA:176,0
DA:177,0
DA:178,0
DA:181,0
DA:182,0
DA:183,0
DA:184,0
DA:185,0
DA:186,0
DA:187,0
DA:189,0
DA:190,0
DA:231,0
DA:233,0
DA:234,0
DA:236,0
DA:238,0
DA:239,0
DA:240,0
DA:241,0
DA:242,0
DA:243,0
DA:244,0
DA:245,0
DA:246,0
DA:247,0
DA:248,0
DA:249,0
DA:250,0
DA:251,0
DA:253,0
DA:254,0
DA:255,0
DA:256,0
DA:257,0
DA:258,0
DA:260,0
DA:263,0
DA:264,0
DA:267,0
DA:269,0
DA:270,0
DA:273,0
DA:274,0
DA:275,0
DA:278,0
DA:279,0
DA:280,0
DA:281,0
DA:286,0
DA:287,0
DA:290,0
DA:294,0
DA:295,0
DA:299,0
DA:300,0
DA:301,0
DA:302,0
BRF:0
BRH:0
LF:162
LH:0
end_of_record