SF:/home/nathan/Projects/smith/shared/smith-bus/src/consumer.rs
FN:73,_RNCNvMNtCshG72FjnhIfV_9smith_bus8consumerNtB4_8Consumer32convert_start_sequence_to_policy0B6_
FNDA:0,_RNCNvMNtCshG72FjnhIfV_9smith_bus8consumerNtB4_8Consumer32convert_start_sequence_to_policy0B6_
FNF:1
FNH:0
DA:73,0
BRF:0
BRH:0
LF:1
LH:0
end_of_record
SF:/home/nathan/Projects/smith/shared/smith-bus/src/sharding.rs
FN:24,_RNvMNtCshG72FjnhIfV_9smith_bus8shardingNtB2_9EpisodeId12with_project
FN:32,_RNvMNtCshG72FjnhIfV_9smith_bus8shardingNtB2_9EpisodeId17to_subject_suffix
FN:20,_RNvMNtCshG72FjnhIfV_9smith_bus8shardingNtB2_9EpisodeId3new
FN:130,_RNvMs1_NtCshG72FjnhIfV_9smith_bus8shardingNtB5_23OptimizedConsumerConfig11for_fs_read
FN:164,_RNvMs1_NtCshG72FjnhIfV_9smith_bus8shardingNtB5_23OptimizedConsumerConfig13for_admission
FN:147,_RNvMs1_NtCshG72FjnhIfV_9smith_bus8shardingNtB5_23OptimizedConsumerConfig14for_http_fetch
FN:225,_RNvMs3_NtCshG72FjnhIfV_9smith_bus8shardingNtB5_19BackpressureManager25should_apply_backpressure
FN:230,_RNvMs3_NtCshG72FjnhIfV_9smith_bus8shardingNtB5_19BackpressureManager30generate_backpressure_response
FN:260,_RNvMs4_NtCshG72FjnhIfV_9smith_bus8shardingNtB5_17ConsumerOptimizer20calculate_batch_size
FN:279,_RNvMs4_NtCshG72FjnhIfV_9smith_bus8shardingNtB5_17ConsumerOptimizer24optimize_consumer_config
FN:248,_RNvMs4_NtCshG72FjnhIfV_9smith_bus8shardingNtB5_17ConsumerOptimizer25calculate_max_ack_pending
FN:57,_RNvMs_NtCshG72FjnhIfV_9smith_bus8shardingNtB4_21ShardedSubjectBuilder12with_episode
FN:50,_RNvMs_NtCshG72FjnhIfV_9smith_bus8shardingNtB4_21ShardedSubjectBuilder3new
FN:63,_RNvMs_NtCshG72FjnhIfV_9smith_bus8shardingNtB4_21ShardedSubjectBuilder5build
FN:111,_RNvXs0_NtCshG72FjnhIfV_9smith_bus8shardingNtB5_23OptimizedConsumerConfigNtNtCs66KPHxksi63_4core7default7Default7default
FN:210,_RNvXs2_NtCshG72FjnhIfV_9smith_bus8shardingNtB5_19BackpressureManagerNtNtCs66KPHxksi63_4core7default7Default7default
FNDA:0,_RNvMNtCshG72FjnhIfV_9smith_bus8shardingNtB2_9EpisodeId12with_project
FNDA:0,_RNvMNtCshG72FjnhIfV_9smith_bus8shardingNtB2_9EpisodeId17to_subject_suffix
FNDA:0,_RNvMNtCshG72FjnhIfV_9smith_bus8shardingNtB2_9EpisodeId3new
FNDA:0,_RNvMs1_NtCshG72FjnhIfV_9smith_bus8shardingNtB5_23OptimizedConsumerConfig11for_fs_read
FNDA:0,_RNvMs1_NtCshG72FjnhIfV_9smith_bus8shardingNtB5_23OptimizedConsumerConfig13for_admission
FNDA:0,_RNvMs1_NtCshG72FjnhIfV_9smith_bus8shardingNtB5_23OptimizedConsumerConfig14for_http_fetch
FNDA:0,_RNvMs3_NtCshG72FjnhIfV_9smith_bus8shardingNtB5_19BackpressureManager25should_apply_backpressure
FNDA:0,_RNvMs3_NtCshG72FjnhIfV_9smith_bus8shardingNtB5_19BackpressureManager30generate_backpressure_response
FNDA:0,_RNvMs4_NtCshG72FjnhIfV_9smith_bus8shardingNtB5_17ConsumerOptimizer20calculate_batch_size
FNDA:0,_RNvMs4_NtCshG72FjnhIfV_9smith_bus8shardingNtB5_17ConsumerOptimizer24optimize_consumer_config
FNDA:0,_RNvMs4_NtCshG72FjnhIfV_9smith_bus8shardingNtB5_17ConsumerOptimizer25calculate_max_ack_pending
FNDA:0,_RNvMs_NtCshG72FjnhIfV_9smith_bus8shardingNtB4_21ShardedSubjectBuilder12with_episode
FNDA:0,_RNvMs_NtCshG72FjnhIfV_9smith_bus8shardingNtB4_21ShardedSubjectBuilder3new
FNDA:0,_RNvMs_NtCshG72FjnhIfV_9smith_bus8shardingNtB4_21ShardedSubjectBuilder5build
FNDA:0,_RNvXs0_NtCshG72FjnhIfV_9smith_bus8shardingNtB5_23OptimizedConsumerConfigNtNtCs66KPHxksi63_4core7default7Default7default
FNDA:0,_RNvXs2_NtCshG72FjnhIfV_9smith_bus8shardingNtB5_19BackpressureManagerNtNtCs66KPHxksi63_4core7default7Default7default
FNF:16
FNH:0
DA:20,0
DA:21,0
DA:22,0
DA:24,0
DA:25,0
DA:26,0
DA:27,0
DA:28,0
DA:29,0
DA:32,0
DA:33,0
DA:34,0
DA:35,0
DA:38,0
DA:39,0
DA:40,0
DA:50,0
DA:51,0
DA:52,0
DA:53,0
DA:54,0
DA:55,0
DA:57,0
DA:58,0
DA:59,0
DA:60,0
DA:63,0
DA:64,0
DA:65,0
DA:66,0
DA:68,0
DA:70,0
DA:111,0
DA:112,0
DA:113,0
DA:114,0
DA:115,0
DA:116,0
DA:117,0
DA:118,0
DA:119,0
DA:120,0
DA:121,0
DA:122,0
DA:123,0
DA:124,0
DA:125,0
DA:130,0
DA:131,0
DA:132,0
DA:133,0
DA:134,0
DA:135,0
DA:136,0
DA:137,0
DA:138,0
DA:139,0
DA:140,0
DA:141,0
DA:142,0
DA:143,0
DA:144,0
DA:147,0
DA:148,0
DA:149,0
DA:150,0
DA:151,0
DA:152,0
DA:153,0
DA:154,0
DA:155,0
DA:156,0
DA:157,0
DA:158,0
DA:159,0
DA:160,0
DA:161,0
DA:164,0
DA:165,0
DA:166,0
DA:167,0
DA:168,0
DA:169,0
DA:170,0
DA:171,0
DA:172,0
DA:173,0
DA:174,0
DA:175,0
DA:176,0
DA:177,0
DA:178,0
DA:210,0
DA:211,0
DA:212,0
DA:213,0
DA:214,0
DA:215,0
DA:216,0
DA:217,0
DA:218,0
DA:219,0
DA:220,0
DA:225,0
DA:226,0
DA:227,0
DA:230,0
DA:231,0
DA:232,0
DA:233,0
DA:234,0
DA:235,0
DA:236,0
DA:238,0
DA:240,0
DA:248,0
DA:249,0
DA:250,0
DA:251,0
DA:252,0
DA:253,0
DA:256,0
DA:257,0
DA:260,0
DA:261,0
DA:262,0
DA:263,0
DA:264,0
DA:265,0
DA:269,0
DA:270,0
DA:271,0
DA:272,0
DA:274,0
DA:276,0
DA:279,0
DA:280,0
DA:281,0
DA:282,0
DA:283,0
DA:284,0
DA:285,0
DA:286,0
DA:287,0
DA:288,0
DA:291,0
DA:292,0
DA:293,0
DA:294,0
DA:295,0
DA:296,0
BRF:0
BRH:0
LF:151
LH:0
end_of_record
SF:/home/nathan/Projects/smith/shared/smith-bus/src/subjects.rs
FN:285,_RINvMNtNtCshG72FjnhIfV_9smith_bus8subjects8buildersNtB3_13IntentSubject11with_domainRNtNtCs8Ty2CzGA6U3_5alloc6string6StringECskawk3OBxN8e_14smith_protocol
FN:307,_RINvMs_NtNtCshG72FjnhIfV_9smith_bus8subjects8buildersNtB5_13ResultSubject10for_intentRNtNtCs8Ty2CzGA6U3_5alloc6string6StringECskawk3OBxN8e_14smith_protocol
FN:222,_RINvMNtCshG72FjnhIfV_9smith_bus8subjectsNtB3_14SubjectBuilder10capabilityRNtNtCs8Ty2CzGA6U3_5alloc6string6StringECskawk3OBxN8e_14smith_protocol
FN:235,_RINvMNtCshG72FjnhIfV_9smith_bus8subjectsNtB3_14SubjectBuilder6domainRNtNtCs8Ty2CzGA6U3_5alloc6string6StringECskawk3OBxN8e_14smith_protocol
FN:216,_RINvMNtCshG72FjnhIfV_9smith_bus8subjectsNtB3_14SubjectBuilder4partReEB5_
FN:209,_RNvMNtCshG72FjnhIfV_9smith_bus8subjectsNtB2_14SubjectBuilder3new
FN:241,_RNvMNtCshG72FjnhIfV_9smith_bus8subjectsNtB2_14SubjectBuilder5build
FN:246,_RNvMNtCshG72FjnhIfV_9smith_bus8subjectsNtB2_14SubjectBuilder8wildcard
FN:253,_RNvXs_NtCshG72FjnhIfV_9smith_bus8subjectsNtB4_14SubjectBuilderNtNtCs66KPHxksi63_4core7default7Default7default
FNDA:1,_RINvMNtNtCshG72FjnhIfV_9smith_bus8subjects8buildersNtB3_13IntentSubject11with_domainRNtNtCs8Ty2CzGA6U3_5alloc6string6StringECskawk3OBxN8e_14smith_protocol
FNDA:1,_RINvMs_NtNtCshG72FjnhIfV_9smith_bus8subjects8buildersNtB5_13ResultSubject10for_intentRNtNtCs8Ty2CzGA6U3_5alloc6string6StringECskawk3OBxN8e_14smith_protocol
FNDA:1,_RINvMNtCshG72FjnhIfV_9smith_bus8subjectsNtB3_14SubjectBuilder10capabilityRNtNtCs8Ty2CzGA6U3_5alloc6string6StringECskawk3OBxN8e_14smith_protocol
FNDA:1,_RINvMNtCshG72FjnhIfV_9smith_bus8subjectsNtB3_14SubjectBuilder6domainRNtNtCs8Ty2CzGA6U3_5alloc6string6StringECskawk3OBxN8e_14smith_protocol
FNDA:3,_RINvMNtCshG72FjnhIfV_9smith_bus8subjectsNtB3_14SubjectBuilder4partReEB5_
FNDA:2,_RNvMNtCshG72FjnhIfV_9smith_bus8subjectsNtB2_14SubjectBuilder3new
FNDA:2,_RNvMNtCshG72FjnhIfV_9smith_bus8subjectsNtB2_14SubjectBuilder5build
FNDA:0,_RNvMNtCshG72FjnhIfV_9smith_bus8subjectsNtB2_14SubjectBuilder8wildcard
FNDA:0,_RNvXs_NtCshG72FjnhIfV_9smith_bus8subjectsNtB4_14SubjectBuilderNtNtCs66KPHxksi63_4core7default7Default7default
FNF:9
FNH:7
DA:209,2
DA:210,2
DA:211,2
DA:212,2
DA:213,2
DA:216,3
DA:217,3
DA:218,3
DA:219,3
DA:222,1
DA:223,1
DA:224,1
DA:225,1
DA:226,1
DA:227,1
DA:228,0
DA:229,0
DA:230,0
DA:231,1
DA:232,1
DA:235,1
DA:236,1
DA:237,1
DA:238,1
DA:241,2
DA:242,2
DA:243,2
DA:246,0
DA:247,0
DA:248,0
DA:249,0
DA:253,0
DA:254,0
DA:255,0
DA:285,1
DA:286,1
DA:287,1
DA:288,1
DA:289,1
DA:290,1
DA:291,1
DA:307,1
DA:308,1
DA:309,1
DA:310,1
DA:311,1
DA:312,1
BRF:0
BRH:0
LF:47
LH:37
end_of_record
SF:/home/nathan/Projects/smith/shared/smith-protocol/src/benchmark.rs
FN:330,_RNvMs1_NtCskawk3OBxN8e_14smith_protocol9benchmarkNtB5_9RunConfig4hash
FN:342,_RNvMs1_NtCskawk3OBxN8e_14smith_protocol9benchmarkNtB5_9RunConfig8env_hash
FN:389,_RNvMs2_NtCskawk3OBxN8e_14smith_protocol9benchmarkNtB5_14BenchmarkEvent15event_type_name
FN:359,_RNvMs2_NtCskawk3OBxN8e_14smith_protocol9benchmarkNtB5_14BenchmarkEvent3new
FN:384,_RNvMs2_NtCskawk3OBxN8e_14smith_protocol9benchmarkNtB5_14BenchmarkEvent7to_json
FN:279,_RNvXNtCskawk3OBxN8e_14smith_protocol9benchmarkNtB2_11RetryPolicyNtNtCs66KPHxksi63_4core7default7Default7default
FN:303,_RNvXs0_NtCskawk3OBxN8e_14smith_protocol9benchmarkNtB5_9RunConfigNtNtCs66KPHxksi63_4core7default7Default7default
FN:291,_RNvXs_NtCskawk3OBxN8e_14smith_protocol9benchmarkNtB4_13SandboxLimitsNtNtCs66KPHxksi63_4core7default7Default7default
FN:456,_RNvNtNtCskawk3OBxN8e_14smith_protocol9benchmark5testss_13test_defaults
FN:658,_RNvNtNtCskawk3OBxN8e_14smith_protocol9benchmark5testss_13test_env_hash
FN:730,_RNvNtNtCskawk3OBxN8e_14smith_protocol9benchmark5testss_19test_config_hashing
FN:486,_RNvNtNtCskawk3OBxN8e_14smith_protocol9benchmark5testss_20test_event_type_name
FN:673,_RNvNtNtCskawk3OBxN8e_14smith_protocol9benchmark5testss_26test_complex_failure_roots
FN:407,_RNvNtNtCskawk3OBxN8e_14smith_protocol9benchmark5testss_34test_benchmark_event_serialization
FNDA:5,_RNvMs1_NtCskawk3OBxN8e_14smith_protocol9benchmarkNtB5_9RunConfig4hash
FNDA:4,_RNvMs1_NtCskawk3OBxN8e_14smith_protocol9benchmarkNtB5_9RunConfig8env_hash
FNDA:7,_RNvMs2_NtCskawk3OBxN8e_14smith_protocol9benchmarkNtB5_14BenchmarkEvent15event_type_name
FNDA:8,_RNvMs2_NtCskawk3OBxN8e_14smith_protocol9benchmarkNtB5_14BenchmarkEvent3new
FNDA:1,_RNvMs2_NtCskawk3OBxN8e_14smith_protocol9benchmarkNtB5_14BenchmarkEvent7to_json
FNDA:4,_RNvXNtCskawk3OBxN8e_14smith_protocol9benchmarkNtB2_11RetryPolicyNtNtCs66KPHxksi63_4core7default7Default7default
FNDA:3,_RNvXs0_NtCskawk3OBxN8e_14smith_protocol9benchmarkNtB5_9RunConfigNtNtCs66KPHxksi63_4core7default7Default7default
FNDA:4,_RNvXs_NtCskawk3OBxN8e_14smith_protocol9benchmarkNtB4_13SandboxLimitsNtNtCs66KPHxksi63_4core7default7Default7default
FNDA:1,_RNvNtNtCskawk3OBxN8e_14smith_protocol9benchmark5testss_13test_defaults
FNDA:1,_RNvNtNtCskawk3OBxN8e_14smith_protocol9benchmark5testss_13test_env_hash
FNDA:1,_RNvNtNtCskawk3OBxN8e_14smith_protocol9benchmark5testss_19test_config_hashing
FNDA:1,_RNvNtNtCskawk3OBxN8e_14smith_protocol9benchmark5testss_20test_event_type_name
FNDA:1,_RNvNtNtCskawk3OBxN8e_14smith_protocol9benchmark5testss_26test_complex_failure_roots
FNDA:1,_RNvNtNtCskawk3OBxN8e_14smith_protocol9benchmark5testss_34test_benchmark_event_serialization
FNF:14
FNH:14
DA:279,4
DA:280,4
DA:281,4
DA:282,4
DA:283,4
DA:284,4
DA:285,4
DA:286,4
DA:287,4
DA:291,4
DA:292,4
DA:293,4
DA:294,4
DA:295,4
DA:296,4
DA:297,4
DA:298,4
DA:299,4
DA:303,3
DA:304,3
DA:305,3
DA:306,3
DA:307,3
DA:308,3
DA:309,3
DA:310,3
DA:311,3
DA:312,3
DA:313,3
DA:314,3
DA:315,3
DA:316,3
DA:317,3
DA:318,3
DA:319,3
DA:320,3
DA:321,3
DA:322,3
DA:323,3
DA:324,3
DA:325,3
DA:330,5
DA:334,5
DA:336,5
DA:337,5
DA:338,5
DA:339,5
DA:342,4
DA:343,4
DA:344,4
DA:351,4
DA:352,4
DA:353,4
DA:354,4
DA:359,8
DA:360,8
DA:361,8
DA:362,8
DA:363,8
DA:364,8
DA:365,8
DA:366,8
DA:367,8
DA:368,8
DA:369,8
DA:370,8
DA:371,8
DA:372,8
DA:373,8
DA:374,8
DA:375,8
DA:376,8
DA:377,8
DA:378,8
DA:379,8
DA:380,8
DA:381,8
DA:384,1
DA:385,1
DA:386,1
DA:389,7
DA:390,7
DA:391,1
DA:392,1
DA:393,1
DA:394,1
DA:395,1
DA:396,1
DA:397,1
DA:399,7
DA:407,1
DA:408,1
DA:409,1
DA:410,1
DA:411,1
DA:412,1
DA:413,1
DA:414,1
DA:415,1
DA:416,1
DA:417,1
DA:418,1
DA:419,1
DA:420,1
DA:421,1
DA:422,1
DA:423,1
DA:424,1
DA:425,1
DA:426,1
DA:427,1
DA:428,1
DA:429,1
DA:430,1
DA:431,1
DA:432,1
DA:433,1
DA:434,1
DA:435,1
DA:436,1
DA:438,1
DA:439,1
DA:440,1
DA:441,1
DA:442,1
DA:443,1
DA:444,1
DA:446,1
DA:449,1
DA:450,1
DA:451,1
DA:452,1
DA:453,1
DA:456,1
DA:457,1
DA:458,1
DA:459,1
DA:460,1
DA:461,1
DA:462,1
DA:464,1
DA:465,1
DA:466,1
DA:467,1
DA:468,1
DA:469,1
DA:471,1
DA:472,1
DA:473,1
DA:474,1
DA:475,1
DA:476,1
DA:477,1
DA:478,1
DA:479,1
DA:480,1
DA:481,1
DA:482,1
DA:483,1
DA:486,1
DA:487,1
DA:488,1
DA:489,1
DA:490,1
DA:491,1
DA:492,1
DA:493,1
DA:494,1
DA:495,1
DA:496,1
DA:497,1
DA:498,1
DA:499,1
DA:500,1
DA:501,1
DA:503,1
DA:504,1
DA:505,1
DA:506,1
DA:507,1
DA:508,1
DA:509,1
DA:510,1
DA:511,1
DA:513,1
DA:514,1
DA:515,1
DA:516,1
DA:517,1
DA:518,1
DA:519,1
DA:520,1
DA:521,1
DA:522,1
DA:523,1
DA:524,1
DA:525,1
DA:526,1
DA:527,1
DA:528,1
DA:529,1
DA:530,1
DA:532,1
DA:533,1
DA:534,1
DA:535,1
DA:536,1
DA:537,1
DA:538,1
DA:539,1
DA:540,1
DA:542,1
DA:543,1
DA:544,1
DA:545,1
DA:546,1
DA:547,1
DA:548,1
DA:549,1
DA:550,1
DA:551,1
DA:552,1
DA:553,1
DA:554,1
DA:555,1
DA:556,1
DA:557,1
DA:558,1
DA:559,1
DA:560,1
DA:561,1
DA:563,1
DA:564,1
DA:565,1
DA:566,1
DA:567,1
DA:568,1
DA:569,1
DA:572,1
DA:573,1
DA:574,1
DA:575,1
DA:576,1
DA:577,1
DA:578,1
DA:580,1
DA:582,1
DA:584,1
DA:585,1
DA:586,1
DA:587,1
DA:588,1
DA:589,1
DA:590,1
DA:592,1
DA:594,1
DA:596,1
DA:597,1
DA:598,1
DA:599,1
DA:600,1
DA:601,1
DA:602,1
DA:604,1
DA:606,1
DA:608,1
DA:609,1
DA:610,1
DA:611,1
DA:612,1
DA:613,1
DA:614,1
DA:616,1
DA:618,1
DA:620,1
DA:621,1
DA:622,1
DA:623,1
DA:624,1
DA:625,1
DA:626,1
DA:628,1
DA:630,1
DA:632,1
DA:633,1
DA:634,1
DA:635,1
DA:636,1
DA:637,1
DA:638,1
DA:640,1
DA:642,1
DA:644,1
DA:645,1
DA:646,1
DA:647,1
DA:648,1
DA:649,1
DA:650,1
DA:652,1
DA:654,1
DA:655,1
DA:658,1
DA:659,1
DA:660,1
DA:662,1
DA:663,1
DA:664,1
DA:666,1
DA:669,1
DA:670,1
DA:673,1
DA:674,1
DA:675,1
DA:676,1
DA:677,1
DA:678,1
DA:679,1
DA:680,1
DA:681,1
DA:682,1
DA:683,1
DA:684,1
DA:685,1
DA:686,1
DA:687,1
DA:688,1
DA:689,1
DA:690,1
DA:691,1
DA:692,1
DA:693,1
DA:694,1
DA:695,1
DA:696,1
DA:697,1
DA:698,1
DA:699,1
DA:700,1
DA:701,1
DA:702,1
DA:705,8
DA:706,7
DA:707,7
DA:708,7
DA:709,7
DA:710,7
DA:711,7
DA:712,7
DA:713,7
DA:714,7
DA:715,7
DA:716,7
DA:717,7
DA:720,7
DA:721,7
DA:724,7
DA:725,7
DA:727,1
DA:730,1
DA:731,1
DA:732,1
DA:733,1
DA:734,1
DA:735,1
DA:736,1
DA:737,1
DA:738,1
DA:739,1
DA:740,1
DA:741,1
DA:742,1
DA:743,1
DA:744,1
DA:745,1
DA:746,1
DA:747,1
DA:748,1
DA:749,1
DA:750,1
DA:751,1
DA:752,1
DA:753,1
DA:754,1
DA:755,1
DA:756,1
DA:757,1
DA:758,1
DA:759,1
DA:761,1
DA:763,1
DA:766,1
DA:767,1
DA:768,1
DA:769,1
BRF:0
BRH:0
LF:395
LH:395
end_of_record
SF:/home/nathan/Projects/smith/shared/smith-protocol/src/bin/validate-policy-abi.rs
FN:10,_RNvCseOdPyrxLjMt_19validate_policy_abi4main
FNDA:0,_RNvCseOdPyrxLjMt_19validate_policy_abi4main
FNF:1
FNH:0
DA:10,0
DA:11,0
DA:12,0
DA:13,0
DA:14,0
DA:15,0
DA:16,0
DA:17,0
DA:18,0
DA:19,0
DA:21,0
DA:22,0
DA:23,0
DA:24,0
DA:25,0
DA:27,0
DA:28,0
DA:29,0
DA:30,0
DA:31,0
DA:33,0
DA:35,0
DA:36,0
DA:37,0
DA:38,0
DA:39,0
DA:41,0
DA:43,0
DA:44,0
DA:45,0
DA:46,0
DA:47,0
DA:48,0
DA:50,0
DA:51,0
DA:53,0
DA:56,0
DA:58,0
DA:59,0
DA:60,0
DA:61,0
DA:62,0
DA:63,0
DA:64,0
DA:65,0
DA:66,0
DA:67,0
DA:68,0
DA:73,0
DA:74,0
DA:76,0
DA:77,0
DA:78,0
DA:81,0
DA:82,0
DA:83,0
DA:84,0
DA:85,0
DA:88,0
DA:89,0
BRF:0
BRH:0
LF:60
LH:0
end_of_record
SF:/home/nathan/Projects/smith/shared/smith-protocol/src/bin/validate-result-schema.rs
FN:123,_RNCNvCsgtEFF6SUKML_22validate_result_schema18validate_json_file0B3_
FN:119,_RNvCsgtEFF6SUKML_22validate_result_schema18validate_json_file
FN:10,_RNvCsgtEFF6SUKML_22validate_result_schema4main
FNDA:0,_RNCNvCsgtEFF6SUKML_22validate_result_schema18validate_json_file0B3_
FNDA:0,_RNvCsgtEFF6SUKML_22validate_result_schema18validate_json_file
FNDA:0,_RNvCsgtEFF6SUKML_22validate_result_schema4main
FNF:3
FNH:0
DA:10,0
DA:11,0
DA:12,0
DA:13,0
DA:14,0
DA:15,0
DA:16,0
DA:17,0
DA:18,0
DA:19,0
DA:21,0
DA:22,0
DA:23,0
DA:24,0
DA:25,0
DA:27,0
DA:28,0
DA:29,0
DA:30,0
DA:31,0
DA:33,0
DA:34,0
DA:35,0
DA:36,0
DA:37,0
DA:39,0
DA:41,0
DA:42,0
DA:43,0
DA:44,0
DA:45,0
DA:47,0
DA:48,0
DA:49,0
DA:50,0
DA:52,0
DA:54,0
DA:55,0
DA:56,0
DA:57,0
DA:58,0
DA:59,0
DA:61,0
DA:62,0
DA:64,0
DA:67,0
DA:69,0
DA:70,0
DA:71,0
DA:72,0
DA:73,0
DA:74,0
DA:75,0
DA:76,0
DA:77,0
DA:78,0
DA:79,0
DA:80,0
DA:83,0
DA:87,0
DA:89,0
DA:90,0
DA:91,0
DA:94,0
DA:95,0
DA:96,0
DA:97,0
DA:98,0
DA:99,0
DA:100,0
DA:101,0
DA:102,0
DA:103,0
DA:104,0
DA:105,0
DA:106,0
DA:109,0
DA:110,0
DA:111,0
DA:112,0
DA:113,0
DA:116,0
DA:117,0
DA:119,0
DA:120,0
DA:122,0
DA:123,0
DA:125,0
DA:126,0
DA:127,0
DA:128,0
DA:131,0
DA:132,0
DA:133,0
DA:134,0
DA:135,0
DA:136,0
DA:138,0
DA:139,0
DA:140,0
DA:141,0
DA:145,0
DA:146,0
BRF:0
BRH:0
LF:104
LH:0
end_of_record
SF:/home/nathan/Projects/smith/shared/smith-protocol/src/client.rs
FN:27,_RNvMNtCskawk3OBxN8e_14smith_protocol6clientNtB2_10Connection5flush
FN:20,_RNvMNtCskawk3OBxN8e_14smith_protocol6clientNtB2_10Connection9write_all
FN:96,_RNvMs0_NtCskawk3OBxN8e_14smith_protocol6clientNtB5_11SmithClient11connect_tcp
FN:170,_RNvMs0_NtCskawk3OBxN8e_14smith_protocol6clientNtB5_11SmithClient12send_command
FN:193,_RNvMs0_NtCskawk3OBxN8e_14smith_protocol6clientNtB5_11SmithClient13receive_event
FN:179,_RNvMs0_NtCskawk3OBxN8e_14smith_protocol6clientNtB5_11SmithClient14receive_events
FN:116,_RNvMs0_NtCskawk3OBxN8e_14smith_protocol6clientNtB5_11SmithClient15from_connection
FN:61,_RNvMs_NtCskawk3OBxN8e_14smith_protocol6clientNtB4_9IpcClient12send_command
FN:370,_RNvNtNtCskawk3OBxN8e_14smith_protocol6client5testss_21test_command_variants
FN:240,_RNvNtNtCskawk3OBxN8e_14smith_protocol6client5testss_26test_ipc_client_connection
FN:261,_RNvNtNtCskawk3OBxN8e_14smith_protocol6client5testss_28test_ipc_client_send_command
FN:460,_RNvNtNtCskawk3OBxN8e_14smith_protocol6client5testss_29test_ipc_client_connect_error
FN:447,_RNvNtNtCskawk3OBxN8e_14smith_protocol6client5testss_30test_connection_error_contexts
FN:278,_RNvNtNtCskawk3OBxN8e_14smith_protocol6client5testss_30test_ipc_client_process_events
FN:327,_RNvNtNtCskawk3OBxN8e_14smith_protocol6client5testss_30test_smith_client_send_command
FN:524,_RNvNtNtCskawk3OBxN8e_14smith_protocol6client5testss_31test_concurrent_command_sending
FN:214,_RNvNtNtCskawk3OBxN8e_14smith_protocol6client5testss_31test_connection_write_and_flush
FN:343,_RNvNtNtCskawk3OBxN8e_14smith_protocol6client5testss_32test_smith_client_receive_events
FN:294,_RNvNtNtCskawk3OBxN8e_14smith_protocol6client5testss_32test_smith_client_tcp_connection
FN:309,_RNvNtNtCskawk3OBxN8e_14smith_protocol6client5testss_33test_smith_client_unix_connection
FN:432,_RNvNtNtCskawk3OBxN8e_14smith_protocol6client5testss_34test_connection_tcp_error_handling
FN:439,_RNvNtNtCskawk3OBxN8e_14smith_protocol6client5testss_35test_connection_unix_error_handling
FN:225,_RNvNtNtCskawk3OBxN8e_14smith_protocol6client5testss_35test_tcp_connection_write_and_flush
FN:492,_RNvNtNtCskawk3OBxN8e_14smith_protocol6client5testss_37test_command_serialization_edge_cases
FN:477,_RNvNtNtCskawk3OBxN8e_14smith_protocol6client5testss_47test_smith_client_from_connection_task_spawning
FN:353,_RNvNtNtCskawk3OBxN8e_14smith_protocol6client5testss_59test_smith_client_receive_single_event_with_closed_receiver
FN:285,_RNCNCNCNvNtNtCskawk3OBxN8e_14smith_protocol6client5testss_30test_ipc_client_process_events000Bb_
FN:287,_RNCNCNvNtNtCskawk3OBxN8e_14smith_protocol6client5testss_30test_ipc_client_process_events00B9_
FN:248,_RNCNCNvNtNtCskawk3OBxN8e_14smith_protocol6client5testss_26test_ipc_client_connection00B9_
FN:533,_RNCNCNvNtNtCskawk3OBxN8e_14smith_protocol6client5testss_31test_concurrent_command_sending00B9_
FN:300,_RNCNCNvNtNtCskawk3OBxN8e_14smith_protocol6client5testss_32test_smith_client_tcp_connection00B9_
FN:315,_RNCNCNvNtNtCskawk3OBxN8e_14smith_protocol6client5testss_33test_smith_client_unix_connection00B9_
FN:370,_RNCNvNtNtCskawk3OBxN8e_14smith_protocol6client5testss_21test_command_variants0B7_
FN:240,_RNCNvNtNtCskawk3OBxN8e_14smith_protocol6client5testss_26test_ipc_client_connection0B7_
FN:261,_RNCNvNtNtCskawk3OBxN8e_14smith_protocol6client5testss_28test_ipc_client_send_command0B7_
FN:460,_RNCNvNtNtCskawk3OBxN8e_14smith_protocol6client5testss_29test_ipc_client_connect_error0B7_
FN:447,_RNCNvNtNtCskawk3OBxN8e_14smith_protocol6client5testss_30test_connection_error_contexts0B7_
FN:278,_RNCNvNtNtCskawk3OBxN8e_14smith_protocol6client5testss_30test_ipc_client_process_events0B7_
FN:327,_RNCNvNtNtCskawk3OBxN8e_14smith_protocol6client5testss_30test_smith_client_send_command0B7_
FN:524,_RNCNvNtNtCskawk3OBxN8e_14smith_protocol6client5testss_31test_concurrent_command_sending0B7_
FN:214,_RNCNvNtNtCskawk3OBxN8e_14smith_protocol6client5testss_31test_connection_write_and_flush0B7_
FN:343,_RNCNvNtNtCskawk3OBxN8e_14smith_protocol6client5testss_32test_smith_client_receive_events0B7_
FN:294,_RNCNvNtNtCskawk3OBxN8e_14smith_protocol6client5testss_32test_smith_client_tcp_connection0B7_
FN:309,_RNCNvNtNtCskawk3OBxN8e_14smith_protocol6client5testss_33test_smith_client_unix_connection0B7_
FN:432,_RNCNvNtNtCskawk3OBxN8e_14smith_protocol6client5testss_34test_connection_tcp_error_handling0B7_
FN:439,_RNCNvNtNtCskawk3OBxN8e_14smith_protocol6client5testss_35test_connection_unix_error_handling0B7_
FN:225,_RNCNvNtNtCskawk3OBxN8e_14smith_protocol6client5testss_35test_tcp_connection_write_and_flush0B7_
FN:492,_RNCNvNtNtCskawk3OBxN8e_14smith_protocol6client5testss_37test_command_serialization_edge_cases0B7_
FN:477,_RNCNvNtNtCskawk3OBxN8e_14smith_protocol6client5testss_47test_smith_client_from_connection_task_spawning0B7_
FN:353,_RNCNvNtNtCskawk3OBxN8e_14smith_protocol6client5testss_59test_smith_client_receive_single_event_with_closed_receiver0B7_
FN:106,_RINvMs0_NtCskawk3OBxN8e_14smith_protocol6clientNtB6_11SmithClient12connect_unixRNtNtCs8Ty2CzGA6U3_5alloc6string6StringEB8_
FN:106,_RINvMs0_NtCskawk3OBxN8e_14smith_protocol6clientNtB6_11SmithClient12connect_unixReEB8_
FN:83,_RINvMs_NtCskawk3OBxN8e_14smith_protocol6clientNtB5_9IpcClient14process_eventsNCNCNvNtB5_5testss_30test_ipc_client_process_events00NCNCB1f_00EB7_
FN:48,_RINvMs_NtCskawk3OBxN8e_14smith_protocol6clientNtB5_9IpcClient7connectRNtNtCs8Ty2CzGA6U3_5alloc6string6StringEB7_
FN:48,_RINvMs_NtCskawk3OBxN8e_14smith_protocol6clientNtB5_9IpcClient7connectReEB7_
FN:106,_RNCINvMs0_NtCskawk3OBxN8e_14smith_protocol6clientNtB8_11SmithClient12connect_unixRNtNtCs8Ty2CzGA6U3_5alloc6string6StringE0Ba_
FN:106,_RNCINvMs0_NtCskawk3OBxN8e_14smith_protocol6clientNtB8_11SmithClient12connect_unixReE0Ba_
FN:87,_RNCINvMs_NtCskawk3OBxN8e_14smith_protocol6clientNtB7_9IpcClient14process_eventsNCNCNvNtB7_5testss_30test_ipc_client_process_events00NCNCB1h_00E0B9_
FN:48,_RNCINvMs_NtCskawk3OBxN8e_14smith_protocol6clientNtB7_9IpcClient7connectRNtNtCs8Ty2CzGA6U3_5alloc6string6StringE0B9_
FN:48,_RNCINvMs_NtCskawk3OBxN8e_14smith_protocol6clientNtB7_9IpcClient7connectReE0B9_
FN:198,_RNCNCNvMs0_NtCskawk3OBxN8e_14smith_protocol6clientNtB9_11SmithClient13receive_event00Bb_
FN:124,_RNCNCNvMs0_NtCskawk3OBxN8e_14smith_protocol6clientNtB9_11SmithClient15from_connection00Bb_
FN:154,_RNCNCNvMs0_NtCskawk3OBxN8e_14smith_protocol6clientNtB9_11SmithClient15from_connection0s_0Bb_
FN:27,_RNCNvMNtCskawk3OBxN8e_14smith_protocol6clientNtB4_10Connection5flush0B6_
FN:20,_RNCNvMNtCskawk3OBxN8e_14smith_protocol6clientNtB4_10Connection9write_all0B6_
FN:96,_RNCNvMs0_NtCskawk3OBxN8e_14smith_protocol6clientNtB7_11SmithClient11connect_tcp0B9_
FN:170,_RNCNvMs0_NtCskawk3OBxN8e_14smith_protocol6clientNtB7_11SmithClient12send_command0B9_
FN:193,_RNCNvMs0_NtCskawk3OBxN8e_14smith_protocol6clientNtB7_11SmithClient13receive_event0B9_
FN:179,_RNCNvMs0_NtCskawk3OBxN8e_14smith_protocol6clientNtB7_11SmithClient14receive_events0B9_
FN:116,_RNCNvMs0_NtCskawk3OBxN8e_14smith_protocol6clientNtB7_11SmithClient15from_connection0B9_
FN:61,_RNCNvMs_NtCskawk3OBxN8e_14smith_protocol6clientNtB6_9IpcClient12send_command0B8_
FNDA:3,_RNvMNtCskawk3OBxN8e_14smith_protocol6clientNtB2_10Connection5flush
FNDA:5,_RNvMNtCskawk3OBxN8e_14smith_protocol6clientNtB2_10Connection9write_all
FNDA:3,_RNvMs0_NtCskawk3OBxN8e_14smith_protocol6clientNtB5_11SmithClient11connect_tcp
FNDA:12,_RNvMs0_NtCskawk3OBxN8e_14smith_protocol6clientNtB5_11SmithClient12send_command
FNDA:1,_RNvMs0_NtCskawk3OBxN8e_14smith_protocol6clientNtB5_11SmithClient13receive_event
FNDA:1,_RNvMs0_NtCskawk3OBxN8e_14smith_protocol6clientNtB5_11SmithClient14receive_events
FNDA:7,_RNvMs0_NtCskawk3OBxN8e_14smith_protocol6clientNtB5_11SmithClient15from_connection
FNDA:1,_RNvMs_NtCskawk3OBxN8e_14smith_protocol6clientNtB4_9IpcClient12send_command
FNDA:1,_RNvNtNtCskawk3OBxN8e_14smith_protocol6client5testss_21test_command_variants
FNDA:1,_RNvNtNtCskawk3OBxN8e_14smith_protocol6client5testss_26test_ipc_client_connection
FNDA:1,_RNvNtNtCskawk3OBxN8e_14smith_protocol6client5testss_28test_ipc_client_send_command
FNDA:1,_RNvNtNtCskawk3OBxN8e_14smith_protocol6client5testss_29test_ipc_client_connect_error
FNDA:1,_RNvNtNtCskawk3OBxN8e_14smith_protocol6client5testss_30test_connection_error_contexts
FNDA:1,_RNvNtNtCskawk3OBxN8e_14smith_protocol6client5testss_30test_ipc_client_process_events
FNDA:1,_RNvNtNtCskawk3OBxN8e_14smith_protocol6client5testss_30test_smith_client_send_command
FNDA:1,_RNvNtNtCskawk3OBxN8e_14smith_protocol6client5testss_31test_concurrent_command_sending
FNDA:1,_RNvNtNtCskawk3OBxN8e_14smith_protocol6client5testss_31test_connection_write_and_flush
FNDA:1,_RNvNtNtCskawk3OBxN8e_14smith_protocol6client5testss_32test_smith_client_receive_events
FNDA:1,_RNvNtNtCskawk3OBxN8e_14smith_protocol6client5testss_32test_smith_client_tcp_connection
FNDA:1,_RNvNtNtCskawk3OBxN8e_14smith_protocol6client5testss_33test_smith_client_unix_connection
FNDA:1,_RNvNtNtCskawk3OBxN8e_14smith_protocol6client5testss_34test_connection_tcp_error_handling
FNDA:1,_RNvNtNtCskawk3OBxN8e_14smith_protocol6client5testss_35test_connection_unix_error_handling
FNDA:1,_RNvNtNtCskawk3OBxN8e_14smith_protocol6client5testss_35test_tcp_connection_write_and_flush
FNDA:1,_RNvNtNtCskawk3OBxN8e_14smith_protocol6client5testss_37test_command_serialization_edge_cases
FNDA:1,_RNvNtNtCskawk3OBxN8e_14smith_protocol6client5testss_47test_smith_client_from_connection_task_spawning
FNDA:1,_RNvNtNtCskawk3OBxN8e_14smith_protocol6client5testss_59test_smith_client_receive_single_event_with_closed_receiver
FNDA:0,_RNCNCNCNvNtNtCskawk3OBxN8e_14smith_protocol6client5testss_30test_ipc_client_process_events000Bb_
FNDA:0,_RNCNCNvNtNtCskawk3OBxN8e_14smith_protocol6client5testss_30test_ipc_client_process_events00B9_
FNDA:1,_RNCNCNvNtNtCskawk3OBxN8e_14smith_protocol6client5testss_26test_ipc_client_connection00B9_
FNDA:10,_RNCNCNvNtNtCskawk3OBxN8e_14smith_protocol6client5testss_31test_concurrent_command_sending00B9_
FNDA:1,_RNCNCNvNtNtCskawk3OBxN8e_14smith_protocol6client5testss_32test_smith_client_tcp_connection00B9_
FNDA:1,_RNCNCNvNtNtCskawk3OBxN8e_14smith_protocol6client5testss_33test_smith_client_unix_connection00B9_
FNDA:1,_RNCNvNtNtCskawk3OBxN8e_14smith_protocol6client5testss_21test_command_variants0B7_
FNDA:1,_RNCNvNtNtCskawk3OBxN8e_14smith_protocol6client5testss_26test_ipc_client_connection0B7_
FNDA:1,_RNCNvNtNtCskawk3OBxN8e_14smith_protocol6client5testss_28test_ipc_client_send_command0B7_
FNDA:1,_RNCNvNtNtCskawk3OBxN8e_14smith_protocol6client5testss_29test_ipc_client_connect_error0B7_
FNDA:1,_RNCNvNtNtCskawk3OBxN8e_14smith_protocol6client5testss_30test_connection_error_contexts0B7_
FNDA:1,_RNCNvNtNtCskawk3OBxN8e_14smith_protocol6client5testss_30test_ipc_client_process_events0B7_
FNDA:1,_RNCNvNtNtCskawk3OBxN8e_14smith_protocol6client5testss_30test_smith_client_send_command0B7_
FNDA:1,_RNCNvNtNtCskawk3OBxN8e_14smith_protocol6client5testss_31test_concurrent_command_sending0B7_
FNDA:1,_RNCNvNtNtCskawk3OBxN8e_14smith_protocol6client5testss_31test_connection_write_and_flush0B7_
FNDA:1,_RNCNvNtNtCskawk3OBxN8e_14smith_protocol6client5testss_32test_smith_client_receive_events0B7_
FNDA:1,_RNCNvNtNtCskawk3OBxN8e_14smith_protocol6client5testss_32test_smith_client_tcp_connection0B7_
FNDA:1,_RNCNvNtNtCskawk3OBxN8e_14smith_protocol6client5testss_33test_smith_client_unix_connection0B7_
FNDA:1,_RNCNvNtNtCskawk3OBxN8e_14smith_protocol6client5testss_34test_connection_tcp_error_handling0B7_
FNDA:1,_RNCNvNtNtCskawk3OBxN8e_14smith_protocol6client5testss_35test_connection_unix_error_handling0B7_
FNDA:1,_RNCNvNtNtCskawk3OBxN8e_14smith_protocol6client5testss_35test_tcp_connection_write_and_flush0B7_
FNDA:1,_RNCNvNtNtCskawk3OBxN8e_14smith_protocol6client5testss_37test_command_serialization_edge_cases0B7_
FNDA:1,_RNCNvNtNtCskawk3OBxN8e_14smith_protocol6client5testss_47test_smith_client_from_connection_task_spawning0B7_
FNDA:1,_RNCNvNtNtCskawk3OBxN8e_14smith_protocol6client5testss_59test_smith_client_receive_single_event_with_closed_receiver0B7_
FNDA:1,_RINvMs0_NtCskawk3OBxN8e_14smith_protocol6clientNtB6_11SmithClient12connect_unixRNtNtCs8Ty2CzGA6U3_5alloc6string6StringEB8_
FNDA:1,_RINvMs0_NtCskawk3OBxN8e_14smith_protocol6clientNtB6_11SmithClient12connect_unixReEB8_
FNDA:1,_RINvMs_NtCskawk3OBxN8e_14smith_protocol6clientNtB5_9IpcClient14process_eventsNCNCNvNtB5_5testss_30test_ipc_client_process_events00NCNCB1f_00EB7_
FNDA:1,_RINvMs_NtCskawk3OBxN8e_14smith_protocol6clientNtB5_9IpcClient7connectRNtNtCs8Ty2CzGA6U3_5alloc6string6StringEB7_
FNDA:1,_RINvMs_NtCskawk3OBxN8e_14smith_protocol6clientNtB5_9IpcClient7connectReEB7_
FNDA:1,_RNCINvMs0_NtCskawk3OBxN8e_14smith_protocol6clientNtB8_11SmithClient12connect_unixRNtNtCs8Ty2CzGA6U3_5alloc6string6StringE0Ba_
FNDA:1,_RNCINvMs0_NtCskawk3OBxN8e_14smith_protocol6clientNtB8_11SmithClient12connect_unixReE0Ba_
FNDA:1,_RNCINvMs_NtCskawk3OBxN8e_14smith_protocol6clientNtB7_9IpcClient14process_eventsNCNCNvNtB7_5testss_30test_ipc_client_process_events00NCNCB1h_00E0B9_
FNDA:1,_RNCINvMs_NtCskawk3OBxN8e_14smith_protocol6clientNtB7_9IpcClient7connectRNtNtCs8Ty2CzGA6U3_5alloc6string6StringE0B9_
FNDA:1,_RNCINvMs_NtCskawk3OBxN8e_14smith_protocol6clientNtB7_9IpcClient7connectReE0B9_
FNDA:0,_RNCNCNvMs0_NtCskawk3OBxN8e_14smith_protocol6clientNtB9_11SmithClient13receive_event00Bb_
FNDA:1,_RNCNCNvMs0_NtCskawk3OBxN8e_14smith_protocol6clientNtB9_11SmithClient15from_connection00Bb_
FNDA:1,_RNCNCNvMs0_NtCskawk3OBxN8e_14smith_protocol6clientNtB9_11SmithClient15from_connection0s_0Bb_
FNDA:3,_RNCNvMNtCskawk3OBxN8e_14smith_protocol6clientNtB4_10Connection5flush0B6_
FNDA:5,_RNCNvMNtCskawk3OBxN8e_14smith_protocol6clientNtB4_10Connection9write_all0B6_
FNDA:3,_RNCNvMs0_NtCskawk3OBxN8e_14smith_protocol6clientNtB7_11SmithClient11connect_tcp0B9_
FNDA:12,_RNCNvMs0_NtCskawk3OBxN8e_14smith_protocol6clientNtB7_11SmithClient12send_command0B9_
FNDA:1,_RNCNvMs0_NtCskawk3OBxN8e_14smith_protocol6clientNtB7_11SmithClient13receive_event0B9_
FNDA:1,_RNCNvMs0_NtCskawk3OBxN8e_14smith_protocol6clientNtB7_11SmithClient14receive_events0B9_
FNDA:7,_RNCNvMs0_NtCskawk3OBxN8e_14smith_protocol6clientNtB7_11SmithClient15from_connection0B9_
FNDA:1,_RNCNvMs_NtCskawk3OBxN8e_14smith_protocol6clientNtB6_9IpcClient12send_command0B8_
FNF:67
FNH:64
DA:20,5
DA:21,5
DA:22,4
DA:23,1
DA:25,4
DA:27,3
DA:28,3
DA:29,2
DA:30,1
DA:32,3
DA:48,2
DA:49,2
DA:50,2
DA:51,2
DA:53,1
DA:55,1
DA:56,1
DA:57,1
DA:58,2
DA:61,1
DA:62,1
DA:64,1
DA:65,1
DA:66,1
DA:67,1
DA:68,1
DA:69,1
DA:70,1
DA:71,1
DA:72,1
DA:73,1
DA:74,1
DA:75,1
DA:76,1
DA:78,1
DA:79,1
DA:80,1
DA:83,1
DA:84,1
DA:85,1
DA:86,1
DA:87,1
DA:89,1
DA:90,1
DA:91,1
DA:96,3
DA:97,3
DA:98,3
DA:99,3
DA:101,1
DA:102,1
DA:103,3
DA:106,2
DA:107,2
DA:108,2
DA:109,2
DA:111,1
DA:112,1
DA:113,2
DA:116,7
DA:117,7
DA:118,7
DA:121,7
DA:122,7
DA:124,7
DA:125,1
DA:126,1
DA:127,1
DA:128,0
DA:129,0
DA:130,0
DA:134,1
DA:135,1
DA:136,0
DA:137,0
DA:138,0
DA:139,0
DA:140,0
DA:141,0
DA:142,0
DA:143,0
DA:144,0
DA:145,0
DA:146,0
DA:148,0
DA:150,0
DA:154,7
DA:158,1
DA:163,7
DA:164,7
DA:165,7
DA:166,7
DA:167,7
DA:170,12
DA:171,12
DA:172,12
DA:173,12
DA:174,12
DA:175,12
DA:176,12
DA:179,1
DA:180,1
DA:183,1
DA:184,1
DA:185,0
DA:186,0
DA:187,0
DA:189,1
DA:190,1
DA:193,1
DA:194,1
DA:195,0
DA:196,0
DA:197,0
DA:198,0
DA:200,1
DA:202,1
DA:214,1
DA:216,1
DA:217,1
DA:219,1
DA:220,1
DA:221,1
DA:222,1
DA:225,1
DA:227,1
DA:228,1
DA:231,1
DA:232,1
DA:234,1
DA:235,1
DA:236,1
DA:237,1
DA:240,1
DA:242,1
DA:245,1
DA:248,1
DA:250,1
DA:251,0
DA:253,1
DA:254,1
DA:257,1
DA:258,1
DA:261,1
DA:263,1
DA:264,1
DA:265,1
DA:266,1
DA:268,1
DA:269,1
DA:270,1
DA:271,1
DA:273,1
DA:274,1
DA:275,1
DA:278,1
DA:279,1
DA:280,1
DA:281,1
DA:282,1
DA:285,1
DA:286,0
DA:287,0
DA:289,1
DA:290,1
DA:291,1
DA:294,1
DA:296,1
DA:297,1
DA:300,1
DA:301,1
DA:302,0
DA:304,1
DA:305,1
DA:306,1
DA:309,1
DA:310,1
DA:313,1
DA:315,1
DA:316,1
DA:317,0
DA:319,1
DA:320,1
DA:323,1
DA:324,1
DA:327,1
DA:328,1
DA:329,1
DA:331,1
DA:332,1
DA:333,1
DA:334,1
DA:335,1
DA:336,1
DA:338,1
DA:339,1
DA:340,1
DA:343,1
DA:344,1
DA:345,1
DA:348,1
DA:349,1
DA:350,1
DA:353,1
DA:354,1
DA:355,1
DA:359,1
DA:360,1
DA:364,1
DA:365,1
DA:366,1
DA:367,1
DA:370,1
DA:372,1
DA:373,1
DA:374,1
DA:375,1
DA:376,1
DA:377,1
DA:378,1
DA:379,1
DA:380,1
DA:381,1
DA:382,1
DA:383,1
DA:384,1
DA:385,1
DA:386,1
DA:387,1
DA:388,1
DA:389,1
DA:390,1
DA:391,1
DA:392,1
DA:393,1
DA:394,1
DA:395,1
DA:396,1
DA:397,1
DA:398,1
DA:399,1
DA:400,1
DA:401,1
DA:404,7
DA:405,6
DA:406,6
DA:407,1
DA:408,1
DA:409,6
DA:410,1
DA:411,1
DA:412,1
DA:413,1
DA:414,1
DA:415,1
DA:416,1
DA:417,1
DA:418,1
DA:419,1
DA:420,1
DA:421,1
DA:422,1
DA:423,1
DA:424,1
DA:425,1
DA:426,1
DA:427,1
DA:428,1
DA:429,1
DA:432,1
DA:434,1
DA:435,1
DA:436,1
DA:439,1
DA:441,1
DA:442,1
DA:443,1
DA:444,1
DA:447,1
DA:449,1
DA:450,1
DA:451,1
DA:452,1
DA:453,1
DA:454,1
DA:455,1
DA:456,1
DA:457,1
DA:460,1
DA:462,1
DA:463,1
DA:464,1
DA:467,1
DA:468,1
DA:469,1
DA:470,1
DA:471,1
DA:472,1
DA:473,1
DA:474,1
DA:477,1
DA:479,1
DA:480,1
DA:482,1
DA:483,1
DA:486,1
DA:487,1
DA:488,1
DA:489,1
DA:492,1
DA:494,1
DA:495,1
DA:496,1
DA:498,1
DA:499,1
DA:501,1
DA:502,1
DA:503,1
DA:504,1
DA:505,1
DA:506,1
DA:507,1
DA:508,1
DA:510,1
DA:511,1
DA:513,1
DA:514,1
DA:515,1
DA:516,1
DA:517,1
DA:518,1
DA:519,1
DA:520,1
DA:521,1
DA:524,1
DA:526,1
DA:527,1
DA:529,1
DA:531,11
DA:532,10
DA:533,10
DA:534,10
DA:535,10
DA:536,10
DA:537,10
DA:538,10
DA:539,10
DA:540,10
DA:541,10
DA:542,1
DA:543,1
DA:544,1
DA:545,11
DA:546,10
DA:547,1
DA:548,1
BRF:0
BRH:0
LF:451
LH:416
end_of_record
SF:/home/nathan/Projects/smith/shared/smith-protocol/src/idempotency.rs
FN:330,_RNvNtNtCskawk3OBxN8e_14smith_protocol11idempotency7helpers17check_idempotency
FN:53,_RNvMNtCskawk3OBxN8e_14smith_protocol11idempotencyNtB2_14IdempotencyKey11into_string
FN:79,_RNvMNtCskawk3OBxN8e_14smith_protocol11idempotencyNtB2_14IdempotencyKey12context_hint
FN:91,_RNvXs0_NtCskawk3OBxN8e_14smith_protocol11idempotencyNtNtCs8Ty2CzGA6U3_5alloc6string6StringINtNtCs66KPHxksi63_4core7convert4FromNtB5_14IdempotencyKeyE4from
FN:239,_RNvXs3_NtCskawk3OBxN8e_14smith_protocol11idempotencyNtB5_24InMemoryIdempotencyStoreNtNtCs66KPHxksi63_4core7default7Default7default
FN:58,_RNvMNtCskawk3OBxN8e_14smith_protocol11idempotencyNtB2_14IdempotencyKey11from_string
FN:36,_RNvMNtCskawk3OBxN8e_14smith_protocol11idempotencyNtB2_14IdempotencyKey20from_intent_metadata
FN:48,_RNvMNtCskawk3OBxN8e_14smith_protocol11idempotencyNtB2_14IdempotencyKey6as_str
FN:23,_RNvMNtCskawk3OBxN8e_14smith_protocol11idempotencyNtB2_14IdempotencyKey8generate
FN:181,_RNvMs1_NtCskawk3OBxN8e_14smith_protocol11idempotencyNtB5_16IdempotentResult10is_expired
FN:186,_RNvMs1_NtCskawk3OBxN8e_14smith_protocol11idempotencyNtB5_16IdempotentResult16increment_access
FN:159,_RNvMs1_NtCskawk3OBxN8e_14smith_protocol11idempotencyNtB5_16IdempotentResult5error
FN:141,_RNvMs1_NtCskawk3OBxN8e_14smith_protocol11idempotencyNtB5_16IdempotentResult7success
FN:229,_RNvMs2_NtCskawk3OBxN8e_14smith_protocol11idempotencyNtB5_24InMemoryIdempotencyStore3new
FN:85,_RNvXs_NtCskawk3OBxN8e_14smith_protocol11idempotencyNtB4_14IdempotencyKeyNtNtCs66KPHxksi63_4core3fmt7Display3fmt
FN:256,_RNvXsk_NtCskawk3OBxN8e_14smith_protocol11idempotencyNtB5_24InMemoryIdempotencyStoreNtB5_16IdempotencyStore10get_result
FN:246,_RNvXsk_NtCskawk3OBxN8e_14smith_protocol11idempotencyNtB5_24InMemoryIdempotencyStoreNtB5_16IdempotencyStore13upsert_result
FN:271,_RNvXsk_NtCskawk3OBxN8e_14smith_protocol11idempotencyNtB5_24InMemoryIdempotencyStoreNtB5_16IdempotencyStore15cleanup_expired
FN:289,_RNvXsk_NtCskawk3OBxN8e_14smith_protocol11idempotencyNtB5_24InMemoryIdempotencyStoreNtB5_16IdempotencyStore5stats
FN:341,_RINvNtNtCskawk3OBxN8e_14smith_protocol11idempotency7helpers18execute_idempotentNtNtCs8Ty2CzGA6U3_5alloc6string6StringNCNCNvNtB4_5testss_24test_idempotency_helpers00NCNCB1T_00EB6_
FN:341,_RINvNtNtCskawk3OBxN8e_14smith_protocol11idempotency7helpers18execute_idempotentNtNtCs8Ty2CzGA6U3_5alloc6string6StringNCNCNvNtB4_5testss_34test_execute_idempotent_error_case00NCNCB1T_00EB6_
FN:351,_RNCINvNtNtCskawk3OBxN8e_14smith_protocol11idempotency7helpers18execute_idempotentNtNtCs8Ty2CzGA6U3_5alloc6string6StringNCNCNvNtB6_5testss_24test_idempotency_helpers00NCNCB1V_00E0B8_
FN:351,_RNCINvNtNtCskawk3OBxN8e_14smith_protocol11idempotency7helpers18execute_idempotentNtNtCs8Ty2CzGA6U3_5alloc6string6StringNCNCNvNtB6_5testss_34test_execute_idempotent_error_case00NCNCB1V_00E0B8_
FN:333,_RNCNvNtNtCskawk3OBxN8e_14smith_protocol11idempotency7helpers17check_idempotency0B7_
FN:466,_RNvNtNtCskawk3OBxN8e_14smith_protocol11idempotency5testss_20test_cleanup_expired
FN:496,_RNvNtNtCskawk3OBxN8e_14smith_protocol11idempotency5testss_24test_idempotency_helpers
FN:658,_RNvNtNtCskawk3OBxN8e_14smith_protocol11idempotency5testss_28test_idempotency_error_types
FN:404,_RNvNtNtCskawk3OBxN8e_14smith_protocol11idempotency5testss_28test_idempotency_key_parsing
FN:697,_RNvNtNtCskawk3OBxN8e_14smith_protocol11idempotency5testss_31test_get_result_nonexistent_key
FN:378,_RNvNtNtCskawk3OBxN8e_14smith_protocol11idempotency5testss_31test_idempotency_key_generation
FN:395,_RNvNtNtCskawk3OBxN8e_14smith_protocol11idempotency5testss_32test_idempotency_key_from_intent
FN:574,_RNvNtNtCskawk3OBxN8e_14smith_protocol11idempotency5testss_32test_idempotency_stats_with_data
FN:418,_RNvNtNtCskawk3OBxN8e_14smith_protocol11idempotency5testss_32test_in_memory_idempotency_store
FN:450,_RNvNtNtCskawk3OBxN8e_14smith_protocol11idempotency5testss_33test_idempotent_result_expiration
FN:605,_RNvNtNtCskawk3OBxN8e_14smith_protocol11idempotency5testss_34test_execute_idempotent_error_case
FN:563,_RNvNtNtCskawk3OBxN8e_14smith_protocol11idempotency5testss_34test_idempotency_stats_empty_store
FN:643,_RNvNtNtCskawk3OBxN8e_14smith_protocol11idempotency5testss_35test_idempotent_result_debug_format
FN:706,_RNvNtNtCskawk3OBxN8e_14smith_protocol11idempotency5testss_36test_idempotency_key_parsing_invalid
FN:714,_RNvNtNtCskawk3OBxN8e_14smith_protocol11idempotency5testss_36test_idempotency_stats_serialization
FN:676,_RNvNtNtCskawk3OBxN8e_14smith_protocol11idempotency5testss_39test_upsert_result_returns_correct_bool
FN:530,_RNvNtNtCskawk3OBxN8e_14smith_protocol11idempotency5testss_46test_idempotent_execution_result_serialization
FN:512,_RNCNCNCNvNtNtCskawk3OBxN8e_14smith_protocol11idempotency5testss_24test_idempotency_helpers000Bb_
FN:617,_RNCNCNCNvNtNtCskawk3OBxN8e_14smith_protocol11idempotency5testss_34test_execute_idempotent_error_case000Bb_
FN:512,_RNCNCNvNtNtCskawk3OBxN8e_14smith_protocol11idempotency5testss_24test_idempotency_helpers00B9_
FN:617,_RNCNCNvNtNtCskawk3OBxN8e_14smith_protocol11idempotency5testss_34test_execute_idempotent_error_case00B9_
FN:466,_RNCNvNtNtCskawk3OBxN8e_14smith_protocol11idempotency5testss_20test_cleanup_expired0B7_
FN:496,_RNCNvNtNtCskawk3OBxN8e_14smith_protocol11idempotency5testss_24test_idempotency_helpers0B7_
FN:697,_RNCNvNtNtCskawk3OBxN8e_14smith_protocol11idempotency5testss_31test_get_result_nonexistent_key0B7_
FN:574,_RNCNvNtNtCskawk3OBxN8e_14smith_protocol11idempotency5testss_32test_idempotency_stats_with_data0B7_
FN:418,_RNCNvNtNtCskawk3OBxN8e_14smith_protocol11idempotency5testss_32test_in_memory_idempotency_store0B7_
FN:450,_RNCNvNtNtCskawk3OBxN8e_14smith_protocol11idempotency5testss_33test_idempotent_result_expiration0B7_
FN:605,_RNCNvNtNtCskawk3OBxN8e_14smith_protocol11idempotency5testss_34test_execute_idempotent_error_case0B7_
FN:563,_RNCNvNtNtCskawk3OBxN8e_14smith_protocol11idempotency5testss_34test_idempotency_stats_empty_store0B7_
FN:676,_RNCNvNtNtCskawk3OBxN8e_14smith_protocol11idempotency5testss_39test_upsert_result_returns_correct_bool0B7_
FN:293,_RNCNCNvXsk_NtCskawk3OBxN8e_14smith_protocol11idempotencyNtB9_24InMemoryIdempotencyStoreNtB9_16IdempotencyStore5stats00Bb_
FN:309,_RNCNCNvXsk_NtCskawk3OBxN8e_14smith_protocol11idempotencyNtB9_24InMemoryIdempotencyStoreNtB9_16IdempotencyStore5stats0s0_0Bb_
FN:297,_RNCNCNvXsk_NtCskawk3OBxN8e_14smith_protocol11idempotencyNtB9_24InMemoryIdempotencyStoreNtB9_16IdempotencyStore5stats0s_0Bb_
FN:70,_RNCNvMNtCskawk3OBxN8e_14smith_protocol11idempotencyNtB4_14IdempotencyKey11from_string0B6_
FNDA:3,_RNvNtNtCskawk3OBxN8e_14smith_protocol11idempotency7helpers17check_idempotency
FNDA:0,_RNvMNtCskawk3OBxN8e_14smith_protocol11idempotencyNtB2_14IdempotencyKey11into_string
FNDA:0,_RNvMNtCskawk3OBxN8e_14smith_protocol11idempotencyNtB2_14IdempotencyKey12context_hint
FNDA:0,_RNvXs0_NtCskawk3OBxN8e_14smith_protocol11idempotencyNtNtCs8Ty2CzGA6U3_5alloc6string6StringINtNtCs66KPHxksi63_4core7convert4FromNtB5_14IdempotencyKeyE4from
FNDA:0,_RNvXs3_NtCskawk3OBxN8e_14smith_protocol11idempotencyNtB5_24InMemoryIdempotencyStoreNtNtCs66KPHxksi63_4core7default7Default7default
FNDA:5,_RNvMNtCskawk3OBxN8e_14smith_protocol11idempotencyNtB2_14IdempotencyKey11from_string
FNDA:1,_RNvMNtCskawk3OBxN8e_14smith_protocol11idempotencyNtB2_14IdempotencyKey20from_intent_metadata
FNDA:4,_RNvMNtCskawk3OBxN8e_14smith_protocol11idempotencyNtB2_14IdempotencyKey6as_str
FNDA:16,_RNvMNtCskawk3OBxN8e_14smith_protocol11idempotencyNtB2_14IdempotencyKey8generate
FNDA:10,_RNvMs1_NtCskawk3OBxN8e_14smith_protocol11idempotencyNtB5_16IdempotentResult10is_expired
FNDA:3,_RNvMs1_NtCskawk3OBxN8e_14smith_protocol11idempotencyNtB5_16IdempotentResult16increment_access
FNDA:1,_RNvMs1_NtCskawk3OBxN8e_14smith_protocol11idempotencyNtB5_16IdempotentResult5error
FNDA:9,_RNvMs1_NtCskawk3OBxN8e_14smith_protocol11idempotencyNtB5_16IdempotentResult7success
FNDA:8,_RNvMs2_NtCskawk3OBxN8e_14smith_protocol11idempotencyNtB5_24InMemoryIdempotencyStore3new
FNDA:1,_RNvXs_NtCskawk3OBxN8e_14smith_protocol11idempotencyNtB4_14IdempotencyKeyNtNtCs66KPHxksi63_4core3fmt7Display3fmt
FNDA:7,_RNvXsk_NtCskawk3OBxN8e_14smith_protocol11idempotencyNtB5_24InMemoryIdempotencyStoreNtB5_16IdempotencyStore10get_result
FNDA:10,_RNvXsk_NtCskawk3OBxN8e_14smith_protocol11idempotencyNtB5_24InMemoryIdempotencyStoreNtB5_16IdempotencyStore13upsert_result
FNDA:1,_RNvXsk_NtCskawk3OBxN8e_14smith_protocol11idempotencyNtB5_24InMemoryIdempotencyStoreNtB5_16IdempotencyStore15cleanup_expired
FNDA:4,_RNvXsk_NtCskawk3OBxN8e_14smith_protocol11idempotencyNtB5_24InMemoryIdempotencyStoreNtB5_16IdempotencyStore5stats
FNDA:1,_RINvNtNtCskawk3OBxN8e_14smith_protocol11idempotency7helpers18execute_idempotentNtNtCs8Ty2CzGA6U3_5alloc6string6StringNCNCNvNtB4_5testss_24test_idempotency_helpers00NCNCB1T_00EB6_
FNDA:1,_RINvNtNtCskawk3OBxN8e_14smith_protocol11idempotency7helpers18execute_idempotentNtNtCs8Ty2CzGA6U3_5alloc6string6StringNCNCNvNtB4_5testss_34test_execute_idempotent_error_case00NCNCB1T_00EB6_
FNDA:1,_RNCINvNtNtCskawk3OBxN8e_14smith_protocol11idempotency7helpers18execute_idempotentNtNtCs8Ty2CzGA6U3_5alloc6string6StringNCNCNvNtB6_5testss_24test_idempotency_helpers00NCNCB1V_00E0B8_
FNDA:1,_RNCINvNtNtCskawk3OBxN8e_14smith_protocol11idempotency7helpers18execute_idempotentNtNtCs8Ty2CzGA6U3_5alloc6string6StringNCNCNvNtB6_5testss_34test_execute_idempotent_error_case00NCNCB1V_00E0B8_
FNDA:3,_RNCNvNtNtCskawk3OBxN8e_14smith_protocol11idempotency7helpers17check_idempotency0B7_
FNDA:1,_RNvNtNtCskawk3OBxN8e_14smith_protocol11idempotency5testss_20test_cleanup_expired
FNDA:1,_RNvNtNtCskawk3OBxN8e_14smith_protocol11idempotency5testss_24test_idempotency_helpers
FNDA:1,_RNvNtNtCskawk3OBxN8e_14smith_protocol11idempotency5testss_28test_idempotency_error_types
FNDA:1,_RNvNtNtCskawk3OBxN8e_14smith_protocol11idempotency5testss_28test_idempotency_key_parsing
FNDA:1,_RNvNtNtCskawk3OBxN8e_14smith_protocol11idempotency5testss_31test_get_result_nonexistent_key
FNDA:1,_RNvNtNtCskawk3OBxN8e_14smith_protocol11idempotency5testss_31test_idempotency_key_generation
FNDA:1,_RNvNtNtCskawk3OBxN8e_14smith_protocol11idempotency5testss_32test_idempotency_key_from_intent
FNDA:1,_RNvNtNtCskawk3OBxN8e_14smith_protocol11idempotency5testss_32test_idempotency_stats_with_data
FNDA:1,_RNvNtNtCskawk3OBxN8e_14smith_protocol11idempotency5testss_32test_in_memory_idempotency_store
FNDA:1,_RNvNtNtCskawk3OBxN8e_14smith_protocol11idempotency5testss_33test_idempotent_result_expiration
FNDA:1,_RNvNtNtCskawk3OBxN8e_14smith_protocol11idempotency5testss_34test_execute_idempotent_error_case
FNDA:1,_RNvNtNtCskawk3OBxN8e_14smith_protocol11idempotency5testss_34test_idempotency_stats_empty_store
FNDA:1,_RNvNtNtCskawk3OBxN8e_14smith_protocol11idempotency5testss_35test_idempotent_result_debug_format
FNDA:1,_RNvNtNtCskawk3OBxN8e_14smith_protocol11idempotency5testss_36test_idempotency_key_parsing_invalid
FNDA:1,_RNvNtNtCskawk3OBxN8e_14smith_protocol11idempotency5testss_36test_idempotency_stats_serialization
FNDA:1,_RNvNtNtCskawk3OBxN8e_14smith_protocol11idempotency5testss_39test_upsert_result_returns_correct_bool
FNDA:1,_RNvNtNtCskawk3OBxN8e_14smith_protocol11idempotency5testss_46test_idempotent_execution_result_serialization
FNDA:1,_RNCNCNCNvNtNtCskawk3OBxN8e_14smith_protocol11idempotency5testss_24test_idempotency_helpers000Bb_
FNDA:1,_RNCNCNCNvNtNtCskawk3OBxN8e_14smith_protocol11idempotency5testss_34test_execute_idempotent_error_case000Bb_
FNDA:1,_RNCNCNvNtNtCskawk3OBxN8e_14smith_protocol11idempotency5testss_24test_idempotency_helpers00B9_
FNDA:1,_RNCNCNvNtNtCskawk3OBxN8e_14smith_protocol11idempotency5testss_34test_execute_idempotent_error_case00B9_
FNDA:1,_RNCNvNtNtCskawk3OBxN8e_14smith_protocol11idempotency5testss_20test_cleanup_expired0B7_
FNDA:1,_RNCNvNtNtCskawk3OBxN8e_14smith_protocol11idempotency5testss_24test_idempotency_helpers0B7_
FNDA:1,_RNCNvNtNtCskawk3OBxN8e_14smith_protocol11idempotency5testss_31test_get_result_nonexistent_key0B7_
FNDA:1,_RNCNvNtNtCskawk3OBxN8e_14smith_protocol11idempotency5testss_32test_idempotency_stats_with_data0B7_
FNDA:1,_RNCNvNtNtCskawk3OBxN8e_14smith_protocol11idempotency5testss_32test_in_memory_idempotency_store0B7_
FNDA:1,_RNCNvNtNtCskawk3OBxN8e_14smith_protocol11idempotency5testss_33test_idempotent_result_expiration0B7_
FNDA:1,_RNCNvNtNtCskawk3OBxN8e_14smith_protocol11idempotency5testss_34test_execute_idempotent_error_case0B7_
FNDA:1,_RNCNvNtNtCskawk3OBxN8e_14smith_protocol11idempotency5testss_34test_idempotency_stats_empty_store0B7_
FNDA:1,_RNCNvNtNtCskawk3OBxN8e_14smith_protocol11idempotency5testss_39test_upsert_result_returns_correct_bool0B7_
FNDA:4,_RNCNCNvXsk_NtCskawk3OBxN8e_14smith_protocol11idempotencyNtB9_24InMemoryIdempotencyStoreNtB9_16IdempotencyStore5stats00Bb_
FNDA:4,_RNCNCNvXsk_NtCskawk3OBxN8e_14smith_protocol11idempotencyNtB9_24InMemoryIdempotencyStoreNtB9_16IdempotencyStore5stats0s0_0Bb_
FNDA:4,_RNCNCNvXsk_NtCskawk3OBxN8e_14smith_protocol11idempotencyNtB9_24InMemoryIdempotencyStoreNtB9_16IdempotencyStore5stats0s_0Bb_
FNDA:16,_RNCNvMNtCskawk3OBxN8e_14smith_protocol11idempotencyNtB4_14IdempotencyKey11from_string0B6_
FNF:56
FNH:52
DA:23,16
DA:24,16
DA:25,16
DA:26,16
DA:27,16
DA:28,16
DA:29,16
DA:31,16
DA:32,16
DA:33,16
DA:36,1
DA:37,1
DA:38,1
DA:39,1
DA:40,1
DA:41,1
DA:42,1
DA:43,1
DA:44,1
DA:45,1
DA:48,4
DA:49,4
DA:50,4
DA:53,0
DA:54,0
DA:55,0
DA:58,5
DA:59,5
DA:60,2
DA:61,3
DA:63,3
DA:65,2
DA:66,1
DA:69,1
DA:70,16
DA:71,0
DA:72,1
DA:74,1
DA:75,5
DA:79,0
DA:80,0
DA:81,0
DA:85,1
DA:86,1
DA:87,1
DA:91,0
DA:92,0
DA:93,0
DA:141,9
DA:142,9
DA:143,9
DA:144,9
DA:145,9
DA:146,9
DA:147,9
DA:148,9
DA:149,9
DA:150,9
DA:151,9
DA:152,9
DA:153,9
DA:154,9
DA:155,9
DA:156,9
DA:159,1
DA:160,1
DA:161,1
DA:162,1
DA:163,1
DA:164,1
DA:165,1
DA:166,1
DA:167,1
DA:168,1
DA:169,1
DA:170,1
DA:171,1
DA:172,1
DA:173,1
DA:174,1
DA:175,1
DA:176,1
DA:177,1
DA:178,1
DA:181,10
DA:182,10
DA:183,10
DA:186,3
DA:187,3
DA:188,3
DA:229,8
DA:230,8
DA:231,8
DA:232,8
DA:233,8
DA:234,8
DA:235,8
DA:239,0
DA:240,0
DA:241,0
DA:246,10
DA:251,10
DA:256,7
DA:269,7
DA:271,1
DA:287,1
DA:289,4
DA:293,4
DA:297,4
DA:309,4
DA:322,4
DA:330,3
DA:331,3
DA:332,3
DA:333,3
DA:334,3
DA:335,2
DA:336,1
DA:337,1
DA:338,3
DA:341,2
DA:342,2
DA:343,2
DA:344,2
DA:345,2
DA:346,2
DA:347,2
DA:348,2
DA:349,2
DA:350,2
DA:351,2
DA:353,2
DA:354,0
DA:355,2
DA:358,2
DA:359,1
DA:360,1
DA:361,1
DA:366,2
DA:368,2
DA:369,2
DA:378,1
DA:379,1
DA:380,1
DA:381,1
DA:384,1
DA:387,1
DA:390,1
DA:391,1
DA:392,1
DA:395,1
DA:396,1
DA:397,1
DA:399,1
DA:400,1
DA:401,1
DA:404,1
DA:405,1
DA:406,1
DA:408,1
DA:409,1
DA:412,1
DA:413,1
DA:414,1
DA:415,1
DA:418,1
DA:419,1
DA:420,1
DA:421,1
DA:422,1
DA:423,1
DA:424,1
DA:429,1
DA:430,1
DA:433,1
DA:434,1
DA:435,1
DA:436,1
DA:437,1
DA:440,1
DA:441,1
DA:444,1
DA:445,1
DA:446,1
DA:447,1
DA:450,1
DA:451,1
DA:452,1
DA:453,1
DA:454,1
DA:455,1
DA:460,1
DA:462,1
DA:463,1
DA:466,1
DA:467,1
DA:468,1
DA:469,1
DA:472,1
DA:473,1
DA:474,1
DA:475,1
DA:478,1
DA:480,1
DA:481,1
DA:483,1
DA:484,1
DA:487,1
DA:488,1
DA:491,1
DA:492,1
DA:493,1
DA:496,1
DA:499,1
DA:500,1
DA:503,1
DA:504,1
DA:507,1
DA:508,1
DA:509,1
DA:510,1
DA:512,2
DA:514,1
DA:515,1
DA:517,1
DA:518,1
DA:519,1
DA:521,0
DA:525,1
DA:526,1
DA:527,1
DA:530,1
DA:531,1
DA:532,1
DA:533,1
DA:534,1
DA:535,1
DA:538,1
DA:539,1
DA:540,1
DA:542,1
DA:543,1
DA:544,1
DA:546,0
DA:549,1
DA:550,1
DA:551,1
DA:553,1
DA:554,1
DA:555,1
DA:556,1
DA:558,0
DA:560,1
DA:563,1
DA:564,1
DA:565,1
DA:567,1
DA:568,1
DA:569,1
DA:570,1
DA:571,1
DA:574,1
DA:575,1
DA:576,1
DA:577,1
DA:579,1
DA:580,1
DA:581,1
DA:582,1
DA:585,1
DA:587,1
DA:588,1
DA:589,1
DA:590,1
DA:594,1
DA:595,1
DA:597,1
DA:598,1
DA:599,1
DA:600,1
DA:601,1
DA:602,1
DA:605,1
DA:608,1
DA:609,1
DA:612,1
DA:613,1
DA:614,1
DA:615,1
DA:617,2
DA:619,1
DA:620,1
DA:622,1
DA:623,1
DA:624,1
DA:625,1
DA:627,0
DA:631,1
DA:632,1
DA:633,1
DA:634,1
DA:635,1
DA:636,1
DA:637,1
DA:638,1
DA:639,1
DA:640,1
DA:643,1
DA:644,1
DA:645,1
DA:646,1
DA:647,1
DA:648,1
DA:652,1
DA:653,1
DA:654,1
DA:655,1
DA:658,1
DA:659,1
DA:660,1
DA:661,1
DA:662,1
DA:665,1
DA:666,1
DA:667,1
DA:668,1
DA:671,1
DA:672,1
DA:673,1
DA:676,1
DA:677,1
DA:678,1
DA:680,1
DA:681,1
DA:682,1
DA:683,1
DA:688,1
DA:689,1
DA:692,1
DA:693,1
DA:694,1
DA:697,1
DA:698,1
DA:699,1
DA:701,1
DA:702,1
DA:703,1
DA:706,1
DA:708,1
DA:709,1
DA:710,1
DA:711,1
DA:714,1
DA:715,1
DA:716,1
DA:717,1
DA:718,1
DA:719,1
DA:720,1
DA:722,1
DA:723,1
DA:725,1
DA:726,1
DA:727,1
DA:728,1
DA:729,1
BRF:0
BRH:0
LF:392
LH:372
end_of_record
SF:/home/nathan/Projects/smith/shared/smith-protocol/src/lib.rs
FN:360,_RNvMs1_Cskawk3OBxN8e_14smith_protocolNtB5_6Intent16verify_signature
FN:316,_RNvMs0_Cskawk3OBxN8e_14smith_protocolNtB5_10Capability16all_capabilities
FN:329,_RNvMs0_Cskawk3OBxN8e_14smith_protocolNtB5_10Capability19is_valid_capability
FN:302,_RNvMs0_Cskawk3OBxN8e_14smith_protocolNtB5_10Capability23parse_capability_string
FN:427,_RNvMs2_Cskawk3OBxN8e_14smith_protocolNtB5_14RunnerMetadata5empty
FN:745,_RNvMs3_Cskawk3OBxN8e_14smith_protocolNtB5_6Intent10is_expired
FN:715,_RNvMs3_Cskawk3OBxN8e_14smith_protocolNtB5_6Intent14canonical_json
FN:702,_RNvMs3_Cskawk3OBxN8e_14smith_protocolNtB5_6Intent14generate_nonce
FN:762,_RNvMs3_Cskawk3OBxN8e_14smith_protocolNtB5_6Intent14result_subject
FN:697,_RNvMs3_Cskawk3OBxN8e_14smith_protocolNtB5_6Intent18generate_intent_id
FN:752,_RNvMs3_Cskawk3OBxN8e_14smith_protocolNtB5_6Intent18ttl_as_nanoseconds
FN:722,_RNvMs3_Cskawk3OBxN8e_14smith_protocolNtB5_6Intent20create_unsigned_copy
FN:707,_RNvMs3_Cskawk3OBxN8e_14smith_protocolNtB5_6Intent20current_timestamp_ns
FN:672,_RNvMs3_Cskawk3OBxN8e_14smith_protocolNtB5_6Intent3new
FN:757,_RNvMs3_Cskawk3OBxN8e_14smith_protocolNtB5_6Intent7subject
FN:838,_RNvMs4_Cskawk3OBxN8e_14smith_protocolNtB5_12IntentResult13create_result
FN:790,_RNvMs4_Cskawk3OBxN8e_14smith_protocolNtB5_12IntentResult5error
FN:817,_RNvMs4_Cskawk3OBxN8e_14smith_protocolNtB5_12IntentResult6denied
FN:769,_RNvMs4_Cskawk3OBxN8e_14smith_protocolNtB5_12IntentResult7success
FN:279,_RNvXCskawk3OBxN8e_14smith_protocolNtB2_10CapabilityNtNtCs66KPHxksi63_4core3fmt7Display3fmt
FN:295,_RNvXs_Cskawk3OBxN8e_14smith_protocolNtB4_10CapabilityNtNtNtCs66KPHxksi63_4core3str6traits7FromStr8from_str
FN:1023,_RNvNtCskawk3OBxN8e_14smith_protocol5testss_19test_fs_read_params
FN:890,_RNvNtCskawk3OBxN8e_14smith_protocol5testss_20test_intent_creation
FN:908,_RNvNtCskawk3OBxN8e_14smith_protocol5testss_20test_intent_subjects
FN:1198,_RNvNtCskawk3OBxN8e_14smith_protocol5testss_20test_runner_metadata
FN:1039,_RNvNtCskawk3OBxN8e_14smith_protocol5testss_22test_http_fetch_params
FN:925,_RNvNtCskawk3OBxN8e_14smith_protocol5testss_22test_intent_expiration
FN:877,_RNvNtCskawk3OBxN8e_14smith_protocol5testss_24test_capability_from_str
FN:1061,_RNvNtCskawk3OBxN8e_14smith_protocol5testss_26test_audit_entry_structure
FN:948,_RNvNtCskawk3OBxN8e_14smith_protocol5testss_26test_intent_canonical_json
FN:1224,_RNvNtCskawk3OBxN8e_14smith_protocol5testss_26test_sandbox_mode_variants
FN:967,_RNvNtCskawk3OBxN8e_14smith_protocol5testss_27test_intent_result_creation
FN:1243,_RNvNtCskawk3OBxN8e_14smith_protocol5testss_27test_policy_result_variants
FN:1100,_RNvNtCskawk3OBxN8e_14smith_protocol5testss_28test_all_capability_variants
FN:867,_RNvNtCskawk3OBxN8e_14smith_protocol5testss_29test_capability_serialization
FN:1178,_RNvNtCskawk3OBxN8e_14smith_protocol5testss_30test_execution_error_structure
FN:1156,_RNvNtCskawk3OBxN8e_14smith_protocol5testss_30test_execution_status_variants
FN:1262,_RNvNtCskawk3OBxN8e_14smith_protocol5testss_30test_policy_decision_structure
FN:1128,_RNvNtCskawk3OBxN8e_14smith_protocol5testss_32test_capability_all_capabilities
FN:1143,_RNvNtCskawk3OBxN8e_14smith_protocol5testss_35test_capability_is_valid_capability
FN:1279,_RNvNtCskawk3OBxN8e_14smith_protocol5testss_35test_security_context_comprehensive
FN:1331,_RNvNtCskawk3OBxN8e_14smith_protocol5testss_37test_intent_result_timeout_and_killed
FN:729,_RINvMs3_Cskawk3OBxN8e_14smith_protocolNtB6_6Intent14sort_json_keysBA_EB6_
FN:738,_RNCINvMs3_Cskawk3OBxN8e_14smith_protocolNtB8_6Intent14sort_json_keysBC_E0B8_
FNDA:0,_RNvMs1_Cskawk3OBxN8e_14smith_protocolNtB5_6Intent16verify_signature
FNDA:7,_RNvMs0_Cskawk3OBxN8e_14smith_protocolNtB5_10Capability16all_capabilities
FNDA:6,_RNvMs0_Cskawk3OBxN8e_14smith_protocolNtB5_10Capability19is_valid_capability
FNDA:10,_RNvMs0_Cskawk3OBxN8e_14smith_protocolNtB5_10Capability23parse_capability_string
FNDA:3,_RNvMs2_Cskawk3OBxN8e_14smith_protocolNtB5_14RunnerMetadata5empty
FNDA:2,_RNvMs3_Cskawk3OBxN8e_14smith_protocolNtB5_6Intent10is_expired
FNDA:1,_RNvMs3_Cskawk3OBxN8e_14smith_protocolNtB5_6Intent14canonical_json
FNDA:4,_RNvMs3_Cskawk3OBxN8e_14smith_protocolNtB5_6Intent14generate_nonce
FNDA:1,_RNvMs3_Cskawk3OBxN8e_14smith_protocolNtB5_6Intent14result_subject
FNDA:4,_RNvMs3_Cskawk3OBxN8e_14smith_protocolNtB5_6Intent18generate_intent_id
FNDA:2,_RNvMs3_Cskawk3OBxN8e_14smith_protocolNtB5_6Intent18ttl_as_nanoseconds
FNDA:1,_RNvMs3_Cskawk3OBxN8e_14smith_protocolNtB5_6Intent20create_unsigned_copy
FNDA:7,_RNvMs3_Cskawk3OBxN8e_14smith_protocolNtB5_6Intent20current_timestamp_ns
FNDA:4,_RNvMs3_Cskawk3OBxN8e_14smith_protocolNtB5_6Intent3new
FNDA:1,_RNvMs3_Cskawk3OBxN8e_14smith_protocolNtB5_6Intent7subject
FNDA:5,_RNvMs4_Cskawk3OBxN8e_14smith_protocolNtB5_12IntentResult13create_result
FNDA:1,_RNvMs4_Cskawk3OBxN8e_14smith_protocolNtB5_12IntentResult5error
FNDA:1,_RNvMs4_Cskawk3OBxN8e_14smith_protocolNtB5_12IntentResult6denied
FNDA:1,_RNvMs4_Cskawk3OBxN8e_14smith_protocolNtB5_12IntentResult7success
FNDA:8,_RNvXCskawk3OBxN8e_14smith_protocolNtB2_10CapabilityNtNtCs66KPHxksi63_4core3fmt7Display3fmt
FNDA:10,_RNvXs_Cskawk3OBxN8e_14smith_protocolNtB4_10CapabilityNtNtNtCs66KPHxksi63_4core3str6traits7FromStr8from_str
FNDA:1,_RNvNtCskawk3OBxN8e_14smith_protocol5testss_19test_fs_read_params
FNDA:1,_RNvNtCskawk3OBxN8e_14smith_protocol5testss_20test_intent_creation
FNDA:1,_RNvNtCskawk3OBxN8e_14smith_protocol5testss_20test_intent_subjects
FNDA:1,_RNvNtCskawk3OBxN8e_14smith_protocol5testss_20test_runner_metadata
FNDA:1,_RNvNtCskawk3OBxN8e_14smith_protocol5testss_22test_http_fetch_params
FNDA:1,_RNvNtCskawk3OBxN8e_14smith_protocol5testss_22test_intent_expiration
FNDA:1,_RNvNtCskawk3OBxN8e_14smith_protocol5testss_24test_capability_from_str
FNDA:1,_RNvNtCskawk3OBxN8e_14smith_protocol5testss_26test_audit_entry_structure
FNDA:1,_RNvNtCskawk3OBxN8e_14smith_protocol5testss_26test_intent_canonical_json
FNDA:1,_RNvNtCskawk3OBxN8e_14smith_protocol5testss_26test_sandbox_mode_variants
FNDA:1,_RNvNtCskawk3OBxN8e_14smith_protocol5testss_27test_intent_result_creation
FNDA:1,_RNvNtCskawk3OBxN8e_14smith_protocol5testss_27test_policy_result_variants
FNDA:1,_RNvNtCskawk3OBxN8e_14smith_protocol5testss_28test_all_capability_variants
FNDA:1,_RNvNtCskawk3OBxN8e_14smith_protocol5testss_29test_capability_serialization
FNDA:1,_RNvNtCskawk3OBxN8e_14smith_protocol5testss_30test_execution_error_structure
FNDA:1,_RNvNtCskawk3OBxN8e_14smith_protocol5testss_30test_execution_status_variants
FNDA:1,_RNvNtCskawk3OBxN8e_14smith_protocol5testss_30test_policy_decision_structure
FNDA:1,_RNvNtCskawk3OBxN8e_14smith_protocol5testss_32test_capability_all_capabilities
FNDA:1,_RNvNtCskawk3OBxN8e_14smith_protocol5testss_35test_capability_is_valid_capability
FNDA:1,_RNvNtCskawk3OBxN8e_14smith_protocol5testss_35test_security_context_comprehensive
FNDA:1,_RNvNtCskawk3OBxN8e_14smith_protocol5testss_37test_intent_result_timeout_and_killed
FNDA:1,_RINvMs3_Cskawk3OBxN8e_14smith_protocolNtB6_6Intent14sort_json_keysBA_EB6_
FNDA:8,_RNCINvMs3_Cskawk3OBxN8e_14smith_protocolNtB8_6Intent14sort_json_keysBC_E0B8_
FNF:44
FNH:43
DA:279,8
DA:280,8
DA:281,1
DA:282,2
DA:283,1
DA:284,1
DA:285,1
DA:286,1
DA:287,1
DA:289,8
DA:295,10
DA:296,10
DA:297,10
DA:302,10
DA:303,10
DA:304,10
DA:305,8
DA:306,6
DA:307,5
DA:308,4
DA:309,3
DA:310,2
DA:311,1
DA:313,10
DA:316,7
DA:317,7
DA:318,7
DA:319,7
DA:320,7
DA:321,7
DA:322,7
DA:323,7
DA:324,7
DA:326,7
DA:329,6
DA:330,6
DA:331,6
DA:360,0
DA:363,0
DA:364,0
DA:427,3
DA:428,3
DA:429,3
DA:430,3
DA:431,3
DA:432,3
DA:433,3
DA:434,3
DA:672,4
DA:673,4
DA:674,4
DA:675,4
DA:676,4
DA:677,4
DA:678,4
DA:679,4
DA:680,4
DA:681,4
DA:683,4
DA:684,4
DA:685,4
DA:686,4
DA:687,4
DA:688,4
DA:689,4
DA:690,4
DA:691,4
DA:692,4
DA:693,4
DA:694,4
DA:697,4
DA:698,4
DA:699,4
DA:702,4
DA:703,4
DA:704,4
DA:707,7
DA:708,7
DA:709,7
DA:710,7
DA:711,7
DA:712,7
DA:715,1
DA:716,1
DA:717,1
DA:718,1
DA:719,1
DA:722,1
DA:723,1
DA:724,1
DA:725,1
DA:726,1
DA:729,1
DA:730,1
DA:731,1
DA:733,1
DA:735,1
DA:736,1
DA:737,1
DA:738,8
DA:739,1
DA:740,0
DA:741,1
DA:742,1
DA:745,2
DA:746,2
DA:747,2
DA:748,2
DA:749,2
DA:752,2
DA:753,2
DA:754,2
DA:757,1
DA:758,1
DA:759,1
DA:762,1
DA:763,1
DA:764,1
DA:769,1
DA:770,1
DA:771,1
DA:772,1
DA:773,1
DA:774,1
DA:775,1
DA:776,1
DA:777,1
DA:778,1
DA:779,1
DA:780,1
DA:781,1
DA:782,1
DA:783,1
DA:784,1
DA:785,1
DA:787,1
DA:790,1
DA:791,1
DA:792,1
DA:793,1
DA:794,1
DA:795,1
DA:796,1
DA:797,1
DA:798,1
DA:799,1
DA:800,1
DA:801,1
DA:802,1
DA:804,1
DA:805,1
DA:806,1
DA:807,1
DA:808,1
DA:809,1
DA:810,1
DA:811,1
DA:812,1
DA:814,1
DA:817,1
DA:818,1
DA:819,1
DA:820,1
DA:821,1
DA:822,1
DA:823,1
DA:825,1
DA:826,1
DA:827,1
DA:828,1
DA:829,1
DA:830,1
DA:831,1
DA:832,1
DA:833,1
DA:835,1
DA:838,5
DA:839,5
DA:840,5
DA:841,5
DA:842,5
DA:843,5
DA:844,5
DA:845,5
DA:846,5
DA:847,5
DA:848,5
DA:849,5
DA:850,5
DA:851,5
DA:852,5
DA:853,5
DA:854,5
DA:855,5
DA:856,5
DA:857,5
DA:858,5
DA:867,1
DA:868,1
DA:869,1
DA:870,1
DA:872,1
DA:873,1
DA:874,1
DA:877,1
DA:878,1
DA:879,1
DA:882,1
DA:883,1
DA:886,1
DA:887,1
DA:890,1
DA:891,1
DA:892,1
DA:893,1
DA:894,1
DA:896,1
DA:899,1
DA:900,1
DA:901,1
DA:902,1
DA:903,1
DA:904,1
DA:905,1
DA:908,1
DA:909,1
DA:910,1
DA:911,1
DA:912,1
DA:914,1
DA:917,1
DA:918,1
DA:919,1
DA:920,1
DA:922,1
DA:925,1
DA:926,1
DA:927,1
DA:928,1
DA:929,1
DA:931,1
DA:935,1
DA:938,1
DA:939,1
DA:940,1
DA:941,1
DA:942,1
DA:944,1
DA:945,1
DA:948,1
DA:949,1
DA:950,1
DA:951,1
DA:952,1
DA:954,1
DA:957,1
DA:960,1
DA:963,1
DA:964,1
DA:967,1
DA:968,1
DA:969,1
DA:970,1
DA:971,1
DA:972,1
DA:973,1
DA:974,1
DA:975,1
DA:978,1
DA:979,1
DA:980,1
DA:983,1
DA:984,1
DA:987,1
DA:988,1
DA:989,1
DA:990,1
DA:993,1
DA:994,1
DA:995,1
DA:996,1
DA:999,1
DA:1000,1
DA:1003,1
DA:1004,1
DA:1005,1
DA:1006,1
DA:1007,1
DA:1010,1
DA:1011,1
DA:1012,1
DA:1013,1
DA:1016,1
DA:1017,1
DA:1018,1
DA:1019,1
DA:1020,1
DA:1023,1
DA:1024,1
DA:1025,1
DA:1026,1
DA:1027,1
DA:1028,1
DA:1030,1
DA:1031,1
DA:1033,1
DA:1034,1
DA:1035,1
DA:1036,1
DA:1039,1
DA:1040,1
DA:1041,1
DA:1043,1
DA:1044,1
DA:1045,1
DA:1046,1
DA:1047,1
DA:1048,1
DA:1049,1
DA:1051,1
DA:1052,1
DA:1054,1
DA:1055,1
DA:1056,1
DA:1057,1
DA:1058,1
DA:1061,1
DA:1062,1
DA:1063,1
DA:1064,1
DA:1065,1
DA:1066,1
DA:1068,1
DA:1069,1
DA:1070,1
DA:1071,1
DA:1072,1
DA:1073,1
DA:1074,1
DA:1075,1
DA:1076,1
DA:1077,1
DA:1078,1
DA:1080,1
DA:1081,1
DA:1082,1
DA:1083,1
DA:1084,1
DA:1085,1
DA:1086,1
DA:1087,1
DA:1090,1
DA:1091,1
DA:1093,1
DA:1094,1
DA:1095,1
DA:1096,1
DA:1097,1
DA:1100,1
DA:1102,1
DA:1103,1
DA:1104,1
DA:1105,1
DA:1106,1
DA:1107,1
DA:1108,1
DA:1109,1
DA:1112,8
DA:1114,7
DA:1117,7
DA:1118,7
DA:1121,7
DA:1122,7
DA:1123,7
DA:1125,1
DA:1128,1
DA:1129,1
DA:1130,1
DA:1133,1
DA:1134,1
DA:1135,1
DA:1136,1
DA:1137,1
DA:1138,1
DA:1139,1
DA:1140,1
DA:1143,1
DA:1145,1
DA:1146,1
DA:1147,1
DA:1150,1
DA:1151,1
DA:1152,1
DA:1153,1
DA:1156,1
DA:1157,1
DA:1158,1
DA:1159,1
DA:1160,1
DA:1161,1
DA:1162,1
DA:1165,6
DA:1167,5
DA:1168,5
DA:1169,5
DA:1172,5
DA:1173,5
DA:1175,1
DA:1178,1
DA:1179,1
DA:1180,1
DA:1181,1
DA:1182,1
DA:1185,1
DA:1186,1
DA:1188,1
DA:1189,1
DA:1192,1
DA:1193,1
DA:1194,1
DA:1195,1
DA:1198,1
DA:1199,1
DA:1200,1
DA:1201,1
DA:1202,1
DA:1203,1
DA:1204,1
DA:1207,1
DA:1208,1
DA:1210,1
DA:1211,1
DA:1212,1
DA:1213,1
DA:1216,1
DA:1217,1
DA:1218,1
DA:1219,1
DA:1220,1
DA:1221,1
DA:1224,1
DA:1225,1
DA:1226,1
DA:1227,1
DA:1228,1
DA:1231,4
DA:1233,3
DA:1234,3
DA:1237,3
DA:1238,3
DA:1240,1
DA:1243,1
DA:1244,1
DA:1245,1
DA:1246,1
DA:1247,1
DA:1250,4
DA:1252,3
DA:1253,3
DA:1256,3
DA:1257,3
DA:1259,1
DA:1262,1
DA:1263,1
DA:1264,1
DA:1265,1
DA:1266,1
DA:1267,1
DA:1270,1
DA:1271,1
DA:1273,1
DA:1274,1
DA:1275,1
DA:1276,1
DA:1279,1
DA:1281,1
DA:1282,1
DA:1283,1
DA:1284,1
DA:1285,1
DA:1286,1
DA:1287,1
DA:1288,1
DA:1289,1
DA:1290,1
DA:1291,1
DA:1292,1
DA:1293,1
DA:1294,1
DA:1295,1
DA:1296,1
DA:1297,1
DA:1298,1
DA:1301,1
DA:1302,1
DA:1304,1
DA:1305,1
DA:1306,1
DA:1307,1
DA:1310,1
DA:1311,1
DA:1312,1
DA:1313,1
DA:1314,1
DA:1315,1
DA:1316,1
DA:1317,1
DA:1318,1
DA:1319,1
DA:1320,1
DA:1322,1
DA:1323,1
DA:1325,1
DA:1326,1
DA:1327,1
DA:1328,1
DA:1331,1
DA:1332,1
DA:1333,1
DA:1334,1
DA:1337,1
DA:1338,1
DA:1340,1
DA:1341,1
DA:1342,1
DA:1343,1
DA:1344,1
DA:1345,1
DA:1346,1
DA:1347,1
DA:1348,1
DA:1349,1
DA:1350,1
DA:1351,1
DA:1354,1
DA:1355,1
DA:1356,1
DA:1359,1
DA:1360,1
DA:1361,1
DA:1362,1
DA:1363,1
DA:1364,1
DA:1365,1
DA:1366,1
DA:1367,1
DA:1368,1
DA:1369,1
DA:1370,1
DA:1373,1
DA:1374,1
DA:1375,1
DA:1376,1
BRF:0
BRH:0
LF:554
LH:550
end_of_record
SF:/home/nathan/Projects/smith/shared/smith-protocol/src/negotiation.rs
FN:362,_RNvNtNtCskawk3OBxN8e_14smith_protocol11negotiation5testss_23test_negotiator_methods
FN:349,_RNvNtNtCskawk3OBxN8e_14smith_protocol11negotiation5testss_23test_protocol_constants
FN:257,_RNvNtNtCskawk3OBxN8e_14smith_protocol11negotiation5testss_24test_version_negotiation
FN:297,_RNvNtNtCskawk3OBxN8e_14smith_protocol11negotiation5testss_25test_capability_filtering
FN:384,_RNvNtNtCskawk3OBxN8e_14smith_protocol11negotiation5testss_25test_ready_event_creation
FN:283,_RNvNtNtCskawk3OBxN8e_14smith_protocol11negotiation5testss_26test_incompatible_versions
FN:408,_RNvNtNtCskawk3OBxN8e_14smith_protocol11negotiation5testss_27test_fallback_conditions_v0
FN:321,_RNvNtNtCskawk3OBxN8e_14smith_protocol11negotiation5testss_29test_capability_compatibility
FN:334,_RNvNtNtCskawk3OBxN8e_14smith_protocol11negotiation5testss_29test_use_case_recommendations
FN:542,_RNvNtNtCskawk3OBxN8e_14smith_protocol11negotiation5testss_31test_version_selection_priority
FN:527,_RNvNtNtCskawk3OBxN8e_14smith_protocol11negotiation5testss_33test_empty_requested_capabilities
FN:512,_RNvNtNtCskawk3OBxN8e_14smith_protocol11negotiation5testss_38test_empty_client_versions_negotiation
FN:447,_RNvNtNtCskawk3OBxN8e_14smith_protocol11negotiation5testss_41test_capability_compatibility_good_config
FN:435,_RNvNtNtCskawk3OBxN8e_14smith_protocol11negotiation5testss_41test_capability_compatibility_with_replay
FN:459,_RNvNtNtCskawk3OBxN8e_14smith_protocol11negotiation5testss_42test_use_case_recommendations_all_variants
FN:415,_RNvNtNtCskawk3OBxN8e_14smith_protocol11negotiation5testss_44test_fallback_conditions_unsupported_version
FN:423,_RNvNtNtCskawk3OBxN8e_14smith_protocol11negotiation5testss_50test_capability_compatibility_nats_without_tracing
FN:478,_RNvNtNtCskawk3OBxN8e_14smith_protocol11negotiation5testss_53test_client_info_and_negotiation_result_serialization
FN:114,_RNvMNtCskawk3OBxN8e_14smith_protocol11negotiationNtB2_18ProtocolNegotiator14select_version
FN:162,_RNvMNtCskawk3OBxN8e_14smith_protocol11negotiationNtB2_18ProtocolNegotiator18create_ready_event
FN:130,_RNvMNtCskawk3OBxN8e_14smith_protocol11negotiationNtB2_18ProtocolNegotiator19filter_capabilities
FN:176,_RNvMNtCskawk3OBxN8e_14smith_protocol11negotiationNtB2_18ProtocolNegotiator19supports_capability
FN:182,_RNvMNtCskawk3OBxN8e_14smith_protocol11negotiationNtB2_18ProtocolNegotiator20get_service_metadata
FN:139,_RNvMNtCskawk3OBxN8e_14smith_protocol11negotiationNtB2_18ProtocolNegotiator25check_fallback_conditions
FN:171,_RNvMNtCskawk3OBxN8e_14smith_protocol11negotiationNtB2_18ProtocolNegotiator26get_available_capabilities
FN:40,_RNvMNtCskawk3OBxN8e_14smith_protocol11negotiationNtB2_18ProtocolNegotiator3new
FN:83,_RNvMNtCskawk3OBxN8e_14smith_protocol11negotiationNtB2_18ProtocolNegotiator9negotiate
FN:192,_RNvMs_NtCskawk3OBxN8e_14smith_protocol11negotiationNtB4_17CapabilityChecker19check_compatibility
FN:224,_RNvMs_NtCskawk3OBxN8e_14smith_protocol11negotiationNtB4_17CapabilityChecker22recommend_capabilities
FN:443,_RNCNvNtNtCskawk3OBxN8e_14smith_protocol11negotiation5testss_41test_capability_compatibility_with_replay0B7_
FN:431,_RNCNvNtNtCskawk3OBxN8e_14smith_protocol11negotiation5testss_50test_capability_compatibility_nats_without_tracing0B7_
FN:133,_RNCNvMNtCskawk3OBxN8e_14smith_protocol11negotiationNtB4_18ProtocolNegotiator19filter_capabilities0B6_
FN:49,_RNCNvMNtCskawk3OBxN8e_14smith_protocol11negotiationNtB4_18ProtocolNegotiator3new0B6_
FN:53,_RNCNvMNtCskawk3OBxN8e_14smith_protocol11negotiationNtB4_18ProtocolNegotiator3news_0B6_
FNDA:1,_RNvNtNtCskawk3OBxN8e_14smith_protocol11negotiation5testss_23test_negotiator_methods
FNDA:1,_RNvNtNtCskawk3OBxN8e_14smith_protocol11negotiation5testss_23test_protocol_constants
FNDA:1,_RNvNtNtCskawk3OBxN8e_14smith_protocol11negotiation5testss_24test_version_negotiation
FNDA:1,_RNvNtNtCskawk3OBxN8e_14smith_protocol11negotiation5testss_25test_capability_filtering
FNDA:1,_RNvNtNtCskawk3OBxN8e_14smith_protocol11negotiation5testss_25test_ready_event_creation
FNDA:1,_RNvNtNtCskawk3OBxN8e_14smith_protocol11negotiation5testss_26test_incompatible_versions
FNDA:1,_RNvNtNtCskawk3OBxN8e_14smith_protocol11negotiation5testss_27test_fallback_conditions_v0
FNDA:1,_RNvNtNtCskawk3OBxN8e_14smith_protocol11negotiation5testss_29test_capability_compatibility
FNDA:1,_RNvNtNtCskawk3OBxN8e_14smith_protocol11negotiation5testss_29test_use_case_recommendations
FNDA:1,_RNvNtNtCskawk3OBxN8e_14smith_protocol11negotiation5testss_31test_version_selection_priority
FNDA:1,_RNvNtNtCskawk3OBxN8e_14smith_protocol11negotiation5testss_33test_empty_requested_capabilities
FNDA:1,_RNvNtNtCskawk3OBxN8e_14smith_protocol11negotiation5testss_38test_empty_client_versions_negotiation
FNDA:1,_RNvNtNtCskawk3OBxN8e_14smith_protocol11negotiation5testss_41test_capability_compatibility_good_config
FNDA:1,_RNvNtNtCskawk3OBxN8e_14smith_protocol11negotiation5testss_41test_capability_compatibility_with_replay
FNDA:1,_RNvNtNtCskawk3OBxN8e_14smith_protocol11negotiation5testss_42test_use_case_recommendations_all_variants
FNDA:1,_RNvNtNtCskawk3OBxN8e_14smith_protocol11negotiation5testss_44test_fallback_conditions_unsupported_version
FNDA:1,_RNvNtNtCskawk3OBxN8e_14smith_protocol11negotiation5testss_50test_capability_compatibility_nats_without_tracing
FNDA:1,_RNvNtNtCskawk3OBxN8e_14smith_protocol11negotiation5testss_53test_client_info_and_negotiation_result_serialization
FNDA:6,_RNvMNtCskawk3OBxN8e_14smith_protocol11negotiationNtB2_18ProtocolNegotiator14select_version
FNDA:1,_RNvMNtCskawk3OBxN8e_14smith_protocol11negotiationNtB2_18ProtocolNegotiator18create_ready_event
FNDA:4,_RNvMNtCskawk3OBxN8e_14smith_protocol11negotiationNtB2_18ProtocolNegotiator19filter_capabilities
FNDA:3,_RNvMNtCskawk3OBxN8e_14smith_protocol11negotiationNtB2_18ProtocolNegotiator19supports_capability
FNDA:1,_RNvMNtCskawk3OBxN8e_14smith_protocol11negotiationNtB2_18ProtocolNegotiator20get_service_metadata
FNDA:6,_RNvMNtCskawk3OBxN8e_14smith_protocol11negotiationNtB2_18ProtocolNegotiator25check_fallback_conditions
FNDA:1,_RNvMNtCskawk3OBxN8e_14smith_protocol11negotiationNtB2_18ProtocolNegotiator26get_available_capabilities
FNDA:10,_RNvMNtCskawk3OBxN8e_14smith_protocol11negotiationNtB2_18ProtocolNegotiator3new
FNDA:6,_RNvMNtCskawk3OBxN8e_14smith_protocol11negotiationNtB2_18ProtocolNegotiator9negotiate
FNDA:4,_RNvMs_NtCskawk3OBxN8e_14smith_protocol11negotiationNtB4_17CapabilityChecker19check_compatibility
FNDA:7,_RNvMs_NtCskawk3OBxN8e_14smith_protocol11negotiationNtB4_17CapabilityChecker22recommend_capabilities
FNDA:1,_RNCNvNtNtCskawk3OBxN8e_14smith_protocol11negotiation5testss_41test_capability_compatibility_with_replay0B7_
FNDA:1,_RNCNvNtNtCskawk3OBxN8e_14smith_protocol11negotiation5testss_50test_capability_compatibility_nats_without_tracing0B7_
FNDA:4,_RNCNvMNtCskawk3OBxN8e_14smith_protocol11negotiationNtB4_18ProtocolNegotiator19filter_capabilities0B6_
FNDA:10,_RNCNvMNtCskawk3OBxN8e_14smith_protocol11negotiationNtB4_18ProtocolNegotiator3new0B6_
FNDA:10,_RNCNvMNtCskawk3OBxN8e_14smith_protocol11negotiationNtB4_18ProtocolNegotiator3news_0B6_
FNF:34
FNH:34
DA:40,10
DA:41,10
DA:42,10
DA:43,10
DA:44,10
DA:46,10
DA:47,10
DA:48,10
DA:49,10
DA:51,10
DA:52,10
DA:53,10
DA:57,10
DA:58,10
DA:59,10
DA:60,10
DA:75,10
DA:76,10
DA:77,10
DA:78,10
DA:79,10
DA:80,10
DA:83,6
DA:85,6
DA:88,4
DA:91,4
DA:92,4
DA:95,4
DA:96,4
DA:97,4
DA:98,4
DA:100,4
DA:101,4
DA:102,4
DA:105,4
DA:106,4
DA:107,4
DA:108,4
DA:109,4
DA:110,4
DA:111,6
DA:114,6
DA:116,12
DA:117,10
DA:118,4
DA:119,6
DA:122,2
DA:123,2
DA:124,2
DA:125,2
DA:126,2
DA:127,6
DA:130,4
DA:131,4
DA:132,4
DA:133,4
DA:134,4
DA:135,4
DA:136,4
DA:139,6
DA:140,6
DA:145,2
DA:146,2
DA:147,2
DA:156,3
DA:157,1
DA:159,6
DA:162,1
DA:163,1
DA:164,1
DA:165,1
DA:166,1
DA:167,1
DA:168,1
DA:171,1
DA:172,1
DA:173,1
DA:176,3
DA:177,3
DA:178,3
DA:179,3
DA:182,1
DA:183,1
DA:184,1
DA:192,4
DA:193,4
DA:196,4
DA:197,4
DA:199,4
DA:200,1
DA:201,1
DA:202,3
DA:205,4
DA:206,4
DA:208,4
DA:209,1
DA:210,3
DA:213,4
DA:214,4
DA:215,1
DA:216,1
DA:217,1
DA:218,3
DA:220,4
DA:221,4
DA:224,7
DA:225,7
DA:226,7
DA:227,2
DA:228,2
DA:229,2
DA:230,2
DA:232,5
DA:233,2
DA:234,2
DA:235,2
DA:236,2
DA:238,3
DA:239,1
DA:240,1
DA:241,1
DA:243,2
DA:244,1
DA:245,1
DA:246,1
DA:249,7
DA:257,1
DA:258,1
DA:261,1
DA:262,1
DA:263,1
DA:264,1
DA:265,1
DA:266,1
DA:267,1
DA:268,1
DA:270,1
DA:273,1
DA:274,1
DA:275,1
DA:276,1
DA:277,1
DA:278,1
DA:279,1
DA:280,1
DA:283,1
DA:284,1
DA:286,1
DA:287,1
DA:288,1
DA:289,1
DA:290,1
DA:292,1
DA:293,1
DA:294,1
DA:297,1
DA:298,1
DA:300,1
DA:301,1
DA:302,1
DA:303,1
DA:304,1
DA:305,1
DA:306,1
DA:307,1
DA:309,1
DA:312,1
DA:313,1
DA:314,1
DA:315,1
DA:316,1
DA:317,1
DA:318,1
DA:321,1
DA:322,1
DA:323,1
DA:324,1
DA:325,1
DA:326,1
DA:329,1
DA:330,1
DA:331,1
DA:334,1
DA:335,1
DA:336,1
DA:339,1
DA:340,1
DA:343,1
DA:344,1
DA:345,1
DA:346,1
DA:349,1
DA:351,1
DA:352,1
DA:353,1
DA:356,1
DA:357,1
DA:358,1
DA:359,1
DA:362,1
DA:363,1
DA:364,1
DA:367,1
DA:368,1
DA:369,1
DA:372,1
DA:373,1
DA:374,1
DA:377,1
DA:378,1
DA:379,1
DA:380,1
DA:381,1
DA:384,1
DA:385,1
DA:386,1
DA:388,1
DA:389,1
DA:390,1
DA:391,1
DA:392,1
DA:393,1
DA:395,1
DA:397,1
DA:398,1
DA:399,1
DA:400,1
DA:401,1
DA:403,0
DA:405,1
DA:408,1
DA:409,1
DA:410,1
DA:411,1
DA:412,1
DA:415,1
DA:416,1
DA:417,1
DA:418,1
DA:419,1
DA:420,1
DA:423,1
DA:424,1
DA:425,1
DA:426,1
DA:427,1
DA:430,1
DA:431,1
DA:432,1
DA:435,1
DA:436,1
DA:437,1
DA:438,1
DA:439,1
DA:442,1
DA:443,1
DA:444,1
DA:447,1
DA:448,1
DA:449,1
DA:450,1
DA:451,1
DA:452,1
DA:455,1
DA:456,1
DA:459,1
DA:460,1
DA:461,1
DA:462,1
DA:463,1
DA:464,1
DA:465,1
DA:468,6
DA:469,5
DA:470,19
DA:471,14
DA:472,0
DA:475,1
DA:478,1
DA:480,1
DA:481,1
DA:483,1
DA:484,1
DA:485,1
DA:486,1
DA:487,1
DA:489,1
DA:490,1
DA:491,1
DA:492,1
DA:495,1
DA:496,1
DA:498,1
DA:499,1
DA:500,1
DA:501,1
DA:502,1
DA:503,1
DA:505,1
DA:506,1
DA:507,1
DA:508,1
DA:509,1
DA:512,1
DA:513,1
DA:515,1
DA:516,1
DA:517,1
DA:518,1
DA:519,1
DA:521,1
DA:522,1
DA:523,1
DA:524,1
DA:527,1
DA:528,1
DA:530,1
DA:531,1
DA:532,1
DA:533,1
DA:534,1
DA:536,1
DA:537,1
DA:538,1
DA:539,1
DA:542,1
DA:543,1
DA:546,1
DA:547,1
DA:548,1
DA:549,1
DA:550,1
DA:552,1
DA:554,1
DA:555,1
BRF:0
BRH:0
LF:340
LH:338
end_of_record
SF:/home/nathan/Projects/smith/shared/smith-protocol/src/policy_abi.rs
FN:77,_RNvXs_NtCskawk3OBxN8e_14smith_protocol10policy_abiNtB4_16PolicyAbiVersionNtNtCs66KPHxksi63_4core3fmt7Display3fmt
FN:387,_RNCNvNtNtCskawk3OBxN8e_14smith_protocol10policy_abi5testss_24test_abi_hash_generation0B7_
FN:234,_RNvXs1_NtCskawk3OBxN8e_14smith_protocol10policy_abiNtNtCs8Ty2CzGA6U3_5alloc6string6StringNtB5_22CapabilityBundleValidation26validate_abi_compatibility
FN:262,_RNvNtNtCskawk3OBxN8e_14smith_protocol10policy_abi5testss_20test_current_version
FN:378,_RNvNtNtCskawk3OBxN8e_14smith_protocol10policy_abi5testss_24test_abi_hash_generation
FN:360,_RNvNtNtCskawk3OBxN8e_14smith_protocol10policy_abi5testss_24test_missing_abi_version
FN:270,_RNvNtNtCskawk3OBxN8e_14smith_protocol10policy_abi5testss_26test_version_compatibility
FN:285,_RNvNtNtCskawk3OBxN8e_14smith_protocol10policy_abi5testss_27test_version_string_parsing
FN:407,_RNvNtNtCskawk3OBxN8e_14smith_protocol10policy_abi5testss_28test_bundle_validation_trait
FN:391,_RNvNtNtCskawk3OBxN8e_14smith_protocol10policy_abi5testss_29test_abi_stability_validation
FN:253,_RNvNtNtCskawk3OBxN8e_14smith_protocol10policy_abi5testss_32test_policy_abi_version_creation
FN:298,_RNvNtNtCskawk3OBxN8e_14smith_protocol10policy_abi5testss_33test_compatible_bundle_validation
FN:329,_RNvNtNtCskawk3OBxN8e_14smith_protocol10policy_abi5testss_35test_incompatible_bundle_validation
FN:428,_RNvNtNtCskawk3OBxN8e_14smith_protocol10policy_abi5testss_39test_capability_bundle_header_serialization
FN:64,_RNCNvMNtCskawk3OBxN8e_14smith_protocol10policy_abiNtB4_16PolicyAbiVersion19from_version_string0B6_
FN:70,_RNCNvMNtCskawk3OBxN8e_14smith_protocol10policy_abiNtB4_16PolicyAbiVersion19from_version_strings0_0B6_
FN:67,_RNCNvMNtCskawk3OBxN8e_14smith_protocol10policy_abiNtB4_16PolicyAbiVersion19from_version_strings_0B6_
FN:189,_RNCNvMs0_NtCskawk3OBxN8e_14smith_protocol10policy_abiNtB7_18PolicyAbiValidator19extract_abi_version0B9_
FN:150,_RNCNvMs0_NtCskawk3OBxN8e_14smith_protocol10policy_abiNtB7_18PolicyAbiValidator30validate_startup_compatibility0B9_
FN:170,_RNCNvMs0_NtCskawk3OBxN8e_14smith_protocol10policy_abiNtB7_18PolicyAbiValidator30validate_startup_compatibilitys_0B9_
FN:46,_RNvMNtCskawk3OBxN8e_14smith_protocol10policy_abiNtB2_16PolicyAbiVersion10is_current
FN:41,_RNvMNtCskawk3OBxN8e_14smith_protocol10policy_abiNtB2_16PolicyAbiVersion13is_compatible
FN:51,_RNvMNtCskawk3OBxN8e_14smith_protocol10policy_abiNtB2_16PolicyAbiVersion17to_version_string
FN:56,_RNvMNtCskawk3OBxN8e_14smith_protocol10policy_abiNtB2_16PolicyAbiVersion19from_version_string
FN:27,_RNvMNtCskawk3OBxN8e_14smith_protocol10policy_abiNtB2_16PolicyAbiVersion3new
FN:36,_RNvMNtCskawk3OBxN8e_14smith_protocol10policy_abiNtB2_16PolicyAbiVersion7current
FN:198,_RNvMs0_NtCskawk3OBxN8e_14smith_protocol10policy_abiNtB5_18PolicyAbiValidator17generate_abi_hash
FN:176,_RNvMs0_NtCskawk3OBxN8e_14smith_protocol10policy_abiNtB5_18PolicyAbiValidator19extract_abi_version
FN:215,_RNvMs0_NtCskawk3OBxN8e_14smith_protocol10policy_abiNtB5_18PolicyAbiValidator22validate_abi_stability
FN:145,_RNvMs0_NtCskawk3OBxN8e_14smith_protocol10policy_abiNtB5_18PolicyAbiValidator30validate_startup_compatibility
FN:241,_RNvXs2_NtCskawk3OBxN8e_14smith_protocol10policy_abiReNtB5_22CapabilityBundleValidation26validate_abi_compatibility
FNDA:0,_RNvXs_NtCskawk3OBxN8e_14smith_protocol10policy_abiNtB4_16PolicyAbiVersionNtNtCs66KPHxksi63_4core3fmt7Display3fmt
FNDA:64,_RNCNvNtNtCskawk3OBxN8e_14smith_protocol10policy_abi5testss_24test_abi_hash_generation0B7_
FNDA:1,_RNvXs1_NtCskawk3OBxN8e_14smith_protocol10policy_abiNtNtCs8Ty2CzGA6U3_5alloc6string6StringNtB5_22CapabilityBundleValidation26validate_abi_compatibility
FNDA:1,_RNvNtNtCskawk3OBxN8e_14smith_protocol10policy_abi5testss_20test_current_version
FNDA:1,_RNvNtNtCskawk3OBxN8e_14smith_protocol10policy_abi5testss_24test_abi_hash_generation
FNDA:1,_RNvNtNtCskawk3OBxN8e_14smith_protocol10policy_abi5testss_24test_missing_abi_version
FNDA:1,_RNvNtNtCskawk3OBxN8e_14smith_protocol10policy_abi5testss_26test_version_compatibility
FNDA:1,_RNvNtNtCskawk3OBxN8e_14smith_protocol10policy_abi5testss_27test_version_string_parsing
FNDA:1,_RNvNtNtCskawk3OBxN8e_14smith_protocol10policy_abi5testss_28test_bundle_validation_trait
FNDA:1,_RNvNtNtCskawk3OBxN8e_14smith_protocol10policy_abi5testss_29test_abi_stability_validation
FNDA:1,_RNvNtNtCskawk3OBxN8e_14smith_protocol10policy_abi5testss_32test_policy_abi_version_creation
FNDA:1,_RNvNtNtCskawk3OBxN8e_14smith_protocol10policy_abi5testss_33test_compatible_bundle_validation
FNDA:1,_RNvNtNtCskawk3OBxN8e_14smith_protocol10policy_abi5testss_35test_incompatible_bundle_validation
FNDA:1,_RNvNtNtCskawk3OBxN8e_14smith_protocol10policy_abi5testss_39test_capability_bundle_header_serialization
FNDA:0,_RNCNvMNtCskawk3OBxN8e_14smith_protocol10policy_abiNtB4_16PolicyAbiVersion19from_version_string0B6_
FNDA:0,_RNCNvMNtCskawk3OBxN8e_14smith_protocol10policy_abiNtB4_16PolicyAbiVersion19from_version_strings0_0B6_
FNDA:1,_RNCNvMNtCskawk3OBxN8e_14smith_protocol10policy_abiNtB4_16PolicyAbiVersion19from_version_strings_0B6_
FNDA:0,_RNCNvMs0_NtCskawk3OBxN8e_14smith_protocol10policy_abiNtB7_18PolicyAbiValidator19extract_abi_version0B9_
FNDA:0,_RNCNvMs0_NtCskawk3OBxN8e_14smith_protocol10policy_abiNtB7_18PolicyAbiValidator30validate_startup_compatibility0B9_
FNDA:0,_RNCNvMs0_NtCskawk3OBxN8e_14smith_protocol10policy_abiNtB7_18PolicyAbiValidator30validate_startup_compatibilitys_0B9_
FNDA:3,_RNvMNtCskawk3OBxN8e_14smith_protocol10policy_abiNtB2_16PolicyAbiVersion10is_current
FNDA:7,_RNvMNtCskawk3OBxN8e_14smith_protocol10policy_abiNtB2_16PolicyAbiVersion13is_compatible
FNDA:3,_RNvMNtCskawk3OBxN8e_14smith_protocol10policy_abiNtB2_16PolicyAbiVersion17to_version_string
FNDA:4,_RNvMNtCskawk3OBxN8e_14smith_protocol10policy_abiNtB2_16PolicyAbiVersion19from_version_string
FNDA:17,_RNvMNtCskawk3OBxN8e_14smith_protocol10policy_abiNtB2_16PolicyAbiVersion3new
FNDA:12,_RNvMNtCskawk3OBxN8e_14smith_protocol10policy_abiNtB2_16PolicyAbiVersion7current
FNDA:2,_RNvMs0_NtCskawk3OBxN8e_14smith_protocol10policy_abiNtB5_18PolicyAbiValidator17generate_abi_hash
FNDA:5,_RNvMs0_NtCskawk3OBxN8e_14smith_protocol10policy_abiNtB5_18PolicyAbiValidator19extract_abi_version
FNDA:2,_RNvMs0_NtCskawk3OBxN8e_14smith_protocol10policy_abiNtB5_18PolicyAbiValidator22validate_abi_stability
FNDA:5,_RNvMs0_NtCskawk3OBxN8e_14smith_protocol10policy_abiNtB5_18PolicyAbiValidator30validate_startup_compatibility
FNDA:1,_RNvXs2_NtCskawk3OBxN8e_14smith_protocol10policy_abiReNtB5_22CapabilityBundleValidation26validate_abi_compatibility
FNF:31
FNH:25
DA:27,17
DA:28,17
DA:29,17
DA:30,17
DA:31,17
DA:32,17
DA:33,17
DA:36,12
DA:37,12
DA:38,12
DA:41,7
DA:42,7
DA:43,7
DA:46,3
DA:47,3
DA:48,3
DA:51,3
DA:52,3
DA:53,3
DA:56,4
DA:57,4
DA:58,4
DA:59,2
DA:60,2
DA:62,2
DA:63,2
DA:64,2
DA:65,2
DA:66,2
DA:67,2
DA:68,1
DA:69,1
DA:70,1
DA:72,1
DA:73,4
DA:77,0
DA:78,0
DA:79,0
DA:145,5
DA:146,5
DA:147,5
DA:149,5
DA:150,5
DA:153,5
DA:156,4
DA:157,1
DA:158,1
DA:159,1
DA:160,1
DA:161,3
DA:164,3
DA:165,3
DA:166,3
DA:167,3
DA:168,3
DA:170,3
DA:172,3
DA:173,5
DA:176,5
DA:177,5
DA:178,5
DA:179,5
DA:180,5
DA:181,5
DA:183,4
DA:184,5
DA:185,5
DA:186,5
DA:187,4
DA:189,4
DA:191,4
DA:192,5
DA:198,2
DA:202,2
DA:203,2
DA:205,2
DA:209,2
DA:210,2
DA:211,2
DA:212,2
DA:215,2
DA:216,2
DA:217,1
DA:218,1
DA:219,1
DA:220,1
DA:221,1
DA:222,1
DA:223,2
DA:234,1
DA:235,1
DA:236,1
DA:237,1
DA:241,1
DA:242,1
DA:243,1
DA:244,1
DA:253,1
DA:254,1
DA:255,1
DA:256,1
DA:257,1
DA:258,1
DA:259,1
DA:262,1
DA:263,1
DA:264,1
DA:265,1
DA:266,1
DA:267,1
DA:270,1
DA:271,1
DA:272,1
DA:273,1
DA:275,1
DA:276,1
DA:277,1
DA:279,1
DA:280,1
DA:281,1
DA:282,1
DA:285,1
DA:286,1
DA:287,1
DA:288,1
DA:289,1
DA:292,1
DA:293,1
DA:294,1
DA:295,1
DA:298,1
DA:299,1
DA:300,1
DA:301,1
DA:302,1
DA:303,1
DA:304,1
DA:305,1
DA:306,1
DA:307,1
DA:308,1
DA:309,1
DA:310,1
DA:311,1
DA:314,1
DA:315,1
DA:316,1
DA:318,1
DA:320,1
DA:321,1
DA:323,1
DA:324,1
DA:325,1
DA:326,1
DA:329,1
DA:330,1
DA:331,1
DA:332,1
DA:333,1
DA:334,1
DA:335,1
DA:336,1
DA:337,1
DA:338,1
DA:342,1
DA:344,1
DA:345,1
DA:347,1
DA:349,1
DA:350,1
DA:352,1
DA:353,1
DA:355,0
DA:357,1
DA:360,1
DA:361,1
DA:362,1
DA:363,1
DA:367,1
DA:369,1
DA:370,1
DA:371,1
DA:372,1
DA:375,1
DA:378,1
DA:379,1
DA:380,1
DA:383,1
DA:386,1
DA:387,64
DA:388,1
DA:391,1
DA:392,1
DA:395,1
DA:398,1
DA:399,1
DA:400,1
DA:401,1
DA:404,1
DA:407,1
DA:408,1
DA:409,1
DA:410,1
DA:411,1
DA:412,1
DA:413,1
DA:414,1
DA:415,1
DA:416,1
DA:420,1
DA:423,1
DA:424,1
DA:425,1
DA:428,1
DA:429,1
DA:430,1
DA:431,1
DA:432,1
DA:433,1
DA:434,1
DA:435,1
DA:436,1
DA:437,1
DA:438,1
DA:439,1
DA:440,1
DA:441,1
DA:444,1
DA:445,1
DA:447,1
DA:448,1
DA:449,1
DA:450,1
BRF:0
BRH:0
LF:240
LH:231
end_of_record
SF:/home/nathan/Projects/smith/shared/smith-protocol/src/result_schema.rs
FN:60,_RNvMNtCskawk3OBxN8e_14smith_protocol13result_schemaNtB2_14ResultSchemaV13new
FN:96,_RNvMNtCskawk3OBxN8e_14smith_protocol13result_schemaNtB2_14ResultSchemaV18get_meta
FN:101,_RNvMNtCskawk3OBxN8e_14smith_protocol13result_schemaNtB2_14ResultSchemaV18validate
FN:90,_RNvMNtCskawk3OBxN8e_14smith_protocol13result_schemaNtB2_14ResultSchemaV19with_meta
FN:290,_RNvMs_NtCskawk3OBxN8e_14smith_protocol13result_schemaNtB4_21ResultSchemaValidator11schema_hash
FN:231,_RNvMs_NtCskawk3OBxN8e_14smith_protocol13result_schemaNtB4_21ResultSchemaValidator13validate_json
FN:278,_RNvMs_NtCskawk3OBxN8e_14smith_protocol13result_schemaNtB4_21ResultSchemaValidator28check_backward_compatibility
FN:159,_RNCNvMNtCskawk3OBxN8e_14smith_protocol13result_schemaNtB4_14ResultSchemaV18validate0B6_
FN:171,_RNCNvMNtCskawk3OBxN8e_14smith_protocol13result_schemaNtB4_14ResultSchemaV18validates_0B6_
FN:234,_RNCNvMs_NtCskawk3OBxN8e_14smith_protocol13result_schemaNtB6_21ResultSchemaValidator13validate_json0B8_
FN:264,_RNCNvMs_NtCskawk3OBxN8e_14smith_protocol13result_schemaNtB6_21ResultSchemaValidator13validate_jsons_0B8_
FN:391,_RNvNtNtCskawk3OBxN8e_14smith_protocol13result_schema5tests19create_valid_result
FN:586,_RNvNtNtCskawk3OBxN8e_14smith_protocol13result_schema5testss_16test_schema_hash
FN:556,_RNvNtNtCskawk3OBxN8e_14smith_protocol13result_schema5testss_22test_builder_functions
FN:418,_RNvNtNtCskawk3OBxN8e_14smith_protocol13result_schema5testss_25test_result_with_metadata
FN:408,_RNvNtNtCskawk3OBxN8e_14smith_protocol13result_schema5testss_26test_valid_result_creation
FN:499,_RNvNtNtCskawk3OBxN8e_14smith_protocol13result_schema5testss_28test_json_validation_success
FN:846,_RNvNtNtCskawk3OBxN8e_14smith_protocol13result_schema5testss_28test_schema_hash_consistency
FN:546,_RNvNtNtCskawk3OBxN8e_14smith_protocol13result_schema5testss_28test_serialization_roundtrip
FN:436,_RNvNtNtCskawk3OBxN8e_14smith_protocol13result_schema5testss_28test_validation_empty_fields
FN:454,_RNvNtNtCskawk3OBxN8e_14smith_protocol13result_schema5testss_28test_validation_invalid_mode
FN:445,_RNvNtNtCskawk3OBxN8e_14smith_protocol13result_schema5testss_29test_validation_invalid_layer
FN:731,_RNvNtNtCskawk3OBxN8e_14smith_protocol13result_schema5testss_29test_validation_invalid_modes
FN:640,_RNvNtNtCskawk3OBxN8e_14smith_protocol13result_schema5testss_30test_json_validation_malformed
FN:475,_RNvNtNtCskawk3OBxN8e_14smith_protocol13result_schema5testss_30test_validation_invalid_commit
FN:749,_RNvNtNtCskawk3OBxN8e_14smith_protocol13result_schema5testss_30test_validation_invalid_layers
FN:804,_RNvNtNtCskawk3OBxN8e_14smith_protocol13result_schema5testss_31test_result_metadata_operations
FN:786,_RNvNtNtCskawk3OBxN8e_14smith_protocol13result_schema5testss_32test_builder_error_empty_message
FN:616,_RNvNtNtCskawk3OBxN8e_14smith_protocol13result_schema5testss_32test_result_schema_error_display
FN:487,_RNvNtNtCskawk3OBxN8e_14smith_protocol13result_schema5testss_32test_validation_invalid_idem_key
FN:599,_RNvNtNtCskawk3OBxN8e_14smith_protocol13result_schema5testss_33test_backward_compatibility_check
FN:524,_RNvNtNtCskawk3OBxN8e_14smith_protocol13result_schema5testss_34test_json_validation_unknown_field
FN:767,_RNvNtNtCskawk3OBxN8e_14smith_protocol13result_schema5testss_37test_builder_success_with_zero_values
FN:463,_RNvNtNtCskawk3OBxN8e_14smith_protocol13result_schema5testss_37test_validation_invalid_capability_digest
FN:824,_RNvNtNtCskawk3OBxN8e_14smith_protocol13result_schema5testss_38test_json_round_trip_with_complex_meta
FN:658,_RNvNtNtCskawk3OBxN8e_14smith_protocol13result_schema5testss_38test_validation_invalid_commit_formats
FN:696,_RNvNtNtCskawk3OBxN8e_14smith_protocol13result_schema5testss_38test_validation_invalid_exp_id_formats
FN:711,_RNvNtNtCskawk3OBxN8e_14smith_protocol13result_schema5testss_40test_validation_invalid_idem_key_formats
FN:647,_RNvNtNtCskawk3OBxN8e_14smith_protocol13result_schema5testss_44test_json_validation_missing_required_fields
FN:677,_RNvNtNtCskawk3OBxN8e_14smith_protocol13result_schema5testss_45test_validation_invalid_capability_digest_formats
FN:336,_RNvNtNtCskawk3OBxN8e_14smith_protocol13result_schema8builders5error
FN:310,_RNvNtNtCskawk3OBxN8e_14smith_protocol13result_schema8builders7success
FN:273,_RNvMs_NtCskawk3OBxN8e_14smith_protocol13result_schemaNtB4_21ResultSchemaValidator15validate_struct
FN:362,_RNvNtNtCskawk3OBxN8e_14smith_protocol13result_schema8builders7timeout
FN:595,_RNCNvNtNtCskawk3OBxN8e_14smith_protocol13result_schema5testss_16test_schema_hash0B7_
FN:848,_RNCNvNtNtCskawk3OBxN8e_14smith_protocol13result_schema5testss_28test_schema_hash_consistency0B7_
FN:857,_RNCNvNtNtCskawk3OBxN8e_14smith_protocol13result_schema5testss_28test_schema_hash_consistencys_0B7_
FNDA:42,_RNvMNtCskawk3OBxN8e_14smith_protocol13result_schemaNtB2_14ResultSchemaV13new
FNDA:15,_RNvMNtCskawk3OBxN8e_14smith_protocol13result_schemaNtB2_14ResultSchemaV18get_meta
FNDA:40,_RNvMNtCskawk3OBxN8e_14smith_protocol13result_schemaNtB2_14ResultSchemaV18validate
FNDA:14,_RNvMNtCskawk3OBxN8e_14smith_protocol13result_schemaNtB2_14ResultSchemaV19with_meta
FNDA:12,_RNvMs_NtCskawk3OBxN8e_14smith_protocol13result_schemaNtB4_21ResultSchemaValidator11schema_hash
FNDA:6,_RNvMs_NtCskawk3OBxN8e_14smith_protocol13result_schemaNtB4_21ResultSchemaValidator13validate_json
FNDA:2,_RNvMs_NtCskawk3OBxN8e_14smith_protocol13result_schemaNtB4_21ResultSchemaValidator28check_backward_compatibility
FNDA:1345,_RNCNvMNtCskawk3OBxN8e_14smith_protocol13result_schemaNtB4_14ResultSchemaV18validate0B6_
FNDA:129,_RNCNvMNtCskawk3OBxN8e_14smith_protocol13result_schemaNtB4_14ResultSchemaV18validates_0B6_
FNDA:1,_RNCNvMs_NtCskawk3OBxN8e_14smith_protocol13result_schemaNtB6_21ResultSchemaValidator13validate_json0B8_
FNDA:1,_RNCNvMs_NtCskawk3OBxN8e_14smith_protocol13result_schemaNtB6_21ResultSchemaValidator13validate_jsons_0B8_
FNDA:38,_RNvNtNtCskawk3OBxN8e_14smith_protocol13result_schema5tests19create_valid_result
FNDA:1,_RNvNtNtCskawk3OBxN8e_14smith_protocol13result_schema5testss_16test_schema_hash
FNDA:1,_RNvNtNtCskawk3OBxN8e_14smith_protocol13result_schema5testss_22test_builder_functions
FNDA:1,_RNvNtNtCskawk3OBxN8e_14smith_protocol13result_schema5testss_25test_result_with_metadata
FNDA:1,_RNvNtNtCskawk3OBxN8e_14smith_protocol13result_schema5testss_26test_valid_result_creation
FNDA:1,_RNvNtNtCskawk3OBxN8e_14smith_protocol13result_schema5testss_28test_json_validation_success
FNDA:1,_RNvNtNtCskawk3OBxN8e_14smith_protocol13result_schema5testss_28test_schema_hash_consistency
FNDA:1,_RNvNtNtCskawk3OBxN8e_14smith_protocol13result_schema5testss_28test_serialization_roundtrip
FNDA:1,_RNvNtNtCskawk3OBxN8e_14smith_protocol13result_schema5testss_28test_validation_empty_fields
FNDA:1,_RNvNtNtCskawk3OBxN8e_14smith_protocol13result_schema5testss_28test_validation_invalid_mode
FNDA:1,_RNvNtNtCskawk3OBxN8e_14smith_protocol13result_schema5testss_29test_validation_invalid_layer
FNDA:1,_RNvNtNtCskawk3OBxN8e_14smith_protocol13result_schema5testss_29test_validation_invalid_modes
FNDA:1,_RNvNtNtCskawk3OBxN8e_14smith_protocol13result_schema5testss_30test_json_validation_malformed
FNDA:1,_RNvNtNtCskawk3OBxN8e_14smith_protocol13result_schema5testss_30test_validation_invalid_commit
FNDA:1,_RNvNtNtCskawk3OBxN8e_14smith_protocol13result_schema5testss_30test_validation_invalid_layers
FNDA:1,_RNvNtNtCskawk3OBxN8e_14smith_protocol13result_schema5testss_31test_result_metadata_operations
FNDA:1,_RNvNtNtCskawk3OBxN8e_14smith_protocol13result_schema5testss_32test_builder_error_empty_message
FNDA:1,_RNvNtNtCskawk3OBxN8e_14smith_protocol13result_schema5testss_32test_result_schema_error_display
FNDA:1,_RNvNtNtCskawk3OBxN8e_14smith_protocol13result_schema5testss_32test_validation_invalid_idem_key
FNDA:1,_RNvNtNtCskawk3OBxN8e_14smith_protocol13result_schema5testss_33test_backward_compatibility_check
FNDA:1,_RNvNtNtCskawk3OBxN8e_14smith_protocol13result_schema5testss_34test_json_validation_unknown_field
FNDA:1,_RNvNtNtCskawk3OBxN8e_14smith_protocol13result_schema5testss_37test_builder_success_with_zero_values
FNDA:1,_RNvNtNtCskawk3OBxN8e_14smith_protocol13result_schema5testss_37test_validation_invalid_capability_digest
FNDA:1,_RNvNtNtCskawk3OBxN8e_14smith_protocol13result_schema5testss_38test_json_round_trip_with_complex_meta
FNDA:1,_RNvNtNtCskawk3OBxN8e_14smith_protocol13result_schema5testss_38test_validation_invalid_commit_formats
FNDA:1,_RNvNtNtCskawk3OBxN8e_14smith_protocol13result_schema5testss_38test_validation_invalid_exp_id_formats
FNDA:1,_RNvNtNtCskawk3OBxN8e_14smith_protocol13result_schema5testss_40test_validation_invalid_idem_key_formats
FNDA:1,_RNvNtNtCskawk3OBxN8e_14smith_protocol13result_schema5testss_44test_json_validation_missing_required_fields
FNDA:1,_RNvNtNtCskawk3OBxN8e_14smith_protocol13result_schema5testss_45test_validation_invalid_capability_digest_formats
FNDA:2,_RNvNtNtCskawk3OBxN8e_14smith_protocol13result_schema8builders5error
FNDA:2,_RNvNtNtCskawk3OBxN8e_14smith_protocol13result_schema8builders7success
FNDA:0,_RNvMs_NtCskawk3OBxN8e_14smith_protocol13result_schemaNtB4_21ResultSchemaValidator15validate_struct
FNDA:0,_RNvNtNtCskawk3OBxN8e_14smith_protocol13result_schema8builders7timeout
FNDA:64,_RNCNvNtNtCskawk3OBxN8e_14smith_protocol13result_schema5testss_16test_schema_hash0B7_
FNDA:10,_RNCNvNtNtCskawk3OBxN8e_14smith_protocol13result_schema5testss_28test_schema_hash_consistency0B7_
FNDA:64,_RNCNvNtNtCskawk3OBxN8e_14smith_protocol13result_schema5testss_28test_schema_hash_consistencys_0B7_
FNF:47
FNH:45
DA:60,42
DA:61,42
DA:62,42
DA:63,42
DA:64,42
DA:65,42
DA:66,42
DA:67,42
DA:68,42
DA:69,42
DA:70,42
DA:71,42
DA:72,42
DA:73,42
DA:74,42
DA:75,42
DA:76,42
DA:77,42
DA:78,42
DA:79,42
DA:80,42
DA:81,42
DA:82,42
DA:83,42
DA:84,42
DA:85,42
DA:86,42
DA:87,42
DA:90,14
DA:91,14
DA:92,14
DA:93,14
DA:96,15
DA:97,15
DA:98,15
DA:101,40
DA:103,40
DA:104,1
DA:105,39
DA:106,39
DA:107,1
DA:108,1
DA:109,1
DA:110,38
DA:111,38
DA:112,1
DA:113,37
DA:114,37
DA:115,1
DA:116,36
DA:117,36
DA:118,0
DA:119,36
DA:120,36
DA:121,1
DA:122,35
DA:123,35
DA:124,1
DA:125,34
DA:126,34
DA:127,1
DA:128,1
DA:129,1
DA:130,33
DA:133,33
DA:134,4
DA:135,4
DA:136,4
DA:137,4
DA:138,4
DA:139,4
DA:140,4
DA:141,4
DA:142,4
DA:143,29
DA:145,29
DA:146,4
DA:147,4
DA:148,4
DA:149,4
DA:150,4
DA:151,4
DA:152,4
DA:153,4
DA:154,4
DA:155,25
DA:158,25
DA:159,1345
DA:161,5
DA:162,5
DA:163,5
DA:164,5
DA:165,5
DA:166,20
DA:169,20
DA:170,18
DA:171,129
DA:173,5
DA:174,5
DA:175,5
DA:176,5
DA:177,5
DA:178,15
DA:181,15
DA:182,6
DA:183,6
DA:184,6
DA:185,6
DA:186,6
DA:187,9
DA:189,9
DA:190,40
DA:231,6
DA:233,6
DA:234,6
DA:236,5
DA:238,5
DA:239,5
DA:240,5
DA:241,5
DA:242,5
DA:243,5
DA:244,5
DA:245,5
DA:246,5
DA:247,5
DA:248,5
DA:249,5
DA:250,5
DA:251,5
DA:253,49
DA:254,49
DA:255,1
DA:256,1
DA:257,1
DA:258,48
DA:260,0
DA:263,4
DA:264,4
DA:267,3
DA:269,3
DA:270,6
DA:273,0
DA:274,0
DA:275,0
DA:278,2
DA:279,2
DA:280,2
DA:281,2
DA:286,2
DA:287,2
DA:290,12
DA:294,12
DA:295,12
DA:299,12
DA:300,12
DA:301,12
DA:302,12
DA:310,2
DA:311,2
DA:312,2
DA:313,2
DA:314,2
DA:315,2
DA:316,2
DA:317,2
DA:318,2
DA:319,2
DA:320,2
DA:322,2
DA:323,2
DA:324,2
DA:325,2
DA:326,2
DA:327,2
DA:328,2
DA:329,2
DA:330,2
DA:331,2
DA:333,2
DA:336,2
DA:337,2
DA:338,2
DA:339,2
DA:340,2
DA:341,2
DA:342,2
DA:343,2
DA:344,2
DA:345,2
DA:346,2
DA:348,2
DA:349,2
DA:351,2
DA:352,2
DA:353,2
DA:354,2
DA:355,2
DA:356,2
DA:357,2
DA:359,2
DA:362,0
DA:363,0
DA:364,0
DA:365,0
DA:366,0
DA:367,0
DA:368,0
DA:369,0
DA:370,0
DA:372,0
DA:375,0
DA:376,0
DA:377,0
DA:378,0
DA:379,0
DA:380,0
DA:381,0
DA:383,0
DA:391,38
DA:392,38
DA:394,38
DA:397,38
DA:398,38
DA:399,38
DA:400,38
DA:401,38
DA:402,38
DA:403,38
DA:405,38
DA:408,1
DA:409,1
DA:410,1
DA:411,1
DA:412,1
DA:413,1
DA:414,1
DA:415,1
DA:418,1
DA:419,1
DA:420,1
DA:421,1
DA:423,1
DA:424,1
DA:425,1
DA:426,1
DA:428,1
DA:429,1
DA:430,1
DA:432,1
DA:433,1
DA:436,1
DA:437,1
DA:438,1
DA:440,1
DA:441,1
DA:442,1
DA:445,1
DA:446,1
DA:447,1
DA:449,1
DA:450,1
DA:451,1
DA:454,1
DA:455,1
DA:456,1
DA:458,1
DA:459,1
DA:460,1
DA:463,1
DA:464,1
DA:465,1
DA:467,1
DA:468,1
DA:469,1
DA:472,1
DA:475,1
DA:476,1
DA:477,1
DA:479,1
DA:480,1
DA:481,1
DA:484,1
DA:487,1
DA:488,1
DA:489,1
DA:491,1
DA:492,1
DA:493,1
DA:496,1
DA:499,1
DA:500,1
DA:501,1
DA:502,1
DA:503,1
DA:504,1
DA:505,1
DA:506,1
DA:507,1
DA:508,1
DA:509,1
DA:510,1
DA:511,1
DA:512,1
DA:513,1
DA:516,1
DA:518,1
DA:519,1
DA:520,1
DA:521,1
DA:524,1
DA:525,1
DA:526,1
DA:527,1
DA:528,1
DA:529,1
DA:530,1
DA:531,1
DA:532,1
DA:533,1
DA:534,1
DA:535,1
DA:536,1
DA:537,1
DA:539,1
DA:541,1
DA:542,1
DA:543,1
DA:546,1
DA:547,1
DA:549,1
DA:550,1
DA:552,1
DA:553,1
DA:556,1
DA:557,1
DA:560,1
DA:561,1
DA:562,1
DA:563,1
DA:564,1
DA:565,1
DA:567,1
DA:568,1
DA:570,1
DA:571,1
DA:573,1
DA:574,1
DA:575,1
DA:576,1
DA:577,1
DA:578,1
DA:580,1
DA:581,1
DA:582,1
DA:583,1
DA:586,1
DA:587,1
DA:588,1
DA:591,1
DA:594,1
DA:595,64
DA:596,1
DA:599,1
DA:600,1
DA:601,1
DA:602,1
DA:605,1
DA:606,1
DA:610,1
DA:611,1
DA:613,1
DA:616,1
DA:617,1
DA:618,1
DA:619,1
DA:620,1
DA:621,1
DA:622,1
DA:623,1
DA:624,1
DA:625,1
DA:628,1
DA:629,1
DA:630,1
DA:631,1
DA:632,1
DA:635,1
DA:636,1
DA:637,1
DA:640,1
DA:641,1
DA:642,1
DA:643,1
DA:644,1
DA:647,1
DA:648,1
DA:649,1
DA:651,1
DA:653,1
DA:654,1
DA:655,1
DA:658,1
DA:659,1
DA:660,1
DA:661,1
DA:662,1
DA:663,1
DA:664,1
DA:667,6
DA:668,5
DA:669,5
DA:671,5
DA:672,5
DA:674,1
DA:677,1
DA:678,1
DA:679,1
DA:680,1
DA:681,1
DA:682,1
DA:683,1
DA:686,6
DA:687,5
DA:688,5
DA:690,5
DA:691,5
DA:693,1
DA:696,1
DA:697,1
DA:701,2
DA:702,1
DA:703,1
DA:705,1
DA:706,1
DA:708,1
DA:711,1
DA:712,1
DA:714,1
DA:715,1
DA:716,1
DA:717,1
DA:718,1
DA:721,7
DA:722,6
DA:723,6
DA:725,6
DA:726,6
DA:728,1
DA:731,1
DA:732,1
DA:734,1
DA:735,1
DA:736,1
DA:739,5
DA:740,4
DA:741,4
DA:743,4
DA:744,4
DA:746,1
DA:749,1
DA:750,1
DA:752,1
DA:753,1
DA:754,1
DA:757,5
DA:758,4
DA:759,4
DA:761,4
DA:762,4
DA:764,1
DA:767,1
DA:768,1
DA:771,1
DA:772,1
DA:773,1
DA:774,1
DA:775,1
DA:776,1
DA:779,1
DA:780,1
DA:781,1
DA:782,1
DA:783,1
DA:786,1
DA:787,1
DA:788,1
DA:790,1
DA:791,1
DA:792,1
DA:793,1
DA:794,1
DA:795,1
DA:798,1
DA:799,1
DA:800,1
DA:801,1
DA:804,1
DA:805,1
DA:808,1
DA:809,1
DA:810,1
DA:811,1
DA:813,1
DA:814,1
DA:815,1
DA:816,1
DA:819,1
DA:820,1
DA:821,1
DA:824,1
DA:825,1
DA:826,1
DA:827,1
DA:828,1
DA:829,1
DA:830,1
DA:831,1
DA:833,1
DA:834,1
DA:836,1
DA:837,1
DA:838,1
DA:839,1
DA:840,1
DA:841,1
DA:842,1
DA:843,1
DA:846,1
DA:848,10
DA:851,11
DA:852,10
DA:856,1
DA:857,64
DA:858,1
BRF:0
BRH:0
LF:542
LH:519
end_of_record